(lp0
(lp1
S'let'
p2
aS'type'
p3
aS'id'
p4
aS':='
p5
aS'array'
p6
aS'of'
p7
aS'id'
p8
aS'var'
p9
aS'id'
p10
aS'type'
p11
aS':'
p12
aS'id'
p13
aS':='
p14
aS'id'
p15
aS'['
p16
aS'integer'
p17
aS']'
p18
aS'of'
p19
aS'integer'
p20
aS'in'
p21
aS'id'
p22
aS'end'
p23
aa(lp24
S'let'
p25
aS'type'
p26
aS'id'
p27
aS'='
p28
aS'var'
p29
aS'of'
p30
aS'id'
p31
aS'var'
p32
aS'id'
p33
ag12
aS'id'
p34
aS':='
p35
aS'id'
p36
ag16
aS'integer'
p37
ag18
aS'of'
p38
aS'integer'
p39
aS'in'
p40
aS'id'
p41
ag28
aa(lp42
S'let'
p43
aS'type'
p44
aS'id'
p45
ag28
aS'id'
p46
aS'type'
p47
aS'id'
p48
ag28
aS'array'
p49
aS'of'
p50
aS'id'
p51
aS'var'
p52
aS'id'
p53
aS'.'
p54
ag12
aS'id'
p55
aS'}'
p56
aS':='
p57
aS'id'
p58
ag16
aS'integer'
p59
ag18
aS'of'
p60
aS'integer'
p61
aS'in'
p62
aS'id'
p63
aS'end'
p64
aa(lp65
S'let'
p66
aS'type'
p67
aS'id'
p68
ag28
aS'id'
p69
aS'type'
p70
aS'id'
p71
ag28
aS'array'
p72
aS';'
p73
aS'of'
p74
aS'id'
p75
aS'var'
p76
aS'id'
p77
ag12
aS'id'
p78
ag28
aS':='
p79
aS'id'
p80
ag16
aS'integer'
p81
ag18
aS'of'
p82
aS'integer'
p83
aS'in'
p84
aS'id'
p85
aS'end'
p86
aa(lp87
S'let'
p88
aS'type'
p89
aS'id'
p90
ag28
aS'id'
p91
ag12
aS'id'
p92
aS','
p93
aS'id'
p94
aS'<='
p95
aS'id'
p96
ag56
aS'var'
p97
aS'id'
p98
ag12
aS'id'
p99
aS':='
p100
aS'id'
p101
aS'{'
p102
aS'id'
p103
ag28
aS'string'
p104
ag93
aS'id'
p105
ag28
aS'integer'
p106
ag56
aS'in'
p107
aS'id'
p108
ag54
aS'id'
p109
aS':='
p110
aS'string'
p111
ag73
aS'id'
p112
aS'end'
p113
aa(lp114
S'let'
p115
aS'type'
p116
aS'id'
p117
ag28
aS'id'
p118
ag12
aS'id'
p119
ag93
aS'id'
p120
ag12
aS'id'
p121
ag56
aS'nil'
p122
aS'var'
p123
aS'id'
p124
ag12
aS'id'
p125
aS':='
p126
aS'id'
p127
ag102
aS'id'
p128
ag28
aS'string'
p129
ag93
aS'id'
p130
ag28
aS'integer'
p131
ag56
aS'in'
p132
aS'id'
p133
ag54
aS'id'
p134
aS':='
p135
aS'string'
p136
ag73
aS'id'
p137
aS'end'
p138
aa(lp139
S'let'
p140
aS'function'
p141
aS'id'
p142
aS'('
p143
aS'id'
p144
ag12
aS'id'
p145
aS'then'
p146
aS')'
p147
ag12
aS'id'
p148
ag28
aS'if'
p149
aS'id'
p150
ag28
aS'integer'
p151
aS'then'
p152
aS'integer'
p153
aS'else'
p154
ag11
aS'*'
p155
aS'id'
p156
ag143
aS'id'
p157
aS'-'
p158
aS'integer'
p159
ag147
aS'in'
p160
aS'id'
p161
ag143
aS'integer'
p162
ag147
aS'end'
p163
aa(lp164
S'let'
p165
aS'function'
p166
aS'id'
p167
ag143
aS'id'
p168
ag12
aS'id'
p169
ag147
ag12
aS'id'
p170
ag28
aS'if'
p171
aS'id'
p172
ag28
aS'then'
p173
aS'>='
p174
aS'integer'
p175
aS'else'
p176
aS'id'
p177
ag155
aS'id'
p178
ag143
aS'id'
p179
ag158
aS'integer'
p180
ag147
aS'in'
p181
aS'id'
p182
ag143
aS'integer'
p183
ag147
aS'end'
p184
aa(lp185
S'let'
p186
aS'type'
p187
aS'id'
p188
ag28
ag102
aS'id'
p189
ag12
aS'id'
p190
ag93
aS'id'
p191
ag12
aS'id'
p192
ag56
aS'type'
p193
aS'id'
p194
ag122
ag102
aS'id'
p195
ag12
aS'id'
p196
ag93
aS'id'
p197
ag12
aS'of'
p198
aS'id'
p199
ag56
aS'type'
p200
aS'id'
p201
ag28
ag102
aS'id'
p202
ag12
aS'id'
p203
ag93
aS'id'
p204
ag12
aS'id'
p205
ag56
aS'var'
p206
aS'id'
p207
ag12
aS'id'
p208
aS':='
p209
aS'id'
p210
ag102
aS'id'
p211
ag28
aS'integer'
p212
ag93
aS'id'
p213
ag28
aS'nil'
p214
ag56
aS'in'
p215
aS'id'
p216
aS'end'
p217
aa(lp218
S'let'
p219
aS'type'
p220
aS'id'
p221
ag95
ag28
ag102
aS'id'
p222
ag12
aS'id'
p223
ag93
aS'id'
p224
ag12
aS'id'
p225
ag56
aS'type'
p226
aS'id'
p227
ag28
ag102
aS'id'
p228
ag12
aS'id'
p229
ag93
aS'id'
p230
ag12
aS'id'
p231
ag56
aS'type'
p232
aS'id'
p233
ag28
ag102
aS'id'
p234
ag12
aS'id'
p235
ag93
aS'id'
p236
ag12
aS'id'
p237
ag56
aS'var'
p238
aS'id'
p239
ag12
aS'id'
p240
aS'while'
p241
aS'id'
p242
ag102
aS'id'
p243
ag28
aS'integer'
p244
ag93
aS'id'
p245
ag28
aS'nil'
p246
ag56
aS'in'
p247
aS'id'
p248
aS'end'
p249
aa(lp250
S'let'
p251
aS'function'
p252
aS'id'
p253
ag143
aS'id'
p254
ag12
aS'id'
p255
ag93
aS'id'
p256
ag12
aS'id'
p257
ag147
ag28
aS'id'
p258
ag143
aS'id'
p259
aS'+'
p260
aS'integer'
p261
ag147
aS'function'
p262
aS'id'
p263
ag143
aS'id'
p264
ag12
aS'id'
p265
ag147
ag28
aS'id'
p266
ag143
aS'id'
p267
ag93
aS'string'
p268
ag147
aS'in'
p269
aS'id'
p270
ag143
aS'integer'
p271
ag93
aS'string'
p272
ag147
aS'do'
p273
aS'end'
p274
aa(lp275
S'let'
p276
aS'function'
p277
aS'id'
p278
ag143
aS'id'
p279
ag12
aS'id'
p280
ag93
aS'id'
p281
ag12
aS'id'
p282
ag147
ag28
aS'id'
p283
ag143
aS'id'
p284
ag260
aS'integer'
p285
ag147
aS'function'
p286
aS'id'
p287
ag143
aS'id'
p288
ag12
aS'id'
p289
ag147
ag28
aS'id'
p290
aS'for'
p291
ag143
aS'id'
p292
ag93
aS'string'
p293
ag147
aS'in'
p294
aS'id'
p295
ag143
aS'integer'
p296
ag93
aS'string'
p297
ag147
aS'end'
p298
aa(lp299
S'let'
p300
aS'function'
p301
ag143
aS'id'
p302
aS'id'
p303
ag93
aS'id'
p304
ag12
aS'id'
p305
ag147
ag12
aS'id'
p306
ag28
ag143
aS'id'
p307
ag143
aS'id'
p308
ag260
aS'integer'
p309
ag147
ag73
aS'integer'
p310
ag147
aS'function'
p311
aS'id'
p312
ag143
aS'id'
p313
ag12
aS'id'
p314
ag147
ag12
aS'id'
p315
ag28
ag143
aS'id'
p316
ag143
aS'id'
p317
ag93
aS'string'
p318
ag147
ag73
aS'string'
p319
ag147
aS'in'
p320
aS'id'
p321
ag143
aS'integer'
p322
ag93
aS'string'
p323
ag147
aS'end'
p324
aa(lp325
S'let'
p326
aS'function'
p327
aS'id'
p328
ag143
aS'id'
p329
ag12
aS'id'
p330
ag93
aS'id'
p331
ag12
aS'id'
p332
ag147
ag12
aS'id'
p333
ag28
ag143
aS'id'
p334
ag143
aS'id'
p335
ag260
aS'integer'
p336
ag147
ag73
aS'integer'
p337
ag147
aS'function'
p338
aS'id'
p339
ag143
ag29
aS'id'
p340
ag12
aS'id'
p341
ag147
ag12
aS'id'
p342
ag146
ag28
ag143
aS'id'
p343
ag143
aS'id'
p344
ag93
aS'string'
p345
ag147
ag73
aS'string'
p346
ag147
aS'in'
p347
aS'id'
p348
ag143
aS'integer'
p349
ag93
aS'string'
p350
ag147
aS'end'
p351
aa(lp352
S'if'
p353
ag143
aS'integer'
p354
aS'integer'
p355
aS'then'
p356
aS'integer'
p357
aS'else'
p358
aS'integer'
p359
aa(lp360
S'if'
p361
ag143
aS'integer'
p362
aS'>'
p363
aS'integer'
p364
ag147
aS'then'
p365
aS'integer'
p366
ag260
aS'break'
p367
aS'else'
p368
aS'integer'
p369
aa(lp370
S'if'
p371
ag143
ag29
aS'integer'
p372
ag363
aS'integer'
p373
ag147
aS'then'
p374
aS'integer'
p375
ag260
aS'string'
p376
aa(lp377
S'if'
p378
ag363
aS'integer'
p379
ag363
ag122
ag147
aS'then'
p380
aS'integer'
p381
aS'else'
p382
aS'string'
p383
aa(lp384
S'while'
p385
ag143
aS'integer'
p386
aS'integer'
p387
ag147
aS'do'
p388
aS'integer'
p389
ag260
aS'integer'
p390
aa(lp391
S'while'
p392
ag143
aS'integer'
p393
aS'integer'
p394
aS'do'
p395
aS'integer'
p396
ag260
aS'integer'
p397
aa(lp398
S'for'
p399
aS'id'
p400
aS':='
p401
aS'else'
p402
aS'to'
p403
aS'string'
p404
aS'do'
p405
aS'id'
p406
aS':='
p407
aS'id'
p408
aS'integer'
p409
aa(lp410
S'&'
p411
aS'id'
p412
aS':='
p413
aS'to'
p414
aS'string'
p415
aS'do'
p416
aS'id'
p417
aS':='
p418
aS'id'
p419
ag158
aS'integer'
p420
aa(lp421
S'let'
p422
aS'var'
p423
aS'id'
p424
aS':='
p425
aS'integer'
p426
aS'in'
p427
aS'for'
p428
aS'id'
p429
aS':='
p430
aS'integer'
p431
aS'to'
p432
aS'integer'
p433
aS'do'
p434
ag143
aS'id'
p435
aS':='
p436
aS'id'
p437
ag260
aS'integer'
p438
ag73
ag143
aS'<'
p439
ag93
ag147
aS'end'
p440
aa(lp441
S'let'
p442
aS'var'
p443
aS':='
p444
aS'integer'
p445
aS'in'
p446
aS'for'
p447
aS'id'
p448
aS':='
p449
aS'integer'
p450
aS'to'
p451
aS'integer'
p452
aS'do'
p453
ag143
aS'id'
p454
aS':='
p455
aS'id'
p456
ag56
aS'integer'
p457
ag73
ag143
ag147
ag147
aS'end'
p458
aa(lp459
S'integer'
p460
ag18
aa(lp461
S'array'
p462
ag277
ag363
aS'string'
p463
aa(lp464
S'let'
p465
aS'type'
p466
aS'id'
p467
ag28
aS'array'
p468
aS'of'
p469
aS'id'
p470
aS'type'
p471
aS'id'
p472
ag28
ag102
aS'id'
p473
ag12
aS'id'
p474
ag93
aS'id'
p475
ag12
aS'id'
p476
ag56
aS'var'
p477
aS'id'
p478
aS':='
p479
ag18
aS'id'
p480
ag102
aS'id'
p481
ag28
aS'string'
p482
ag11
aS'id'
p483
ag28
aS'integer'
p484
ag56
aS'var'
p485
aS'id'
p486
aS':='
p487
aS'id'
p488
ag16
aS'integer'
p489
ag18
aS'of'
p490
aS'integer'
p491
aS'in'
p492
aS'if'
p493
aS'id'
p494
aS'<>'
p495
aS'id'
p496
aS'then'
p497
aS'integer'
p498
aS'else'
p499
aS'integer'
p500
aS'end'
p501
aa(lp502
S'let'
p503
aS'type'
p504
aS'id'
p505
ag28
aS'array'
p506
aS'of'
p507
aS'id'
p508
aS'type'
p509
aS'id'
p510
ag174
ag102
aS'id'
p511
ag12
aS'id'
p512
ag93
aS'id'
p513
ag12
aS'id'
p514
ag56
aS'var'
p515
aS'id'
p516
aS':='
p517
aS'id'
p518
ag102
aS'id'
p519
ag28
aS'string'
p520
ag93
aS'id'
p521
ag28
aS'integer'
p522
ag56
aS'var'
p523
aS'id'
p524
aS':='
p525
aS'id'
p526
ag16
aS'integer'
p527
aS'of'
p528
aS'integer'
p529
aS'in'
p530
aS'if'
p531
aS'id'
p532
aS'<>'
p533
aS'id'
p534
aS'then'
p535
aS'integer'
p536
aS'else'
p537
aS'integer'
p538
aS'end'
p539
aa(lp540
g291
aS'integer'
p541
ag462
aS'integer'
p542
aa(lp543
S'integer'
p544
ag462
aS'integer'
p545
aa(lp546
S'let'
p547
aS'type'
p548
aS'id'
p549
ag18
aS'id'
p550
aS'type'
p551
aS'id'
p552
ag28
aS'id'
p553
aS'type'
p554
aS'id'
p555
ag28
aS'id'
p556
aS'type'
p557
aS'id'
p558
ag28
aS'id'
p559
aS'in'
p560
aS'string'
p561
aS'end'
p562
aa(lp563
S'let'
p564
aS'type'
p565
aS'id'
p566
ag28
aS'id'
p567
aS'type'
p568
aS'id'
p569
ag28
aS'id'
p570
aS'type'
p571
aS'id'
p572
ag241
ag439
aS'type'
p573
aS'id'
p574
ag28
aS'id'
p575
aS'in'
p576
aS'string'
p577
aS'end'
p578
aa(lp579
S'let'
p580
aS'type'
p581
aS'id'
p582
ag28
ag102
aS'id'
p583
aS'id'
p584
ag93
aS'id'
p585
ag12
aS'id'
p586
aS'var'
p587
aS'id'
p588
ag12
aS'id'
p589
aS':='
p590
aS'integer'
p591
aS'type'
p592
aS'id'
p593
ag28
ag102
aS'id'
p594
ag12
aS'id'
p595
ag93
aS'id'
p596
ag12
aS'id'
p597
ag56
aS'in'
p598
aS'id'
p599
aS'end'
p600
aa(lp601
S'let'
p602
aS'type'
p603
ag28
ag102
aS'id'
p604
ag12
aS'id'
p605
ag93
aS'id'
p606
ag12
aS'id'
p607
ag56
aS'var'
p608
aS'id'
p609
ag12
aS'id'
p610
ag367
aS'integer'
p611
aS'type'
p612
aS'id'
p613
ag28
ag102
aS'id'
p614
ag12
aS'id'
p615
ag93
aS'id'
p616
ag12
aS'id'
p617
ag56
aS'in'
p618
aS'id'
p619
aS'end'
p620
aa(lp621
S'id'
p622
aS'let'
p623
aS'function'
p624
aS'id'
p625
ag143
aS'id'
p626
ag12
aS'id'
p627
ag93
aS'id'
p628
ag12
aS'id'
p629
ag147
ag12
aS'/'
p630
aS'id'
p631
ag28
ag143
aS'id'
p632
ag143
aS'id'
p633
ag260
aS'integer'
p634
ag147
ag73
aS'integer'
p635
ag147
aS'var'
p636
aS'id'
p637
aS':='
p638
aS'integer'
p639
aS'function'
p640
aS'id'
p641
ag143
aS'id'
p642
ag12
aS'id'
p643
ag147
ag12
aS'id'
p644
ag28
ag143
aS'id'
p645
ag143
aS'id'
p646
ag93
aS'string'
p647
ag147
ag73
aS'string'
p648
ag147
aS'in'
p649
aS'id'
p650
ag143
aS'integer'
p651
ag93
aS'string'
p652
ag147
aS'end'
p653
aa(lp654
S'let'
p655
aS'function'
p656
aS'id'
p657
ag143
aS'id'
p658
ag12
aS'id'
p659
ag93
aS'id'
p660
ag12
aS'id'
p661
ag147
aS'string'
p662
ag12
aS'id'
p663
ag28
ag143
aS'id'
p664
ag143
aS'id'
p665
ag260
aS'integer'
p666
ag147
ag73
aS'integer'
p667
ag147
aS'var'
p668
aS'id'
p669
aS':='
p670
aS'integer'
p671
aS'function'
p672
aS'id'
p673
ag143
aS'id'
p674
ag12
aS'id'
p675
ag147
ag146
ag12
aS'id'
p676
ag28
ag143
aS'id'
p677
ag143
aS'id'
p678
ag93
aS'string'
p679
ag147
ag73
aS'string'
p680
ag147
aS'in'
p681
aS'id'
p682
ag143
aS'integer'
p683
ag93
aS'string'
p684
ag147
aS'end'
p685
aa(lp686
S'let'
p687
ag11
aS'function'
p688
aS'id'
p689
ag143
aS'id'
p690
ag12
aS'id'
p691
ag93
aS'id'
p692
ag12
aS'id'
p693
ag147
ag12
aS'id'
p694
ag28
ag143
aS'id'
p695
ag143
aS'id'
p696
ag260
aS'integer'
p697
ag147
ag73
aS'integer'
p698
ag147
aS'function'
p699
aS'id'
p700
ag143
aS'id'
p701
ag12
aS'id'
p702
ag147
ag12
aS'id'
p703
ag28
ag143
aS'id'
p704
ag143
aS'id'
p705
ag93
aS'string'
p706
ag260
ag147
ag73
aS'string'
p707
ag147
aS'in'
p708
aS'id'
p709
ag143
aS'integer'
p710
ag93
aS'string'
p711
ag147
aS'end'
p712
aa(lp713
S'let'
p714
aS'function'
p715
aS'id'
p716
ag143
aS'id'
p717
ag12
aS'id'
p718
ag93
aS'id'
p719
ag12
aS'id'
p720
ag147
ag12
aS'id'
p721
ag28
ag143
aS'id'
p722
ag143
aS'id'
p723
ag260
ag630
ag147
ag73
aS'integer'
p724
ag147
aS'function'
p725
aS'id'
p726
ag143
aS'id'
p727
ag12
aS'id'
p728
ag147
ag12
aS'id'
p729
ag28
ag143
aS'id'
p730
ag143
aS'id'
p731
ag93
aS'string'
p732
ag147
ag73
aS'string'
p733
ag158
ag147
aS'in'
p734
aS'id'
p735
ag143
aS'integer'
p736
ag93
aS'string'
p737
ag147
aS'end'
p738
aa(lp739
S'while'
p740
aS'|'
p741
ag363
aS'integer'
p742
aS'do'
p743
ag143
aS'id'
p744
ag260
aS'integer'
p745
ag143
ag147
ag147
aa(lp746
S'while'
p747
ag158
ag363
aS'integer'
p748
aS'do'
p749
ag143
aS'id'
p750
ag260
aS'integer'
p751
ag73
ag143
ag147
ag147
aa(lp752
S'let'
p753
aS'function'
p754
ag277
ag143
aS'id'
p755
ag12
aS'id'
p756
ag147
ag28
aS'if'
p757
aS'id'
p758
ag28
aS'integer'
p759
aS'integer'
p760
aS'else'
p761
aS'id'
p762
ag155
aS'id'
p763
ag143
aS'id'
p764
ag158
aS'integer'
p765
ag147
aS'in'
p766
aS'id'
p767
ag143
aS'integer'
p768
ag147
aS'end'
p769
aa(lp770
S'let'
p771
aS'function'
p772
aS'id'
p773
ag143
aS'let'
p774
aS'id'
p775
ag12
aS'id'
p776
ag147
ag28
aS'if'
p777
aS'id'
p778
ag273
aS'integer'
p779
aS'then'
p780
aS'integer'
p781
aS'else'
p782
aS'id'
p783
ag155
aS'id'
p784
ag143
aS'id'
p785
ag158
aS'integer'
p786
ag147
aS'in'
p787
aS'id'
p788
ag143
aS'integer'
p789
ag147
aS'end'
p790
aa(lp791
S'let'
p792
aS'type'
p793
aS'if'
p794
aS'id'
p795
ag28
ag102
aS'id'
p796
ag12
aS'id'
p797
ag93
ag56
aS'id'
p798
ag12
aS'id'
p799
ag56
aS'var'
p800
aS'id'
p801
aS':='
p802
aS'id'
p803
ag102
aS'id'
p804
ag28
aS'string'
p805
ag93
aS'id'
p806
ag28
aS'integer'
p807
ag56
aS'in'
p808
aS'id'
p809
ag54
aS'id'
p810
aS':='
p811
aS'string'
p812
aS'end'
p813
aa(lp814
S'let'
p815
aS'type'
p816
ag28
ag102
aS'id'
p817
ag12
aS'id'
p818
ag93
aS'id'
p819
ag12
aS'id'
p820
ag56
aS'var'
p821
aS'id'
p822
aS':='
p823
aS'id'
p824
ag102
aS'id'
p825
ag28
aS'string'
p826
ag93
aS'id'
p827
ag28
aS'integer'
p828
ag56
aS'in'
p829
aS'id'
p830
ag54
aS'id'
p831
aS':='
p832
ag622
aS'string'
p833
aS'end'
p834
aa(lp835
S'let'
p836
aS'type'
p837
ag146
aS'id'
p838
ag28
ag102
aS'id'
p839
ag12
aS'id'
p840
ag93
aS'id'
p841
ag12
aS'id'
p842
ag56
aS'var'
p843
aS'id'
p844
aS':='
p845
aS'id'
p846
ag102
aS'id'
p847
ag28
aS'string'
p848
ag93
aS'id'
p849
ag28
aS'integer'
p850
ag56
aS'in'
p851
aS'id'
p852
ag54
aS'id'
p853
aS':='
p854
ag291
ag73
aS'id'
p855
ag54
aS'id'
p856
aS':='
p857
aS'string'
p858
aS'end'
p859
aa(lp860
S'let'
p861
aS'type'
p862
aS'id'
p863
ag28
ag102
aS'id'
p864
ag12
aS'id'
p865
ag93
aS'id'
p866
ag12
ag54
aS'id'
p867
ag56
aS'var'
p868
aS'id'
p869
aS':='
p870
aS'id'
p871
ag102
aS'id'
p872
ag28
aS'string'
p873
ag93
aS'id'
p874
ag28
ag143
ag56
aS'in'
p875
aS'id'
p876
ag54
aS'id'
p877
aS':='
p878
aS'integer'
p879
ag73
aS'id'
p880
ag54
aS'id'
p881
aS':='
p882
aS'string'
p883
aS'end'
p884
aa(lp885
S'let'
p886
aS'var'
p887
ag146
aS':='
p888
aS'integer'
p889
aS'in'
p890
aS'id'
p891
ag16
aS'integer'
p892
ag18
aS'end'
p893
aa(lp894
S'var'
p895
ag16
aS':='
p896
aS'integer'
p897
aS'in'
p898
aS'id'
p899
ag16
aS'integer'
p900
ag18
aS'end'
p901
aa(lp902
S'let'
p903
aS'var'
p904
aS'id'
p905
aS':='
p906
ag147
aS'integer'
p907
aS'in'
p908
ag402
aS'id'
p909
ag54
aS'id'
p910
aS'end'
p911
aa(lp912
S'let'
p913
aS'var'
p914
aS'eps'
p915
ag146
aS'id'
p916
aS':='
p917
aS'integer'
p918
aS'in'
p919
aS'id'
p920
ag54
aS'id'
p921
aS'end'
p922
aa(lp923
S'integer'
p924
ag260
ag11
aa(lp925
S'!='
p926
ag18
ag260
aS'string'
p927
aa(lp928
S'let'
p929
aS'var'
p930
aS'id'
p931
aS':='
p932
aS'integer'
p933
aS'function'
p934
aS'id'
p935
ag143
aS'id'
p936
ag12
ag29
aS'in'
p937
ag147
ag12
aS'id'
p938
ag28
aS'id'
p939
aS'in'
p940
aS'id'
p941
ag143
aS'integer'
p942
ag147
aS'end'
p943
aa(lp944
S'let'
p945
aS'var'
p946
aS'id'
p947
aS':='
p948
aS'integer'
p949
aS'function'
p950
aS'id'
p951
ag143
aS'id'
p952
ag12
aS'id'
p953
ag147
ag12
aS'id'
p954
ag28
aS'id'
p955
ag11
aS'in'
p956
aS'id'
p957
ag143
ag12
aS'integer'
p958
ag147
aS'end'
p959
aa(lp960
S'let'
p961
aS'type'
p962
ag28
ag102
aS'id'
p963
ag12
aS'id'
p964
ag93
aS'id'
p965
ag12
aS'id'
p966
ag56
aS'type'
p967
aS'id'
p968
ag28
ag102
aS'id'
p969
ag12
aS'id'
p970
ag93
aS'id'
p971
ag12
aS'id'
p972
ag56
aS'var'
p973
aS'id'
p974
ag12
aS'id'
p975
aS':='
p976
aS'id'
p977
ag102
aS'id'
p978
ag28
aS'string'
p979
ag93
aS'id'
p980
ag5
aS'integer'
p981
ag56
aS'in'
p982
aS'id'
p983
aS'end'
p984
aa(lp985
S'let'
p986
aS'type'
p987
ag28
ag102
aS'id'
p988
ag12
aS'id'
p989
ag93
aS'id'
p990
ag12
aS'id'
p991
ag93
ag56
aS'type'
p992
aS'id'
p993
ag28
ag102
aS'id'
p994
ag12
aS'id'
p995
ag93
aS'id'
p996
ag12
aS'id'
p997
ag56
aS'var'
p998
aS'id'
p999
ag12
aS'id'
p1000
aS':='
p1001
aS'id'
p1002
ag102
aS'id'
p1003
ag28
aS'string'
p1004
ag93
aS'id'
p1005
ag28
aS'integer'
p1006
ag56
aS'in'
p1007
aS'id'
p1008
aS'end'
p1009
aa(lp1010
S'let'
p1011
aS'type'
p1012
aS'id'
p1013
ag273
aS'of'
p1014
aS'id'
p1015
aS'type'
p1016
aS'id'
p1017
ag28
aS'array'
p1018
aS'of'
p1019
aS'id'
p1020
aS'var'
p1021
aS'id'
p1022
ag12
aS'id'
p1023
aS':='
p1024
aS'id'
p1025
ag16
aS'integer'
p1026
ag18
aS'of'
p1027
aS'integer'
p1028
aS'in'
p1029
aS'id'
p1030
aS'end'
p1031
aa(lp1032
S'let'
p1033
aS'type'
p1034
ag28
aS'array'
p1035
aS'of'
p1036
aS'id'
p1037
aS'type'
p1038
aS'id'
p1039
ag28
aS'array'
p1040
aS'of'
p1041
aS'id'
p1042
aS'var'
p1043
aS'id'
p1044
ag12
aS'id'
p1045
aS':='
p1046
aS'id'
p1047
ag16
aS'integer'
p1048
ag18
aS'of'
p1049
aS'integer'
p1050
aS'in'
p1051
aS'id'
p1052
aa(lp1053
S'let'
p1054
aS'type'
p1055
ag28
aS'array'
p1056
aS'of'
p1057
aS'id'
p1058
aS'type'
p1059
aS'id'
p1060
ag28
aS'id'
p1061
aS'var'
p1062
aS'id'
p1063
ag12
aS'id'
p1064
aS':='
p1065
aS'id'
p1066
ag16
aS'integer'
p1067
ag18
ag462
aS'of'
p1068
aS'integer'
p1069
aS'in'
p1070
aS'id'
p1071
ag16
aS'integer'
p1072
ag18
aS'end'
p1073
aa(lp1074
S'let'
p1075
aS'type'
p1076
ag367
ag28
aS'array'
p1077
aS'of'
p1078
aS'id'
p1079
ag662
aS'id'
p1080
ag28
aS'id'
p1081
aS'var'
p1082
aS'id'
p1083
ag12
aS'id'
p1084
aS':='
p1085
aS'id'
p1086
ag16
aS'integer'
p1087
ag18
aS'of'
p1088
aS'integer'
p1089
aS'in'
p1090
aS'id'
p1091
ag16
aS'integer'
p1092
ag18
aS'end'
p1093
aa(lp1094
S'let'
p1095
ag56
aS'id'
p1096
aS'id'
p1097
aS':='
p1098
aS'string'
p1099
aS'in'
p1100
aS'id'
p1101
aS'end'
p1102
aa(lp1103
g363
aS'let'
p1104
aS'var'
p1105
aS'id'
p1106
ag12
aS'id'
p1107
aS':='
p1108
aS'string'
p1109
aS'in'
p1110
aS'id'
p1111
aS'end'
p1112
aa(lp1113
S'let'
p1114
aS'type'
p1115
ag28
aS'array'
p1116
aS'of'
p1117
ag155
aS'var'
p1118
aS'id'
p1119
aS':='
p1120
aS'id'
p1121
ag16
aS'integer'
p1122
ag18
aS'of'
p1123
aS'string'
p1124
aS'in'
p1125
aS'integer'
p1126
aS'end'
p1127
aa(lp1128
S'let'
p1129
aS'type'
p1130
ag411
ag28
aS'array'
p1131
aS'of'
p1132
aS'id'
p1133
aS'var'
p1134
aS'id'
p1135
aS':='
p1136
aS'id'
p1137
ag16
aS'integer'
p1138
ag18
aS'of'
p1139
aS'string'
p1140
aS'in'
p1141
aS'integer'
p1142
ag18
aS'end'
p1143
aa(lp1144
S'let'
p1145
aS'var'
p1146
aS'id'
p1147
aS':='
p1148
aS'id'
p1149
ag102
aS'in'
p1150
aS'integer'
p1151
aa(lp1152
S'let'
p1153
aS'var'
p1154
ag95
aS'id'
p1155
aS':='
p1156
aS'id'
p1157
ag102
ag5
ag56
aS'in'
p1158
aS'integer'
p1159
aS'end'
p1160
aa(lp1161
S'let'
p1162
aS'function'
p1163
aS'id'
p1164
ag143
aS'id'
p1165
ag12
aS'id'
p1166
ag93
aS'id'
p1167
ag12
aS'id'
p1168
ag147
ag12
aS'id'
p1169
ag28
aS'id'
p1170
aS'in'
p1171
aS'id'
p1172
ag143
ag260
ag93
ag147
aS'end'
p1173
aa(lp1174
S'let'
p1175
aS'function'
p1176
aS'id'
p1177
ag143
aS'id'
p1178
ag12
aS'id'
p1179
ag93
aS'id'
p1180
ag12
aS'id'
p1181
ag12
aS'id'
p1182
aS'id'
p1183
aS'in'
p1184
aS'id'
p1185
ag143
aS'string'
p1186
ag93
aS'string'
p1187
ag147
aS'end'
p1188
aa(lp1189
S'let'
p1190
aS'function'
p1191
aS'id'
p1192
ag143
aS'id'
p1193
ag95
ag12
aS'id'
p1194
ag93
aS'id'
p1195
ag12
aS'id'
p1196
ag198
ag12
aS'id'
p1197
ag28
aS'id'
p1198
aS'in'
p1199
aS'id'
p1200
ag143
aS'string'
p1201
ag147
aS'end'
p1202
aa(lp1203
S'let'
p1204
aS'function'
p1205
ag143
aS'id'
p1206
ag12
aS'id'
p1207
ag93
aS'id'
p1208
ag12
aS'id'
p1209
ag147
ag12
aS'id'
p1210
ag28
aS'id'
p1211
ag915
aS'id'
p1212
ag143
aS'string'
p1213
ag147
aS'end'
p1214
aa(lp1215
S'let'
p1216
aS'function'
p1217
ag143
aS'id'
p1218
ag12
aS'id'
p1219
aS'id'
p1220
ag12
aS'id'
p1221
ag147
ag12
aS'id'
p1222
ag28
aS'id'
p1223
aS'in'
p1224
aS'id'
p1225
ag143
aS'integer'
p1226
ag93
aS'string'
p1227
ag93
aS'integer'
p1228
ag147
aS'end'
p1229
aa(lp1230
S'let'
p1231
aS'function'
p1232
aS'id'
p1233
ag143
aS'id'
p1234
ag12
aS'id'
p1235
aS'id'
p1236
ag12
aS'id'
p1237
ag147
ag12
aS'id'
p1238
ag28
aS'id'
p1239
aS'in'
p1240
aS'id'
p1241
ag143
aS'integer'
p1242
ag158
aS'string'
p1243
ag93
aS'integer'
p1244
ag147
aS'end'
p1245
aa(lp1246
S'let'
p1247
aS'var'
p1248
aS'id'
p1249
aS':='
p1250
aS'integer'
p1251
ag260
aS'var'
p1252
aS'id'
p1253
aS':='
p1254
aS'in'
p1255
aS'integer'
p1256
aS'end'
p1257
aa(lp1258
S'let'
p1259
aS'var'
p1260
aS'integer'
p1261
aS'var'
p1262
aS'id'
p1263
aS':='
p1264
aS'string'
p1265
aS'in'
p1266
aS'integer'
p1267
aS'end'
p1268
aa(lp1269
S'let'
p1270
aS'type'
p1271
aS'id'
p1272
ag28
aS'id'
p1273
aS'type'
p1274
aS'id'
p1275
ag28
aS'id'
p1276
aS'in'
p1277
aS'integer'
p1278
ag241
aS'end'
p1279
aa(lp1280
S'let'
p1281
aS'id'
p1282
ag28
aS'id'
p1283
aS'type'
p1284
aS'id'
p1285
ag28
aS'id'
p1286
ag102
aS'in'
p1287
aS'integer'
p1288
aS'end'
p1289
aa(lp1290
g367
aS'function'
p1291
aS'id'
p1292
ag143
ag143
ag12
aS'id'
p1293
ag147
ag12
aS'id'
p1294
ag28
aS'id'
p1295
aS'function'
p1296
aS'id'
p1297
ag143
aS'id'
p1298
ag12
aS'id'
p1299
ag147
ag12
aS'id'
p1300
ag28
aS'id'
p1301
aS'in'
p1302
aS'integer'
p1303
aS'end'
p1304
aa(lp1305
S'let'
p1306
aS'function'
p1307
aS'id'
p1308
ag143
aS'id'
p1309
ag12
aS'id'
p1310
ag147
ag12
aS'id'
p1311
ag28
aS'id'
p1312
aS'function'
p1313
aS'id'
p1314
ag143
ag95
aS'id'
p1315
ag622
aS'id'
p1316
ag147
ag12
aS'id'
p1317
ag28
aS'id'
p1318
aS'in'
p1319
aS'integer'
p1320
aS'end'
p1321
aa(lp1322
S'let'
p1323
aS'function'
p1324
aS'id'
p1325
ag143
aS'id'
p1326
ag12
aS'id'
p1327
ag147
ag28
aS'id'
p1328
aS'in'
p1329
aS'id'
p1330
ag95
ag29
aS'integer'
p1331
ag147
aS'end'
p1332
aa(lp1333
S'let'
p1334
aS'function'
p1335
ag28
ag95
aS'id'
p1336
ag143
aS'id'
p1337
ag12
aS'id'
p1338
ag147
ag28
aS'id'
p1339
aS'in'
p1340
aS'id'
p1341
ag143
aS'integer'
p1342
ag147
aS'end'
p1343
aa(lp1344
S'let'
p1345
aS'type'
p1346
ag28
aS'id'
p1347
aS'in'
p1348
aS'let'
p1349
aS'type'
p1350
aS'id'
p1351
ag28
ag241
aS'in'
p1352
aS'integer'
p1353
aS'end'
p1354
aS'end'
p1355
aa(lp1356
S'let'
p1357
aS'type'
p1358
aS'id'
p1359
ag28
aS'id'
p1360
ag95
aS'type'
p1361
aS'id'
p1362
ag28
aS'id'
p1363
aS'in'
p1364
aS'integer'
p1365
aS'end'
p1366
aS'end'
p1367
aa(lp1368
S'let'
p1369
aS'type'
p1370
aS'id'
p1371
ag28
aS'array'
p1372
aS'of'
p1373
aS'id'
p1374
aS'type'
p1375
aS'id'
p1376
ag28
ag102
aS'id'
p1377
ag12
aS'id'
p1378
ag93
aS'id'
p1379
ag12
aS'id'
p1380
ag93
aS'id'
p1381
ag12
aS'id'
p1382
ag93
aS'id'
p1383
ag12
aS'id'
p1384
ag56
aS'type'
p1385
aS'id'
p1386
ag28
aS'array'
p1387
aS'of'
p1388
aS'id'
p1389
aS'type'
p1390
aS'id'
p1391
ag28
ag102
aS'id'
p1392
ag147
aS'id'
p1393
ag93
aS'id'
p1394
ag12
aS'id'
p1395
ag56
aS'type'
p1396
aS'id'
p1397
ag28
aS'array'
p1398
aS'of'
p1399
aS'id'
p1400
aS'var'
p1401
aS'id'
p1402
aS':='
p1403
aS'id'
p1404
ag16
aS'integer'
p1405
ag18
aS'of'
p1406
aS'integer'
p1407
aS'var'
p1408
aS'id'
p1409
aS':='
p1410
aS'id'
p1411
ag16
aS'integer'
p1412
ag18
aS'of'
p1413
aS'id'
p1414
ag102
aS'id'
p1415
ag28
aS'string'
p1416
ag93
aS'id'
p1417
ag28
aS'string'
p1418
ag93
aS'id'
p1419
ag28
aS'integer'
p1420
ag93
aS'id'
p1421
ag28
aS'integer'
p1422
ag56
aS'var'
p1423
aS'id'
p1424
ag12
aS'id'
p1425
aS':='
p1426
aS'id'
p1427
aS'end'
p1428
aS'integer'
p1429
ag18
aS'of'
p1430
aS'string'
p1431
aS'var'
p1432
aS'id'
p1433
aS':='
p1434
aS'id'
p1435
ag102
aS'id'
p1436
ag28
aS'string'
p1437
ag93
aS'id'
p1438
ag28
aS'string'
p1439
ag93
aS'id'
p1440
ag28
aS'integer'
p1441
ag93
aS'id'
p1442
ag28
aS'integer'
p1443
ag56
aS'var'
p1444
aS'id'
p1445
aS':='
p1446
aS'id'
p1447
ag102
aS'id'
p1448
ag28
aS'string'
p1449
ag93
aS'id'
p1450
ag28
aS'id'
p1451
ag16
aS'integer'
p1452
ag18
aS'of'
p1453
aS'integer'
p1454
ag56
aS'in'
p1455
aS'id'
p1456
ag16
aS'integer'
p1457
ag18
aS':='
p1458
aS'integer'
p1459
ag73
aS'id'
p1460
ag16
aS'integer'
p1461
ag18
aS':='
p1462
aS'integer'
p1463
ag73
aS'id'
p1464
ag16
aS'integer'
p1465
ag18
ag54
aS'id'
p1466
aS':='
p1467
aS'string'
p1468
ag73
aS'id'
p1469
ag16
aS'integer'
p1470
ag18
ag54
aS'id'
p1471
aS':='
p1472
aS'integer'
p1473
ag73
aS'id'
p1474
ag16
aS'integer'
p1475
ag18
aS':='
p1476
aS'string'
p1477
ag73
aS'id'
p1478
ag54
aS'id'
p1479
aS':='
p1480
aS'string'
p1481
ag73
aS'id'
p1482
ag54
aS'id'
p1483
ag16
aS'integer'
p1484
ag18
aS':='
p1485
aS'integer'
p1486
ag73
aS'id'
p1487
ag54
aS'id'
p1488
ag16
aS'integer'
p1489
ag18
aS':='
p1490
aS'integer'
p1491
aS'end'
p1492
aa(lp1493
S'let'
p1494
aS'id'
p1495
ag28
aS'array'
p1496
aS'of'
p1497
aS'id'
p1498
aS'type'
p1499
aS'id'
p1500
ag28
ag102
aS'id'
p1501
ag12
aS'id'
p1502
ag93
aS'id'
p1503
ag12
aS'id'
p1504
ag93
aS'id'
p1505
ag12
aS'id'
p1506
ag93
aS'id'
p1507
ag12
aS'id'
p1508
ag56
aS'type'
p1509
aS'id'
p1510
ag28
aS'array'
p1511
aS'of'
p1512
aS'id'
p1513
aS'type'
p1514
aS'id'
p1515
ag28
ag102
aS'id'
p1516
ag12
aS'id'
p1517
ag93
aS'id'
p1518
ag12
aS'id'
p1519
ag56
aS'type'
p1520
aS'id'
p1521
ag28
aS'array'
p1522
aS'of'
p1523
aS'id'
p1524
aS'var'
p1525
aS'id'
p1526
aS':='
p1527
aS'id'
p1528
ag16
aS'integer'
p1529
ag18
aS'of'
p1530
aS'integer'
p1531
aS'var'
p1532
aS'id'
p1533
aS':='
p1534
aS'id'
p1535
ag16
aS'integer'
p1536
ag18
aS'of'
p1537
aS'id'
p1538
ag102
aS'id'
p1539
ag28
aS'string'
p1540
ag93
aS'id'
p1541
ag28
aS'string'
p1542
ag93
aS'id'
p1543
ag28
aS'integer'
p1544
ag93
aS'id'
p1545
ag28
aS'integer'
p1546
ag56
aS'var'
p1547
aS'id'
p1548
ag12
aS'id'
p1549
aS':='
p1550
aS'id'
p1551
ag16
aS'integer'
p1552
ag18
aS'of'
p1553
aS'string'
p1554
aS'var'
p1555
aS'id'
p1556
aS':='
p1557
aS'id'
p1558
ag102
aS'id'
p1559
ag28
aS'string'
p1560
ag93
aS'id'
p1561
ag28
aS'string'
p1562
ag93
aS'id'
p1563
ag28
aS'integer'
p1564
ag93
aS'id'
p1565
ag28
ag462
ag56
aS'var'
p1566
aS'id'
p1567
aS':='
p1568
aS'id'
p1569
ag102
aS'id'
p1570
ag28
aS'string'
p1571
ag93
aS'id'
p1572
ag28
aS'id'
p1573
ag16
aS'integer'
p1574
ag18
aS'of'
p1575
aS'integer'
p1576
ag56
aS'in'
p1577
aS'id'
p1578
ag16
aS'integer'
p1579
ag18
aS':='
p1580
aS'integer'
p1581
ag73
aS'id'
p1582
ag16
aS'integer'
p1583
ag18
aS':='
p1584
aS'integer'
p1585
ag73
aS'id'
p1586
ag16
aS'integer'
p1587
ag18
ag54
aS'id'
p1588
aS':='
p1589
aS'string'
p1590
ag73
aS'id'
p1591
ag16
aS'integer'
p1592
ag18
ag54
aS'id'
p1593
aS':='
p1594
aS'integer'
p1595
ag73
aS'id'
p1596
ag16
aS'integer'
p1597
ag18
aS':='
p1598
aS'string'
p1599
ag73
aS'id'
p1600
ag54
aS'id'
p1601
aS':='
p1602
aS'string'
p1603
ag73
aS'id'
p1604
ag54
aS'id'
p1605
ag16
aS'integer'
p1606
ag18
aS':='
p1607
aS'integer'
p1608
ag73
aS'id'
p1609
ag54
aS'id'
p1610
ag16
aS'integer'
p1611
ag18
aS':='
p1612
aS'integer'
p1613
aS'end'
p1614
aa(lp1615
S'let'
p1616
aS'var'
p1617
aS'id'
p1618
aS':='
p1619
ag143
ag147
aS'in'
p1620
ag462
aS'id'
p1621
ag937
aS'integer'
p1622
aS'end'
p1623
aa(lp1624
S'let'
p1625
ag630
aS'id'
p1626
aS':='
p1627
ag147
aS'in'
p1628
aS'id'
p1629
ag260
aS'integer'
p1630
aS'end'
p1631
aa(lp1632
g622
aS'let'
p1633
aS'type'
p1634
aS'id'
p1635
ag28
ag774
ag102
aS'id'
p1636
ag12
aS'id'
p1637
ag93
aS'id'
p1638
ag12
aS'id'
p1639
ag56
aS'var'
p1640
aS'id'
p1641
ag12
aS'id'
p1642
aS':='
p1643
aS'nil'
p1644
aS'in'
p1645
aS'id'
p1646
aS':='
p1647
aS'nil'
p1648
aS'end'
p1649
aa(lp1650
S'let'
p1651
aS'type'
p1652
ag28
ag102
aS'id'
p1653
ag12
aS'id'
p1654
ag93
aS'id'
p1655
ag12
aS'id'
p1656
ag56
aS'var'
p1657
aS'id'
p1658
ag12
aS'id'
p1659
aS':='
p1660
aS'nil'
p1661
aS'in'
p1662
aS'id'
p1663
aS':='
p1664
ag277
aS'nil'
p1665
aS'end'
p1666
aa(lp1667
S'let'
p1668
aS'type'
p1669
aS'id'
p1670
ag102
ag28
ag102
aS'id'
p1671
ag12
aS'id'
p1672
ag93
ag56
ag12
aS'id'
p1673
ag56
aS'var'
p1674
aS'id'
p1675
aS':='
p1676
aS'nil'
p1677
aS'in'
p1678
aS'id'
p1679
aS'end'
p1680
aa(lp1681
g29
aS'let'
p1682
aS'type'
p1683
aS'id'
p1684
ag28
ag102
aS'id'
p1685
ag12
aS'id'
p1686
ag93
aS'id'
p1687
ag12
aS'id'
p1688
ag56
aS'var'
p1689
aS'id'
p1690
aS':='
p1691
aS'nil'
p1692
ag367
aS'id'
p1693
aS'end'
p1694
aa(lp1695
S'let'
p1696
aS'type'
p1697
aS'id'
p1698
ag28
aS'id'
p1699
ag12
aS'id'
p1700
ag93
aS'id'
p1701
ag12
aS'id'
p1702
aS'to'
p1703
ag56
aS'var'
p1704
aS'id'
p1705
ag12
aS'id'
p1706
aS':='
p1707
aS'nil'
p1708
aS'in'
p1709
aS'id'
p1710
ag28
aS'nil'
p1711
ag73
aS'id'
p1712
aS'<>'
p1713
aS'nil'
p1714
aS'end'
p1715
aa(lp1716
S'let'
p1717
aS'type'
p1718
aS'id'
p1719
ag28
ag102
aS'id'
p1720
aS'id'
p1721
ag93
aS'id'
p1722
ag12
aS'id'
p1723
ag56
aS'var'
p1724
aS'id'
p1725
ag12
aS'id'
p1726
aS':='
p1727
aS'nil'
p1728
aS'in'
p1729
aS'id'
p1730
ag198
aS'nil'
p1731
ag73
aS'id'
p1732
aS'<>'
p1733
aS'nil'
p1734
aS'end'
p1735
aa(lp1736
S'let'
p1737
aS'type'
p1738
aS'id'
p1739
ag630
aS'id'
p1740
aS'var'
p1741
aS'id'
p1742
aS':='
p1743
aS'integer'
p1744
aS'type'
p1745
ag439
aS'id'
p1746
ag28
aS'id'
p1747
aS'in'
p1748
aS'integer'
p1749
aS'end'
p1750
aa(lp1751
S'let'
p1752
aS'type'
p1753
aS'id'
p1754
ag28
aS'id'
p1755
ag367
aS'var'
p1756
aS'id'
p1757
aS':='
p1758
aS'integer'
p1759
aS'type'
p1760
aS'id'
p1761
ag28
aS'id'
p1762
aS'in'
p1763
aS'integer'
p1764
aS'end'
p1765
aa(lp1766
S'let'
p1767
aS'function'
p1768
ag143
aS'id'
p1769
ag12
aS'id'
p1770
ag147
ag12
aS'id'
p1771
ag28
aS'id'
p1772
aS'type'
p1773
aS'id'
p1774
ag28
aS'id'
p1775
aS'function'
p1776
aS'id'
p1777
ag143
aS'id'
p1778
ag12
aS'id'
p1779
ag147
ag12
aS'id'
p1780
ag11
aS'id'
p1781
aS'in'
p1782
aS'integer'
p1783
aS'end'
p1784
aa(lp1785
S'let'
p1786
aS'function'
p1787
aS'id'
p1788
ag143
aS'id'
p1789
ag12
aS'id'
p1790
ag12
aS'id'
p1791
ag28
aS'id'
p1792
aS'type'
p1793
aS'id'
p1794
ag28
aS'id'
p1795
aS'function'
p1796
aS'id'
p1797
ag143
aS'id'
p1798
ag12
aS'id'
p1799
ag147
ag12
aS'id'
p1800
ag28
ag158
aS'in'
p1801
aS'integer'
p1802
aS'end'
p1803
aa(lp1804
S'let'
p1805
ag122
aS'type'
p1806
aS'id'
p1807
ag28
ag102
aS'id'
p1808
ag12
aS'id'
p1809
ag93
aS'id'
p1810
ag12
aS'id'
p1811
aS'var'
p1812
aS'id'
p1813
aS':='
p1814
aS'id'
p1815
aS'nil'
p1816
aS'in'
p1817
aS'id'
p1818
aS'end'
p1819
aa(lp1820
S'let'
p1821
aS'type'
p1822
aS'id'
p1823
ag28
ag102
aS'id'
p1824
aS'id'
p1825
ag93
aS'id'
p1826
ag12
aS'id'
p1827
ag56
aS'var'
p1828
aS'id'
p1829
aS':='
p1830
aS'id'
p1831
aS'nil'
p1832
aS'in'
p1833
aS'id'
p1834
aa.