(lp0
(lp1
S'let'
p2
aS'type'
p3
aS'id'
p4
aS'='
p5
aS'array'
p6
aS'of'
p7
aS'id'
p8
aS'var'
p9
aS'id'
p10
aS':'
p11
aS'['
p12
aS':='
p13
aS'id'
p14
ag12
aS'integer'
p15
aS']'
p16
aS'of'
p17
aS'integer'
p18
aS'in'
p19
aS'id'
p20
aS')'
p21
aa(lp22
S'let'
p23
aS'type'
p24
ag5
aS'array'
p25
aS'id'
p26
aS'var'
p27
aS'id'
p28
ag11
aS'id'
p29
aS':='
p30
aS'id'
p31
ag12
aS'integer'
p32
ag16
aS'of'
p33
aS'integer'
p34
aS'in'
p35
aS'id'
p36
aS'end'
p37
aa(lp38
S'let'
p39
aS'type'
p40
aS'id'
p41
aS'array'
p42
aS'of'
p43
aS'id'
p44
aS'var'
p45
aS'id'
p46
ag11
aS'id'
p47
aS':='
p48
aS'id'
p49
ag12
aS'integer'
p50
ag16
aS'of'
p51
aS'integer'
p52
aS'>='
p53
aS'id'
p54
aS'end'
p55
aa(lp56
S'let'
p57
aS'type'
p58
aS'id'
p59
ag5
aS'array'
p60
aS'of'
p61
aS'id'
p62
aS'var'
p63
aS'id'
p64
ag11
aS'id'
p65
aS':='
p66
aS'id'
p67
aS'integer'
p68
aS'of'
p69
aS'integer'
p70
aS'in'
p71
aS'id'
p72
aS'end'
p73
aa(lp74
S'let'
p75
aS'type'
p76
aS'id'
p77
ag5
aS'|'
p78
aS'of'
p79
aS'id'
p80
aS'var'
p81
aS'id'
p82
ag11
aS'id'
p83
aS':='
p84
aS'id'
p85
ag12
aS','
p86
ag16
aS'of'
p87
aS'integer'
p88
aS'in'
p89
aS'id'
p90
aS'end'
p91
aa(lp92
S'let'
p93
ag86
aS'id'
p94
ag5
aS'id'
p95
aS'type'
p96
aS'id'
p97
ag5
aS'array'
p98
aS'of'
p99
aS'id'
p100
aS'var'
p101
aS'id'
p102
ag11
aS'id'
p103
aS':='
p104
aS'id'
p105
ag12
aS'integer'
p106
ag16
aS'of'
p107
aS'integer'
p108
aS'var'
p109
aS'id'
p110
aS'end'
p111
aa(lp112
S'let'
p113
aS'type'
p114
aS'id'
p115
ag5
aS'id'
p116
aS'type'
p117
aS'id'
p118
ag5
aS'array'
p119
aS'of'
p120
aS'id'
p121
aS'var'
p122
aS'id'
p123
aS'function'
p124
aS'id'
p125
aS':='
p126
aS'id'
p127
ag12
aS'integer'
p128
ag16
aS'of'
p129
aS'integer'
p130
aS'array'
p131
aS'id'
p132
aS'end'
p133
aa(lp134
S'let'
p135
aS'type'
p136
aS'id'
p137
aS'type'
p138
aS'id'
p139
ag5
aS'array'
p140
aS'of'
p141
aS'id'
p142
aS'var'
p143
aS'id'
p144
ag11
aS'id'
p145
aS':='
p146
aS'id'
p147
ag12
aS'integer'
p148
ag16
aS'of'
p149
aS'integer'
p150
aS'in'
p151
aS'id'
p152
aS'end'
p153
aa(lp154
S'let'
p155
aS'type'
p156
aS'id'
p157
aS'string'
p158
aS'id'
p159
aS'type'
p160
aS'id'
p161
ag5
aS'array'
p162
aS'of'
p163
aS'id'
p164
aS'var'
p165
aS'id'
p166
ag11
aS'id'
p167
aS':='
p168
aS'id'
p169
ag12
aS'integer'
p170
ag16
aS'of'
p171
aS'integer'
p172
aS'id'
p173
aS'end'
p174
aa(lp175
S'let'
p176
aS'type'
p177
aS'id'
p178
ag5
aS'id'
p179
aS'type'
p180
aS'id'
p181
ag5
aS'array'
p182
aS'of'
p183
aS'id'
p184
aS'var'
p185
aS'id'
p186
aS'!='
p187
aS'id'
p188
aS':='
p189
aS'id'
p190
ag12
aS'integer'
p191
ag16
aS'of'
p192
aS'integer'
p193
aS'in'
p194
aS'+'
p195
aS'end'
p196
aa(lp197
S'let'
p198
aS'type'
p199
ag5
aS'{'
p200
aS'id'
p201
ag11
aS'id'
p202
ag86
aS'id'
p203
ag11
aS'id'
p204
aS'}'
p205
aS'var'
p206
aS'id'
p207
ag11
aS'id'
p208
aS':='
p209
aS'id'
p210
ag200
aS'id'
p211
ag5
aS'string'
p212
ag86
aS'id'
p213
ag5
aS'integer'
p214
ag205
aS'in'
p215
aS'id'
p216
aS'.'
p217
aS'id'
p218
aS':='
p219
aS'string'
p220
aS';'
p221
aS'id'
p222
aa(lp223
S'let'
p224
aS'type'
p225
aS'id'
p226
ag5
ag200
aS'id'
p227
ag11
aS'id'
p228
ag86
aS'id'
p229
ag11
aS'id'
p230
aS'to'
p231
aS'var'
p232
aS'id'
p233
ag11
aS'id'
p234
aS':='
p235
aS'id'
p236
ag200
aS'id'
p237
ag5
ag86
aS'id'
p238
ag5
aS'integer'
p239
ag205
aS'in'
p240
aS'id'
p241
ag217
aS'id'
p242
aS':='
p243
aS'string'
p244
ag221
aS'id'
p245
aS'end'
p246
aa(lp247
S'let'
p248
aS'type'
p249
aS'id'
p250
ag5
ag200
aS'id'
p251
ag11
aS'id'
p252
ag86
aS'id'
p253
ag11
aS'id'
p254
ag205
aS'var'
p255
aS'id'
p256
ag11
aS'id'
p257
aS':='
p258
aS'id'
p259
ag200
aS'id'
p260
ag5
aS'string'
p261
ag86
aS'id'
p262
ag5
ag205
aS'in'
p263
aS'id'
p264
aS'id'
p265
aS':='
p266
aS'string'
p267
ag221
aS'id'
p268
aS'end'
p269
aa(lp270
S'let'
p271
aS'type'
p272
ag5
ag200
aS'id'
p273
ag11
aS'id'
p274
ag86
aS'id'
p275
ag11
aS'id'
p276
ag205
aS'var'
p277
aS'id'
p278
ag11
aS'id'
p279
aS':='
p280
aS'id'
p281
ag200
aS'id'
p282
ag5
aS'string'
p283
ag86
aS'id'
p284
ag5
ag205
aS'in'
p285
aS'id'
p286
ag217
aS'id'
p287
aS':='
p288
aS'string'
p289
ag221
aS'id'
p290
aS'end'
p291
aa(lp292
S'let'
p293
aS'type'
p294
aS'id'
p295
ag5
ag200
aS'id'
p296
ag11
aS'id'
p297
ag86
aS'id'
p298
ag11
aS'id'
p299
ag205
aS'var'
p300
aS'id'
p301
ag11
aS'id'
p302
aS':='
p303
aS'id'
p304
ag200
aS'id'
p305
ag5
ag86
aS'id'
p306
ag5
aS'integer'
p307
ag205
aS'in'
p308
ag231
ag217
aS'id'
p309
aS':='
p310
aS'string'
p311
ag221
aS'id'
p312
aS'end'
p313
aa(lp314
S'let'
p315
aS'function'
p316
aS'id'
p317
aS'('
p318
aS'id'
p319
ag11
aS'id'
p320
ag21
ag11
aS'id'
p321
ag5
aS'if'
p322
aS'id'
p323
ag5
aS'integer'
p324
aS'then'
p325
aS'integer'
p326
aS'else'
p327
aS'id'
p328
aS'*'
p329
aS'id'
p330
ag318
aS'id'
p331
aS'integer'
p332
ag21
aS'in'
p333
aS'id'
p334
ag318
aS'integer'
p335
ag21
aS'end'
p336
aa(lp337
S'let'
p338
aS'function'
p339
aS'id'
p340
ag318
aS'id'
p341
ag11
aS'id'
p342
ag11
aS'id'
p343
ag5
aS'if'
p344
aS'id'
p345
ag86
aS'integer'
p346
aS'then'
p347
aS'integer'
p348
aS'else'
p349
aS'id'
p350
ag329
aS'id'
p351
ag318
aS'id'
p352
aS'-'
p353
aS'integer'
p354
ag21
aS'in'
p355
aS'id'
p356
ag318
aS'integer'
p357
ag21
aS'end'
p358
aa(lp359
S'let'
p360
aS'function'
p361
aS'id'
p362
ag318
aS'id'
p363
ag11
aS'id'
p364
ag21
ag11
aS'id'
p365
ag5
aS'if'
p366
aS'id'
p367
ag5
aS'then'
p368
aS'integer'
p369
aS'else'
p370
aS'id'
p371
aS'id'
p372
ag318
aS'id'
p373
ag353
aS'integer'
p374
ag21
aS'in'
p375
aS'id'
p376
ag318
aS'integer'
p377
ag21
aS'end'
p378
aa(lp379
S'let'
p380
aS'function'
p381
ag318
aS'id'
p382
ag11
aS'id'
p383
ag21
ag11
aS'in'
p384
ag5
aS'if'
p385
aS'id'
p386
ag5
aS'integer'
p387
aS'then'
p388
aS'integer'
p389
aS'else'
p390
aS'id'
p391
ag329
aS'id'
p392
ag318
aS'id'
p393
ag353
aS'integer'
p394
ag21
aS'in'
p395
aS'id'
p396
ag318
aS'integer'
p397
ag21
aS'end'
p398
aa(lp399
S'function'
p400
aS'id'
p401
ag318
aS'id'
p402
ag11
aS'id'
p403
ag21
ag11
aS'id'
p404
ag5
aS'if'
p405
aS'id'
p406
ag5
aS'integer'
p407
aS'then'
p408
aS'integer'
p409
aS'id'
p410
ag329
aS'id'
p411
ag318
aS'id'
p412
ag353
aS'integer'
p413
ag21
aS'in'
p414
aS'id'
p415
ag318
aS'integer'
p416
ag21
aS'end'
p417
aa(lp418
S'let'
p419
aS'type'
p420
aS'id'
p421
ag5
ag200
aS'id'
p422
ag11
aS'id'
p423
ag86
aS'id'
p424
ag11
aS'id'
p425
ag205
aS'type'
p426
aS'id'
p427
ag5
ag200
aS'id'
p428
ag11
aS'id'
p429
ag86
aS'id'
p430
ag11
aS'id'
p431
ag205
aS'type'
p432
aS'id'
p433
ag5
ag200
aS'id'
p434
ag11
aS'id'
p435
ag86
aS'id'
p436
ag11
aS'id'
p437
ag205
aS'var'
p438
aS'id'
p439
ag11
aS'id'
p440
aS':='
p441
aS'id'
p442
ag200
aS'id'
p443
ag5
aS'integer'
p444
ag86
aS'id'
p445
ag5
ag86
aS'in'
p446
aS'id'
p447
aS'end'
p448
aa(lp449
S'let'
p450
aS'type'
p451
aS'id'
p452
ag5
ag200
aS'id'
p453
ag11
aS'id'
p454
ag86
aS'id'
p455
ag11
aS'id'
p456
ag205
aS'type'
p457
aS'id'
p458
aS'else'
p459
ag200
aS'id'
p460
ag11
aS'id'
p461
ag86
aS'id'
p462
ag11
aS'id'
p463
ag205
aS'type'
p464
aS'id'
p465
ag5
ag200
aS'id'
p466
ag11
aS'id'
p467
ag86
aS'id'
p468
ag11
aS'id'
p469
ag205
aS'var'
p470
aS'id'
p471
ag11
aS'id'
p472
aS'id'
p473
ag200
aS'id'
p474
ag5
aS'integer'
p475
ag86
aS'id'
p476
ag5
aS'nil'
p477
ag205
aS'in'
p478
aS'id'
p479
aS'end'
p480
aa(lp481
S'let'
p482
aS'type'
p483
ag5
ag200
aS'id'
p484
ag11
aS'id'
p485
ag86
aS'id'
p486
aS'end'
p487
aS'id'
p488
ag205
aS'type'
p489
aS'id'
p490
ag5
ag200
aS'id'
p491
ag11
aS'id'
p492
ag86
aS'id'
p493
ag11
aS'id'
p494
ag205
aS'type'
p495
aS'id'
p496
ag5
ag200
aS'id'
p497
ag11
aS'id'
p498
ag86
aS'id'
p499
ag11
aS'id'
p500
ag205
aS'var'
p501
aS'id'
p502
ag11
aS'id'
p503
aS':='
p504
aS'id'
p505
ag200
aS'id'
p506
ag5
aS'integer'
p507
ag86
aS'id'
p508
ag5
aS'nil'
p509
ag205
aS'in'
p510
aS'id'
p511
aS'end'
p512
aa(lp513
S'let'
p514
aS'type'
p515
ag5
ag200
aS'id'
p516
ag11
aS'id'
p517
ag86
aS'id'
p518
ag11
aS'id'
p519
ag205
aS'type'
p520
aS'id'
p521
ag5
ag200
aS'id'
p522
ag11
aS'id'
p523
ag86
aS'id'
p524
ag11
aS'id'
p525
ag205
aS'type'
p526
aS'id'
p527
ag5
ag200
aS'id'
p528
ag11
aS'id'
p529
ag86
aS'id'
p530
ag11
aS'id'
p531
ag205
aS'var'
p532
aS'id'
p533
ag11
aS'id'
p534
aS':='
p535
aS'id'
p536
ag329
aS'id'
p537
ag5
aS'integer'
p538
ag86
aS'id'
p539
ag5
aS'nil'
p540
ag205
aS'in'
p541
aS'id'
p542
aS'end'
p543
aa(lp544
S'let'
p545
aS'type'
p546
aS'id'
p547
ag5
ag200
aS'id'
p548
aS'id'
p549
ag86
aS'id'
p550
ag11
aS'id'
p551
ag205
aS'type'
p552
aS'id'
p553
ag5
ag200
aS'id'
p554
ag11
aS'id'
p555
ag86
aS'id'
p556
ag11
aS'id'
p557
ag205
aS'type'
p558
aS'id'
p559
ag5
ag200
aS'id'
p560
ag11
aS'id'
p561
ag86
aS'id'
p562
ag318
aS'id'
p563
ag205
aS'var'
p564
aS'id'
p565
ag11
aS'id'
p566
aS':='
p567
aS'id'
p568
ag200
aS'id'
p569
ag5
aS'integer'
p570
ag86
aS'id'
p571
ag5
aS'nil'
p572
ag205
aS'in'
p573
aS'id'
p574
aS'end'
p575
aa(lp576
S'let'
p577
aS'function'
p578
aS'id'
p579
ag318
aS'id'
p580
ag11
aS'id'
p581
ag86
aS'id'
p582
ag11
aS'id'
p583
ag5
aS'id'
p584
ag318
aS'id'
p585
ag195
aS'integer'
p586
ag86
aS'function'
p587
aS'id'
p588
ag318
aS'id'
p589
ag11
aS'id'
p590
ag21
ag5
aS'id'
p591
ag318
aS'id'
p592
ag86
aS'string'
p593
ag21
aS'in'
p594
aS'id'
p595
ag318
aS'integer'
p596
ag86
aS'string'
p597
ag21
aS'end'
p598
aa(lp599
S'let'
p600
aS'function'
p601
aS'id'
p602
ag318
aS'id'
p603
ag11
aS'id'
p604
ag86
aS'id'
p605
ag11
aS'id'
p606
ag21
ag5
aS'id'
p607
ag318
aS'id'
p608
ag195
ag21
aS'function'
p609
aS'id'
p610
ag318
aS'id'
p611
ag11
aS'id'
p612
ag21
ag5
aS'id'
p613
ag318
aS'id'
p614
ag86
aS'string'
p615
ag21
aS'in'
p616
aS'id'
p617
ag318
aS'integer'
p618
ag86
aS'string'
p619
ag21
aS'end'
p620
aa(lp621
S'let'
p622
aS'function'
p623
ag221
ag318
aS'id'
p624
ag11
aS'id'
p625
ag86
aS'id'
p626
ag11
aS'id'
p627
ag21
ag5
aS'id'
p628
ag318
aS'id'
p629
ag195
aS'integer'
p630
ag21
aS'function'
p631
aS'id'
p632
ag318
aS'id'
p633
ag11
aS'id'
p634
ag21
ag5
aS'id'
p635
ag318
aS'id'
p636
ag86
aS'string'
p637
aS'if'
p638
aS'in'
p639
aS'id'
p640
ag318
aS'integer'
p641
ag86
aS'string'
p642
ag21
aS'end'
p643
aa(lp644
S'let'
p645
aS'function'
p646
aS'&'
p647
ag318
ag11
aS'id'
p648
ag86
aS'id'
p649
ag11
aS'id'
p650
ag21
ag5
aS'id'
p651
ag318
aS'id'
p652
ag195
aS'integer'
p653
ag21
aS'function'
p654
aS'id'
p655
ag318
aS'id'
p656
ag11
aS'id'
p657
ag21
ag5
aS'id'
p658
ag318
aS'id'
p659
ag86
aS'string'
p660
ag21
aS'in'
p661
aS'id'
p662
ag318
aS'integer'
p663
ag86
aS'string'
p664
ag21
aS'end'
p665
aa(lp666
S'let'
p667
aS'function'
p668
ag318
ag11
aS'id'
p669
ag86
aS'id'
p670
ag11
aS'id'
p671
ag21
ag5
aS'id'
p672
ag318
aS'id'
p673
ag195
aS'integer'
p674
ag21
aS'function'
p675
aS'id'
p676
ag318
aS'id'
p677
ag11
aS'id'
p678
ag21
ag5
aS'id'
p679
ag318
aS'id'
p680
ag86
aS'string'
p681
ag21
aS'in'
p682
aS'id'
p683
ag318
aS'integer'
p684
ag86
aS'string'
p685
ag21
aS'end'
p686
aa(lp687
S'let'
p688
aS'function'
p689
aS'id'
p690
ag318
aS'id'
p691
ag11
aS'id'
p692
aS'id'
p693
ag11
aS'id'
p694
ag11
aS'id'
p695
ag5
ag318
aS'id'
p696
ag318
aS'id'
p697
ag195
aS'integer'
p698
ag21
ag221
aS'integer'
p699
ag21
aS'function'
p700
aS'id'
p701
ag318
aS'id'
p702
ag11
aS'id'
p703
ag21
ag11
aS'id'
p704
ag5
ag318
aS'id'
p705
ag318
aS'id'
p706
ag86
aS'string'
p707
ag21
ag221
aS'string'
p708
ag21
aS'in'
p709
aS'id'
p710
ag318
aS'integer'
p711
ag86
aS'string'
p712
ag21
aS'end'
p713
aa(lp714
S'let'
p715
aS'function'
p716
aS'id'
p717
ag318
aS'id'
p718
ag11
aS'id'
p719
ag86
aS'id'
p720
ag11
aS'id'
p721
ag21
ag11
aS'id'
p722
ag5
ag318
aS'id'
p723
ag318
aS'id'
p724
ag195
aS'integer'
p725
ag21
ag221
ag221
ag21
aS'function'
p726
aS'id'
p727
ag318
aS'id'
p728
ag11
aS'id'
p729
ag21
ag11
aS'id'
p730
ag487
ag318
aS'id'
p731
ag318
aS'id'
p732
ag86
aS'string'
p733
ag21
ag221
aS'string'
p734
ag21
aS'in'
p735
aS'id'
p736
ag318
aS'integer'
p737
ag86
aS'string'
p738
ag21
aS'end'
p739
aa(lp740
S'let'
p741
ag12
aS'id'
p742
ag318
aS'id'
p743
ag11
aS'id'
p744
aS'id'
p745
ag11
aS'id'
p746
ag21
ag11
aS'id'
p747
ag5
ag318
aS'id'
p748
ag318
aS'id'
p749
ag195
aS'integer'
p750
ag21
ag221
aS'integer'
p751
ag21
aS'function'
p752
aS'id'
p753
ag318
aS'id'
p754
ag11
aS'id'
p755
ag21
ag11
aS'id'
p756
ag5
ag318
aS'id'
p757
ag318
aS'id'
p758
ag86
aS'string'
p759
ag21
ag221
aS'string'
p760
ag21
aS'in'
p761
aS'id'
p762
ag318
aS'integer'
p763
ag86
aS'string'
p764
ag21
aS'end'
p765
aa(lp766
S'let'
p767
aS'function'
p768
ag318
aS'id'
p769
ag11
aS'id'
p770
ag86
aS'id'
p771
ag11
aS'id'
p772
ag21
ag11
aS'id'
p773
ag318
aS'id'
p774
ag318
aS'id'
p775
ag195
aS'integer'
p776
ag21
ag221
aS'integer'
p777
ag21
aS'function'
p778
aS'id'
p779
ag318
aS'id'
p780
ag11
aS'id'
p781
ag21
ag11
aS'id'
p782
ag5
ag318
aS'id'
p783
ag318
aS'id'
p784
ag86
aS'string'
p785
ag21
ag221
aS'string'
p786
ag21
aS'in'
p787
aS'id'
p788
ag318
aS'integer'
p789
ag86
aS'string'
p790
ag21
aS'end'
p791
aa(lp792
S'let'
p793
aS'function'
p794
aS'id'
p795
ag318
aS'id'
p796
ag11
aS'id'
p797
ag86
aS'id'
p798
ag11
aS'id'
p799
ag21
ag11
aS'id'
p800
ag5
ag318
aS'id'
p801
ag12
aS'id'
p802
ag195
aS'integer'
p803
ag86
ag221
aS'integer'
p804
ag21
aS'function'
p805
aS'id'
p806
ag318
aS'id'
p807
ag11
aS'id'
p808
ag21
ag11
aS'id'
p809
ag5
ag318
aS'id'
p810
ag318
aS'id'
p811
ag86
aS'string'
p812
ag21
ag221
aS'string'
p813
ag21
aS'in'
p814
aS'id'
p815
ag318
aS'integer'
p816
ag86
aS'string'
p817
ag21
aS'end'
p818
aa(lp819
S'if'
p820
ag318
aS'type'
p821
aS'>'
p822
aS'integer'
p823
aS'<'
p824
aS'then'
p825
aS'integer'
p826
aS'else'
p827
aS'integer'
p828
aa(lp829
S'if'
p830
aS'while'
p831
ag822
aS'integer'
p832
ag21
aS'then'
p833
aS'integer'
p834
aS'else'
p835
aS'integer'
p836
aa(lp837
S'if'
p838
ag318
ag158
aS'integer'
p839
ag21
aS'then'
p840
aS'integer'
p841
aS'else'
p842
aS'integer'
p843
aa(lp844
S'if'
p845
ag318
aS'integer'
p846
ag822
aS'integer'
p847
ag21
aS'integer'
p848
aS'else'
p849
aS'integer'
p850
aa(lp851
S'if'
p852
ag318
ag822
aS'integer'
p853
ag21
aS'then'
p854
aS'integer'
p855
aS'integer'
p856
aa(lp857
S'if'
p858
ag318
aS'integer'
p859
ag822
aS'integer'
p860
ag21
aS'then'
p861
aS'id'
p862
ag205
aS'string'
p863
aa(lp864
S'if'
p865
ag329
aS'integer'
p866
ag822
aS'integer'
p867
ag21
aS'then'
p868
aS'integer'
p869
aS'else'
p870
ag200
aa(lp871
S'if'
p872
ag318
aS'integer'
p873
ag822
ag318
ag21
ag5
aS'integer'
p874
aS'else'
p875
aS'string'
p876
aa(lp877
S'if'
p878
ag329
aS'integer'
p879
ag822
ag487
ag21
aS'then'
p880
aS'integer'
p881
aS'else'
p882
aS'string'
p883
aa(lp884
S'if'
p885
ag318
ag200
aS'integer'
p886
ag21
aS'then'
p887
aS'integer'
p888
aS'else'
p889
aS'string'
p890
aa(lp891
S'while'
p892
ag318
ag822
aS'integer'
p893
ag21
aS'integer'
p894
ag195
aS'integer'
p895
aa(lp896
S'while'
p897
ag822
aS'integer'
p898
ag21
aS'do'
p899
aS'integer'
p900
ag195
aS'integer'
p901
aa(lp902
g124
ag318
aS'integer'
p903
ag822
aS'integer'
p904
ag21
aS'eps'
p905
aS'integer'
p906
ag195
aS'integer'
p907
aa(lp908
S'while'
p909
ag318
aS'integer'
p910
ag86
aS'integer'
p911
ag21
aS'do'
p912
aS'integer'
p913
aS'integer'
p914
aa(lp915
S'while'
p916
ag318
ag124
aS'integer'
p917
ag21
aS'do'
p918
aS'integer'
p919
ag195
aS'integer'
p920
aa(lp921
S'for'
p922
aS'id'
p923
aS':='
p924
aS'integer'
p925
aS'to'
p926
ag11
aS'id'
p927
aS':='
p928
aS'id'
p929
ag353
aS'integer'
p930
aa(lp931
S'for'
p932
aS'id'
p933
aS':='
p934
aS'to'
p935
aS'string'
p936
aS'do'
p937
aS'id'
p938
aS':='
p939
aS'id'
p940
ag353
aS'integer'
p941
aa(lp942
S'for'
p943
aS'id'
p944
aS':='
p945
aS'integer'
p946
aS'to'
p947
aS'string'
p948
aS'do'
p949
aS'id'
p950
aS':='
p951
aS'id'
p952
ag647
aS'let'
p953
aa(lp954
S'for'
p955
aS'id'
p956
aS':='
p957
aS'integer'
p958
aS'to'
p959
aS'string'
p960
aS'id'
p961
aS':='
p962
aS':='
p963
ag353
aS'integer'
p964
aa(lp965
S'id'
p966
aS':='
p967
aS'integer'
p968
aS'to'
p969
aS'string'
p970
aS'do'
p971
aS'id'
p972
ag231
aS'id'
p973
ag353
aS'integer'
p974
aa(lp975
S'let'
p976
aS'var'
p977
aS'id'
p978
aS':='
p979
aS'integer'
p980
aS'in'
p981
aS'for'
p982
aS'id'
p983
aS':='
p984
aS'integer'
p985
aS'to'
p986
aS'integer'
p987
aS'do'
p988
ag318
aS'id'
p989
aS':='
p990
aS'id'
p991
ag195
ag822
ag487
ag318
ag21
ag21
aS'end'
p992
aa(lp993
S'let'
p994
ag109
aS'id'
p995
aS':='
p996
aS'in'
p997
aS'for'
p998
aS'id'
p999
aS':='
p1000
aS'integer'
p1001
aS'to'
p1002
aS'integer'
p1003
aS'do'
p1004
ag318
aS'id'
p1005
aS':='
p1006
aS'id'
p1007
ag195
aS'integer'
p1008
ag221
ag318
ag21
ag21
aS'end'
p1009
aa(lp1010
S'let'
p1011
aS'var'
p1012
aS'id'
p1013
aS':='
p1014
aS'integer'
p1015
aS'in'
p1016
ag217
aS'id'
p1017
aS':='
p1018
aS'integer'
p1019
aS'to'
p1020
aS'integer'
p1021
aS'do'
p1022
aS'id'
p1023
aS':='
p1024
aS'id'
p1025
ag195
aS'integer'
p1026
ag221
ag318
ag21
ag21
aS'end'
p1027
aa(lp1028
S'let'
p1029
aS'var'
p1030
aS'id'
p1031
aS'integer'
p1032
aS'in'
p1033
aS'for'
p1034
aS'id'
p1035
aS':='
p1036
ag953
aS'to'
p1037
aS'integer'
p1038
aS'do'
p1039
ag318
aS'id'
p1040
aS':='
p1041
aS'id'
p1042
ag195
aS'integer'
p1043
ag221
ag318
ag21
ag21
aS'end'
p1044
aa(lp1045
S'let'
p1046
aS'var'
p1047
aS'id'
p1048
aS':='
p1049
aS'integer'
p1050
aS'in'
p1051
aS'for'
p1052
aS'id'
p1053
aS':='
p1054
aS'integer'
p1055
aS'to'
p1056
aS'integer'
p1057
aS'do'
p1058
ag318
aS'id'
p1059
aS':='
p1060
aS'id'
p1061
ag195
aS'of'
p1062
ag221
ag318
ag21
ag21
aS'end'
p1063
aa(lp1064
S'integer'
p1065
ag822
ag21
aa(lp1066
g822
aa(lp1067
S'integer'
p1068
ag647
aS'string'
p1069
aa(lp1070
S'integer'
p1071
ag487
ag221
aa(lp1072
S'integer'
p1073
aS'string'
p1074
aa(lp1075
S'let'
p1076
aS'type'
p1077
aS'id'
p1078
ag5
aS'break'
p1079
aS'of'
p1080
aS'id'
p1081
aS'type'
p1082
aS'id'
p1083
ag5
ag200
aS'id'
p1084
ag11
aS'id'
p1085
ag86
aS'id'
p1086
ag11
aS'id'
p1087
ag963
aS'var'
p1088
aS'id'
p1089
aS':='
p1090
aS'id'
p1091
ag200
aS'id'
p1092
ag5
aS'string'
p1093
ag86
aS'id'
p1094
ag5
aS'integer'
p1095
ag205
aS'var'
p1096
aS'id'
p1097
aS':='
p1098
aS'id'
p1099
ag12
aS'integer'
p1100
ag16
aS'of'
p1101
aS'integer'
p1102
aS'in'
p1103
aS'if'
p1104
aS'id'
p1105
aS'<>'
p1106
aS'id'
p1107
aS'then'
p1108
aS'integer'
p1109
aS'else'
p1110
aS'integer'
p1111
aS'end'
p1112
aa(lp1113
S'let'
p1114
aS'type'
p1115
aS'id'
p1116
ag5
aS'array'
p1117
aS'of'
p1118
aS'id'
p1119
aS'type'
p1120
aS'id'
p1121
ag5
ag200
aS'id'
p1122
ag11
aS'id'
p1123
ag86
aS'id'
p1124
ag11
aS'id'
p1125
ag205
aS'var'
p1126
aS'id'
p1127
aS':='
p1128
aS'id'
p1129
ag200
aS'id'
p1130
ag5
aS'string'
p1131
ag86
aS'id'
p1132
ag5
ag205
aS'var'
p1133
aS'id'
p1134
aS':='
p1135
aS'id'
p1136
ag12
aS'integer'
p1137
ag16
aS'of'
p1138
aS'integer'
p1139
aS'in'
p1140
aS'if'
p1141
aS'id'
p1142
aS'id'
p1143
aS'then'
p1144
aS'integer'
p1145
aS'else'
p1146
aS'integer'
p1147
aS'end'
p1148
aa(lp1149
S'let'
p1150
aS'type'
p1151
aS'id'
p1152
aS'array'
p1153
aS'of'
p1154
aS'id'
p1155
aS'type'
p1156
aS'id'
p1157
ag5
ag200
aS'id'
p1158
ag11
aS'id'
p1159
ag86
aS'id'
p1160
ag11
aS'id'
p1161
ag205
aS'var'
p1162
aS'id'
p1163
aS'id'
p1164
ag200
aS'id'
p1165
ag5
aS'string'
p1166
ag86
aS'id'
p1167
ag5
aS'integer'
p1168
ag205
aS'var'
p1169
aS'id'
p1170
aS':='
p1171
aS'id'
p1172
ag12
aS'integer'
p1173
ag16
aS'of'
p1174
aS'integer'
p1175
aS'in'
p1176
aS'if'
p1177
aS'id'
p1178
aS'<>'
p1179
aS'id'
p1180
aS'then'
p1181
aS'integer'
p1182
aS'else'
p1183
aS'integer'
p1184
aS'end'
p1185
aa(lp1186
S'let'
p1187
aS'type'
p1188
aS'id'
p1189
ag5
aS'array'
p1190
aS'of'
p1191
ag231
aS'type'
p1192
aS'id'
p1193
ag5
ag200
aS'id'
p1194
ag11
aS'id'
p1195
ag86
aS'id'
p1196
ag11
aS'id'
p1197
ag205
aS'var'
p1198
aS'id'
p1199
aS':='
p1200
aS'id'
p1201
ag200
aS'id'
p1202
ag5
aS'string'
p1203
ag86
aS'id'
p1204
ag5
aS'integer'
p1205
ag205
aS'var'
p1206
aS'id'
p1207
aS':='
p1208
aS'id'
p1209
ag12
aS'integer'
p1210
ag16
aS'then'
p1211
aS'integer'
p1212
aS'in'
p1213
aS'if'
p1214
aS'id'
p1215
aS'<>'
p1216
aS'id'
p1217
aS'then'
p1218
aS'integer'
p1219
aS'else'
p1220
aS'integer'
p1221
aS'end'
p1222
aa(lp1223
S'let'
p1224
aS'type'
p1225
ag5
aS'array'
p1226
aS'of'
p1227
aS'id'
p1228
aS'type'
p1229
ag11
ag5
ag200
aS'id'
p1230
ag11
aS'id'
p1231
ag86
aS'id'
p1232
ag11
aS'id'
p1233
ag205
aS'var'
p1234
aS'id'
p1235
aS':='
p1236
aS'id'
p1237
ag200
aS'id'
p1238
ag5
aS'string'
p1239
ag86
aS'id'
p1240
ag5
aS'integer'
p1241
ag205
aS'var'
p1242
aS'id'
p1243
aS':='
p1244
aS'id'
p1245
ag12
aS'integer'
p1246
ag16
aS'of'
p1247
aS'integer'
p1248
aS'in'
p1249
aS'if'
p1250
aS'id'
p1251
aS'<>'
p1252
aS'id'
p1253
aS'then'
p1254
aS'integer'
p1255
aS'else'
p1256
aS'integer'
p1257
aS'end'
p1258
aa(lp1259
S'if'
p1260
aS'integer'
p1261
ag12
ag12
aa(lp1262
S'integer'
p1263
aS'then'
p1264
ag78
aa(lp1265
S'integer'
p1266
aS'then'
p1267
aS'integer'
p1268
aa(lp1269
S'if'
p1270
aS'integer'
p1271
aS'then'
p1272
ag187
aa(lp1273
S'if'
p1274
ag384
aS'integer'
p1275
aa(lp1276
S'let'
p1277
aS'type'
p1278
aS'id'
p1279
ag5
aS'id'
p1280
aS'type'
p1281
ag86
ag5
aS'id'
p1282
aS'type'
p1283
aS'id'
p1284
ag5
aS'id'
p1285
aS'type'
p1286
aS'id'
p1287
ag5
aS'id'
p1288
ag231
aS'string'
p1289
aS'end'
p1290
aa(lp1291
S'let'
p1292
aS'type'
p1293
aS'id'
p1294
ag5
aS'id'
p1295
aS'type'
p1296
aS'id'
p1297
ag5
aS'id'
p1298
aS'type'
p1299
aS'id'
p1300
ag5
aS'id'
p1301
aS'type'
p1302
aS'<='
p1303
ag5
aS'id'
p1304
aS'in'
p1305
aS'string'
p1306
ag124
aa(lp1307
S'let'
p1308
aS'type'
p1309
aS'id'
p1310
ag5
aS'id'
p1311
aS'type'
p1312
aS'id'
p1313
ag5
aS'id'
p1314
aS'type'
p1315
aS'id'
p1316
ag5
aS'id'
p1317
aS'type'
p1318
aS'id'
p1319
ag862
aS'id'
p1320
aS'in'
p1321
ag831
aS'end'
p1322
aa(lp1323
S'let'
p1324
aS'type'
p1325
ag1211
ag5
aS'id'
p1326
aS'type'
p1327
aS'id'
p1328
ag5
aS'id'
p1329
aS'type'
p1330
ag1211
ag5
aS'id'
p1331
aS'type'
p1332
aS'id'
p1333
ag5
aS'id'
p1334
aS'in'
p1335
aS'string'
p1336
aS'end'
p1337
aa(lp1338
S'let'
p1339
aS'do'
p1340
aS'id'
p1341
ag5
aS'id'
p1342
aS'id'
p1343
ag5
aS'id'
p1344
aS'type'
p1345
aS'id'
p1346
ag5
aS'id'
p1347
aS'type'
p1348
aS'id'
p1349
ag5
aS'id'
p1350
aS'in'
p1351
aS'string'
p1352
aS'end'
p1353
aa(lp1354
S'let'
p1355
aS'type'
p1356
ag5
ag200
aS'id'
p1357
ag11
aS'id'
p1358
ag86
aS'id'
p1359
ag11
aS'id'
p1360
ag205
aS'var'
p1361
aS'id'
p1362
ag11
aS'id'
p1363
aS':='
p1364
aS'integer'
p1365
aS'type'
p1366
aS'id'
p1367
ag905
ag200
aS'id'
p1368
ag11
aS'id'
p1369
ag86
aS'id'
p1370
ag11
aS'id'
p1371
ag205
aS'in'
p1372
aS'id'
p1373
aS'end'
p1374
aa(lp1375
S'let'
p1376
aS'type'
p1377
ag200
aS'id'
p1378
ag11
aS'id'
p1379
ag86
aS'id'
p1380
ag11
aS'id'
p1381
ag205
aS'var'
p1382
aS'id'
p1383
ag11
aS'id'
p1384
aS':='
p1385
aS'integer'
p1386
aS'type'
p1387
aS'id'
p1388
ag5
ag200
aS'id'
p1389
ag11
aS'id'
p1390
ag86
aS'id'
p1391
ag11
aS'id'
p1392
ag205
aS'in'
p1393
aS'id'
p1394
aS'end'
p1395
aa(lp1396
S'let'
p1397
aS'type'
p1398
aS'id'
p1399
ag5
ag200
aS'id'
p1400
ag11
aS'id'
p1401
ag86
aS'id'
p1402
aS'/'
p1403
aS'id'
p1404
ag205
aS'var'
p1405
aS'id'
p1406
ag11
aS'id'
p1407
aS':='
p1408
aS'integer'
p1409
aS'type'
p1410
ag638
ag5
ag200
aS'id'
p1411
ag11
aS'id'
p1412
ag86
aS'id'
p1413
ag11
aS'id'
p1414
ag205
aS'in'
p1415
aS'id'
p1416
aS'end'
p1417
aa(lp1418
S'let'
p1419
aS'type'
p1420
aS'id'
p1421
ag200
aS'id'
p1422
ag11
aS'id'
p1423
ag86
aS'id'
p1424
ag11
aS'id'
p1425
ag205
aS'var'
p1426
aS'id'
p1427
ag11
aS'id'
p1428
aS':='
p1429
aS'integer'
p1430
aS'type'
p1431
aS'id'
p1432
ag5
ag200
aS'id'
p1433
ag11
aS'id'
p1434
ag86
aS'id'
p1435
ag11
aS'id'
p1436
ag205
aS'in'
p1437
ag1340
aS'end'
p1438
aa(lp1439
g953
aS'type'
p1440
aS'id'
p1441
ag5
ag200
aS'id'
p1442
ag11
aS'id'
p1443
ag86
aS'id'
p1444
ag11
aS'id'
p1445
aS'var'
p1446
aS'id'
p1447
ag11
aS'id'
p1448
aS':='
p1449
aS'integer'
p1450
aS'type'
p1451
aS'id'
p1452
ag5
ag200
aS'id'
p1453
ag11
aS'id'
p1454
ag86
aS'id'
p1455
ag11
aS'id'
p1456
ag205
aS'in'
p1457
aS'id'
p1458
aS'end'
p1459
aa(lp1460
S'let'
p1461
aS'function'
p1462
aS'id'
p1463
ag318
aS'id'
p1464
ag11
aS'id'
p1465
ag5
aS'id'
p1466
ag11
aS'id'
p1467
ag21
ag11
aS'id'
p1468
ag5
ag318
aS'id'
p1469
ag318
aS'id'
p1470
ag195
aS'integer'
p1471
ag21
ag221
aS'integer'
p1472
ag21
aS'var'
p1473
aS'id'
p1474
aS':='
p1475
ag217
aS'function'
p1476
aS'id'
p1477
ag318
aS'id'
p1478
ag11
aS'id'
p1479
ag21
ag11
aS'id'
p1480
ag5
ag318
aS'id'
p1481
ag318
aS'id'
p1482
ag86
aS'string'
p1483
ag21
ag221
aS'string'
p1484
ag21
aS'in'
p1485
aS'id'
p1486
ag318
aS'integer'
p1487
ag86
aS'string'
p1488
ag21
aS'end'
p1489
aa(lp1490
S'let'
p1491
aS'function'
p1492
ag318
aS'id'
p1493
ag11
aS'id'
p1494
ag86
aS'id'
p1495
ag11
aS'id'
p1496
ag21
ag11
aS'id'
p1497
ag5
ag318
aS'id'
p1498
ag318
aS'id'
p1499
ag195
aS'integer'
p1500
ag21
ag221
aS'integer'
p1501
ag21
aS'var'
p1502
aS'id'
p1503
aS':='
p1504
aS'integer'
p1505
aS'function'
p1506
aS'id'
p1507
ag318
aS'id'
p1508
ag11
aS'id'
p1509
ag21
ag11
aS'id'
p1510
ag5
ag318
aS'id'
p1511
ag318
aS'id'
p1512
ag86
aS'string'
p1513
ag5
ag221
aS'string'
p1514
ag21
aS'in'
p1515
aS'id'
p1516
ag318
aS'integer'
p1517
ag86
aS'string'
p1518
ag21
aS'end'
p1519
aa(lp1520
S'let'
p1521
aS'function'
p1522
ag318
aS'id'
p1523
ag11
aS'id'
p1524
ag86
aS'id'
p1525
ag11
aS'id'
p1526
ag21
ag11
aS'id'
p1527
ag5
ag318
aS'id'
p1528
ag318
aS'id'
p1529
ag195
aS'integer'
p1530
ag21
ag221
aS'integer'
p1531
ag21
aS'var'
p1532
aS'id'
p1533
aS':='
p1534
aS'integer'
p1535
aS'function'
p1536
aS'id'
p1537
ag318
aS'id'
p1538
ag11
aS'id'
p1539
ag21
ag11
aS'id'
p1540
ag5
ag318
aS'id'
p1541
ag318
aS'id'
p1542
ag86
ag21
ag221
aS'string'
p1543
ag21
aS'in'
p1544
aS'id'
p1545
ag318
aS'integer'
p1546
ag86
aS'string'
p1547
ag21
aS'end'
p1548
aa(lp1549
S'let'
p1550
aS'function'
p1551
ag318
aS'id'
p1552
ag11
aS'id'
p1553
ag86
aS'id'
p1554
ag11
aS'id'
p1555
ag21
ag11
aS'id'
p1556
ag5
ag318
aS'id'
p1557
ag124
aS'id'
p1558
ag195
aS'integer'
p1559
ag21
ag221
aS'integer'
p1560
ag21
aS'var'
p1561
aS'id'
p1562
aS':='
p1563
aS'integer'
p1564
aS'function'
p1565
aS'id'
p1566
ag318
aS'id'
p1567
ag11
aS'id'
p1568
ag21
ag11
aS'id'
p1569
ag5
ag318
aS'id'
p1570
ag318
aS'id'
p1571
ag86
aS'string'
p1572
ag21
ag221
aS'string'
p1573
ag21
aS'in'
p1574
aS'id'
p1575
ag318
aS'integer'
p1576
ag86
aS'string'
p1577
ag21
aS'end'
p1578
aa(lp1579
S'let'
p1580
aS'function'
p1581
aS'id'
p1582
ag318
aS'id'
p1583
aS'id'
p1584
ag86
aS'id'
p1585
ag11
aS'id'
p1586
ag21
ag11
aS'id'
p1587
ag5
ag318
aS'id'
p1588
ag318
aS'id'
p1589
ag195
aS'integer'
p1590
ag21
ag221
aS'integer'
p1591
ag21
aS'var'
p1592
aS'id'
p1593
aS':='
p1594
aS'integer'
p1595
aS'function'
p1596
aS'id'
p1597
ag318
aS'id'
p1598
ag11
aS'id'
p1599
ag21
ag11
aS'id'
p1600
ag5
ag318
aS'id'
p1601
ag318
aS'id'
p1602
ag86
ag21
ag221
aS'string'
p1603
ag21
aS'in'
p1604
aS'id'
p1605
ag318
aS'integer'
p1606
ag86
aS'string'
p1607
ag21
aS'end'
p1608
aa(lp1609
S'let'
p1610
aS'function'
p1611
ag318
aS'id'
p1612
ag11
aS'id'
p1613
ag86
aS'id'
p1614
ag11
aS'id'
p1615
ag131
ag11
aS'id'
p1616
ag5
ag318
aS'id'
p1617
ag318
aS'id'
p1618
ag195
aS'integer'
p1619
ag21
ag221
aS'integer'
p1620
ag21
aS'function'
p1621
aS'id'
p1622
ag318
aS'id'
p1623
ag11
aS'id'
p1624
ag21
ag11
aS'id'
p1625
ag5
ag318
aS'id'
p1626
ag318
aS'id'
p1627
ag86
aS'string'
p1628
ag21
ag221
aS'string'
p1629
ag21
aS'in'
p1630
aS'id'
p1631
ag318
aS'integer'
p1632
ag86
aS'string'
p1633
ag21
aS'end'
p1634
aa(lp1635
S'let'
p1636
aS'function'
p1637
aS'id'
p1638
ag318
aS'id'
p1639
ag11
aS'id'
p1640
ag86
aS'id'
p1641
ag11
aS'id'
p1642
ag21
ag11
aS'id'
p1643
ag318
aS'id'
p1644
ag318
aS'id'
p1645
ag195
aS'integer'
p1646
ag21
ag221
aS'integer'
p1647
ag21
aS'function'
p1648
aS'id'
p1649
ag318
aS'id'
p1650
ag329
aS'id'
p1651
ag21
ag11
aS'id'
p1652
ag5
ag318
aS'id'
p1653
ag318
aS'id'
p1654
ag86
aS'string'
p1655
ag21
ag221
aS'string'
p1656
ag21
aS'in'
p1657
aS'id'
p1658
ag318
aS'integer'
p1659
ag86
aS'string'
p1660
ag21
aS'end'
p1661
aa(lp1662
S'let'
p1663
aS'function'
p1664
ag318
aS'id'
p1665
ag11
aS'id'
p1666
ag86
aS'id'
p1667
ag11
aS'id'
p1668
ag21
ag11
aS'id'
p1669
ag5
ag318
aS'id'
p1670
ag318
aS'id'
p1671
ag195
ag21
ag221
aS'integer'
p1672
ag21
aS'function'
p1673
aS'id'
p1674
ag318
aS'id'
p1675
ag11
aS'id'
p1676
ag21
ag11
aS'id'
p1677
ag5
ag318
aS'id'
p1678
ag318
aS'id'
p1679
ag86
aS'string'
p1680
ag21
ag221
aS'string'
p1681
ag21
aS'in'
p1682
aS'id'
p1683
ag318
aS'integer'
p1684
ag86
aS'string'
p1685
ag21
aS'end'
p1686
aa(lp1687
S'let'
p1688
ag487
aS'id'
p1689
ag318
ag862
ag11
aS'id'
p1690
ag86
aS'id'
p1691
ag11
aS'id'
p1692
ag21
ag11
aS'id'
p1693
ag5
ag318
aS'id'
p1694
ag318
aS'id'
p1695
ag195
aS'integer'
p1696
ag21
ag221
aS'integer'
p1697
ag21
aS'function'
p1698
aS'id'
p1699
ag318
aS'id'
p1700
ag11
aS'id'
p1701
ag21
ag11
aS'id'
p1702
ag5
ag318
aS'id'
p1703
ag318
aS'id'
p1704
ag86
aS'string'
p1705
ag21
ag221
aS'string'
p1706
ag21
aS'in'
p1707
aS'id'
p1708
ag318
aS'integer'
p1709
ag86
aS'string'
p1710
ag21
aS'end'
p1711
aa(lp1712
S'let'
p1713
aS'function'
p1714
aS'id'
p1715
ag318
aS'id'
p1716
ag11
aS'id'
p1717
ag86
aS'id'
p1718
ag11
aS'id'
p1719
ag11
ag647
ag5
ag318
aS'id'
p1720
ag318
aS'id'
p1721
ag195
aS'integer'
p1722
ag21
ag221
aS'integer'
p1723
ag21
aS'function'
p1724
aS'id'
p1725
ag318
aS'id'
p1726
ag11
aS'id'
p1727
ag21
ag11
aS'id'
p1728
ag5
ag318
aS'id'
p1729
ag318
aS'id'
p1730
ag86
aS'string'
p1731
ag21
ag221
aS'string'
p1732
ag21
aS'in'
p1733
aS'id'
p1734
ag318
aS'integer'
p1735
ag86
aS'string'
p1736
ag21
aS'end'
p1737
aa(lp1738
S'while'
p1739
aS'integer'
p1740
ag822
aS'integer'
p1741
aS'do'
p1742
ag78
ag195
aS'integer'
p1743
ag221
ag318
ag21
ag21
aa(lp1744
S'while'
p1745
aS'integer'
p1746
ag822
aS'integer'
p1747
ag11
aS'id'
p1748
ag195
aS'integer'
p1749
ag221
ag318
ag21
ag21
aa(lp1750
S'while'
p1751
aS'integer'
p1752
ag822
aS'integer'
p1753
aS'do'
p1754
ag318
aS'id'
p1755
ag195
ag1340
ag221
ag831
ag21
ag21
aa(lp1756
S'while'
p1757
aS'integer'
p1758
ag822
aS'integer'
p1759
aS'do'
p1760
aS'nil'
p1761
aS'id'
p1762
ag195
aS'integer'
p1763
ag221
ag1761
ag21
ag21
aa(lp1764
S'while'
p1765
aS'integer'
p1766
ag822
aS'integer'
p1767
aS'do'
p1768
ag318
aS'id'
p1769
ag200
ag329
ag221
ag318
ag21
ag21
aa(lp1770
S'let'
p1771
aS'function'
p1772
aS'id'
p1773
ag318
aS'id'
p1774
ag11
aS'id'
p1775
ag21
ag5
aS'if'
p1776
ag905
ag5
aS'integer'
p1777
aS'then'
p1778
aS'integer'
p1779
aS'else'
p1780
aS'id'
p1781
ag329
aS'id'
p1782
ag318
aS'id'
p1783
ag353
ag187
ag21
aS'in'
p1784
aS'id'
p1785
ag318
aS'integer'
p1786
ag21
aS'end'
p1787
aa(lp1788
S'let'
p1789
aS'function'
p1790
aS'id'
p1791
ag318
aS'id'
p1792
ag11
aS'id'
p1793
ag21
ag5
aS'if'
p1794
aS'id'
p1795
ag5
aS'integer'
p1796
aS'integer'
p1797
aS'else'
p1798
ag953
ag329
aS'id'
p1799
ag318
aS'id'
p1800
ag353
aS'integer'
p1801
ag21
aS'in'
p1802
aS'id'
p1803
ag318
aS'integer'
p1804
ag21
aS'end'
p1805
aa(lp1806
S'function'
p1807
aS'id'
p1808
ag318
aS'id'
p1809
ag11
aS'id'
p1810
ag21
ag5
aS'if'
p1811
aS'id'
p1812
ag5
aS'integer'
p1813
aS'then'
p1814
aS'integer'
p1815
aS'integer'
p1816
aS'id'
p1817
ag329
aS'id'
p1818
ag318
aS'id'
p1819
ag353
aS'integer'
p1820
ag21
aS'in'
p1821
aS'id'
p1822
ag318
aS'integer'
p1823
ag21
aS'end'
p1824
aa(lp1825
S'let'
p1826
aS'function'
p1827
aS'id'
p1828
ag318
aS'id'
p1829
ag221
aS'id'
p1830
ag21
ag5
aS'if'
p1831
aS'id'
p1832
ag5
aS'integer'
p1833
aS'then'
p1834
aS'integer'
p1835
aS'else'
p1836
aS'id'
p1837
ag329
aS'id'
p1838
ag318
aS'id'
p1839
ag353
aS'integer'
p1840
ag21
ag53
aS'id'
p1841
ag318
aS'integer'
p1842
ag21
aS'end'
p1843
aa(lp1844
S'let'
p1845
aS'function'
p1846
ag318
aS'id'
p1847
ag11
aS'id'
p1848
ag21
ag5
aS'if'
p1849
aS'id'
p1850
ag5
aS'integer'
p1851
aS'then'
p1852
aS'integer'
p1853
aS'else'
p1854
aS'id'
p1855
ag329
aS'id'
p1856
ag124
aS'id'
p1857
ag353
aS'integer'
p1858
ag21
aS'in'
p1859
aS'id'
p1860
ag318
aS'integer'
p1861
ag21
aS'end'
p1862
aa(lp1863
S'let'
p1864
aS'type'
p1865
aS'id'
p1866
ag5
ag200
aS'id'
p1867
ag11
aS'id'
p1868
aS'id'
p1869
ag11
aS'id'
p1870
ag205
aS'var'
p1871
aS'id'
p1872
aS':='
p1873
aS'id'
p1874
ag200
aS'id'
p1875
ag5
ag86
aS'id'
p1876
ag5
aS'integer'
p1877
ag205
aS'in'
p1878
aS'id'
p1879
ag217
aS'id'
p1880
aS':='
p1881
aS'string'
p1882
aS'end'
p1883
aa(lp1884
S'let'
p1885
aS'type'
p1886
ag5
ag200
aS'id'
p1887
ag11
aS'id'
p1888
ag86
aS'id'
p1889
ag11
aS'id'
p1890
ag205
aS'var'
p1891
aS'id'
p1892
aS':='
p1893
aS'id'
p1894
ag200
aS'id'
p1895
ag5
aS'string'
p1896
ag86
aS'id'
p1897
ag5
ag205
aS'in'
p1898
aS'id'
p1899
ag217
aS'id'
p1900
aS':='
p1901
aS'string'
p1902
aS'end'
p1903
aa(lp1904
S'let'
p1905
aS'type'
p1906
aS'id'
p1907
ag78
ag200
aS'id'
p1908
ag11
aS'id'
p1909
ag86
aS'id'
p1910
ag11
aS'id'
p1911
ag205
aS'var'
p1912
aS'id'
p1913
aS':='
p1914
aS'id'
p1915
ag200
aS'id'
p1916
aS'string'
p1917
ag86
aS'id'
p1918
ag5
aS'integer'
p1919
ag205
aS'in'
p1920
aS'id'
p1921
ag217
aS'id'
p1922
aS':='
p1923
aS'string'
p1924
aS'end'
p1925
aa(lp1926
S'let'
p1927
aS'type'
p1928
aS'id'
p1929
ag5
ag200
aS'id'
p1930
ag11
aS'id'
p1931
ag86
aS'id'
p1932
ag11
aS'id'
p1933
ag205
aS'var'
p1934
aS'id'
p1935
aS':='
p1936
aS'id'
p1937
ag200
aS'id'
p1938
ag318
aS'string'
p1939
ag86
aS'id'
p1940
ag5
aS'integer'
p1941
ag205
aS'in'
p1942
aS'id'
p1943
ag217
aS'id'
p1944
aS':='
p1945
aS'string'
p1946
aS'end'
p1947
aa(lp1948
S'let'
p1949
aS'type'
p1950
aS'id'
p1951
ag5
aS'id'
p1952
ag11
aS'id'
p1953
ag86
aS'id'
p1954
ag11
aS'id'
p1955
ag205
aS'var'
p1956
aS'id'
p1957
aS':='
p1958
aS'id'
p1959
ag200
aS'id'
p1960
ag5
aS'string'
p1961
ag86
aS'id'
p1962
ag5
aS'integer'
p1963
ag205
aS'in'
p1964
aS'id'
p1965
ag217
aS'id'
p1966
aS':='
p1967
aS'string'
p1968
aS'end'
p1969
aa(lp1970
S'let'
p1971
aS'type'
p1972
ag5
ag200
aS'id'
p1973
ag11
aS'id'
p1974
ag86
aS'id'
p1975
ag11
aS'id'
p1976
ag205
aS'var'
p1977
aS'id'
p1978
aS':='
p1979
aS'id'
p1980
ag200
aS'id'
p1981
ag5
aS'string'
p1982
ag86
aS'id'
p1983
ag5
aS'integer'
p1984
ag205
aS'in'
p1985
aS'id'
p1986
ag217
aS'id'
p1987
aS':='
p1988
aS'integer'
p1989
ag221
aS'id'
p1990
ag217
aS'id'
p1991
aS':='
p1992
aS'string'
p1993
aS'end'
p1994
aa(lp1995
S'let'
p1996
aS'type'
p1997
ag822
ag200
aS'id'
p1998
ag11
aS'id'
p1999
ag86
aS'id'
p2000
ag11
aS'id'
p2001
ag205
aS'var'
p2002
aS'id'
p2003
aS':='
p2004
aS'id'
p2005
ag200
aS'id'
p2006
ag5
aS'string'
p2007
ag86
aS'id'
p2008
ag5
aS'integer'
p2009
ag205
aS'in'
p2010
aS'id'
p2011
ag217
aS'id'
p2012
aS':='
p2013
aS'integer'
p2014
ag221
aS'id'
p2015
ag217
aS'id'
p2016
aS':='
p2017
aS'string'
p2018
aS'end'
p2019
aa(lp2020
S'let'
p2021
aS'type'
p2022
ag231
ag5
ag200
aS'id'
p2023
ag11
aS'id'
p2024
ag86
aS'id'
p2025
ag11
aS'id'
p2026
ag205
aS'id'
p2027
aS':='
p2028
aS'id'
p2029
ag200
aS'id'
p2030
ag5
aS'string'
p2031
ag86
aS'id'
p2032
ag5
aS'integer'
p2033
ag205
aS'in'
p2034
aS'id'
p2035
ag217
aS'id'
p2036
aS':='
p2037
aS'integer'
p2038
ag221
aS'id'
p2039
ag217
aS'id'
p2040
aS':='
p2041
aS'string'
p2042
aS'end'
p2043
aa(lp2044
S'let'
p2045
aS'type'
p2046
ag5
ag200
ag11
aS'id'
p2047
ag86
aS'id'
p2048
ag11
aS'id'
p2049
ag205
aS'var'
p2050
aS'id'
p2051
aS':='
p2052
aS'id'
p2053
ag200
aS'id'
p2054
ag5
aS'string'
p2055
ag86
aS'id'
p2056
ag5
aS'integer'
p2057
ag205
aS'in'
p2058
aS'id'
p2059
ag217
aS'id'
p2060
aS':='
p2061
aS'integer'
p2062
ag221
aS'id'
p2063
ag217
aS'id'
p2064
aS':='
p2065
aS'string'
p2066
aS'end'
p2067
aa(lp2068
S'let'
p2069
aS'type'
p2070
aS'id'
p2071
ag5
ag200
aS'id'
p2072
ag11
aS'id'
p2073
ag86
aS'id'
p2074
ag11
aS'id'
p2075
ag205
aS'var'
p2076
aS'id'
p2077
aS':='
p2078
aS'id'
p2079
ag200
aS'id'
p2080
ag5
aS'string'
p2081
ag86
aS'id'
p2082
ag5
aS'integer'
p2083
ag205
aS'id'
p2084
ag217
aS'id'
p2085
aS':='
p2086
aS'integer'
p2087
ag221
aS'id'
p2088
ag217
ag862
aS':='
p2089
aS'string'
p2090
aS'end'
p2091
aa(lp2092
S'let'
p2093
aS'id'
p2094
aS':='
p2095
aS'integer'
p2096
aS'in'
p2097
aS'id'
p2098
ag12
aS'integer'
p2099
aS'end'
p2100
aa(lp2101
S'let'
p2102
aS'var'
p2103
aS'id'
p2104
aS':='
p2105
aS'integer'
p2106
aS'in'
p2107
aS'id'
p2108
ag822
aS'integer'
p2109
ag158
aS'end'
p2110
aa(lp2111
S'let'
p2112
ag86
aS'id'
p2113
aS':='
p2114
aS'in'
p2115
aS'id'
p2116
ag12
aS'integer'
p2117
ag16
aS'end'
p2118
aa(lp2119
S'let'
p2120
aS'var'
p2121
aS'id'
p2122
aS':='
p2123
aS'integer'
p2124
aS'in'
p2125
aS'id'
p2126
ag862
ag16
aS'end'
p2127
aa(lp2128
S'let'
p2129
aS'var'
p2130
aS':='
p2131
aS'integer'
p2132
aS'in'
p2133
aS'id'
p2134
ag12
aS'integer'
p2135
ag16
aa(lp2136
S'let'
p2137
aS'var'
p2138
aS'id'
p2139
aS':='
p2140
aS'in'
p2141
aS'id'
p2142
aS'id'
p2143
aS'end'
p2144
aa(lp2145
S'let'
p2146
aS'var'
p2147
aS':='
p2148
aS'integer'
p2149
aS'in'
p2150
ag217
aS'id'
p2151
aS'end'
p2152
aa(lp2153
g53
aS'id'
p2154
aS':='
p2155
aS'integer'
p2156
aS'in'
p2157
aS'id'
p2158
ag217
aS'id'
p2159
aS'end'
p2160
aa(lp2161
S'let'
p2162
aS'var'
p2163
aS'id'
p2164
aS':='
p2165
aS'integer'
p2166
ag187
aS'id'
p2167
ag217
ag78
aS'end'
p2168
aa(lp2169
S'let'
p2170
aS'var'
p2171
aS'id'
p2172
aS'integer'
p2173
ag384
aS'id'
p2174
ag217
aS'id'
p2175
aS'end'
p2176
aa(lp2177
S'integer'
p2178
ag353
aa(lp2179
g195
ag1340
aa(lp2180
S'string'
p2181
aa(lp2182
S'integer'
p2183
aa(lp2184
S'integer'
p2185
ag205
aa(lp2186
S'let'
p2187
aS'var'
p2188
aS'id'
p2189
aS':='
p2190
aS'integer'
p2191
aS'function'
p2192
aS'id'
p2193
ag318
ag329
ag11
ag862
ag21
ag11
aS'id'
p2194
ag5
aS'id'
p2195
aS'in'
p2196
aS'id'
p2197
ag318
aS'integer'
p2198
ag21
aS'end'
p2199
aa(lp2200
S'let'
p2201
aS'var'
p2202
aS'id'
p2203
aS':='
p2204
aS'integer'
p2205
aS'function'
p2206
aS'id'
p2207
ag318
ag487
ag11
aS'id'
p2208
ag21
ag11
aS'id'
p2209
ag5
aS'id'
p2210
aS'in'
p2211
aS'id'
p2212
ag318
aS'integer'
p2213
ag21
ag187
aa(lp2214
S'let'
p2215
aS'var'
p2216
aS'id'
p2217
aS':='
p2218
aS'integer'
p2219
aS'function'
p2220
aS'id'
p2221
ag318
aS'id'
p2222
ag11
ag21
ag21
ag11
aS'id'
p2223
ag5
aS'id'
p2224
aS'in'
p2225
aS'id'
p2226
ag318
aS'integer'
p2227
ag862
aS'end'
p2228
aa(lp2229
g953
aS'id'
p2230
aS':='
p2231
aS'integer'
p2232
aS'function'
p2233
aS'id'
p2234
ag318
aS'id'
p2235
ag11
aS'id'
p2236
ag21
ag11
aS'id'
p2237
ag5
aS'id'
p2238
aS'in'
p2239
aS'id'
p2240
ag318
aS'integer'
p2241
ag21
aS'end'
p2242
aa(lp2243
S'let'
p2244
aS'var'
p2245
aS':='
p2246
aS'integer'
p2247
ag638
aS'id'
p2248
ag318
aS'id'
p2249
ag11
aS'id'
p2250
ag21
ag11
aS'id'
p2251
ag5
aS'id'
p2252
aS'in'
p2253
aS'id'
p2254
ag318
aS'integer'
p2255
ag21
aS'end'
p2256
aa(lp2257
S'let'
p2258
aS'type'
p2259
aS'id'
p2260
ag5
ag200
aS'id'
p2261
ag11
aS'id'
p2262
aS'id'
p2263
ag11
aS'id'
p2264
ag205
aS'type'
p2265
aS'id'
p2266
ag5
ag200
aS'id'
p2267
ag11
aS'id'
p2268
aS'id'
p2269
ag11
aS'id'
p2270
ag205
aS'var'
p2271
aS'id'
p2272
ag11
aS'id'
p2273
aS':='
p2274
aS'id'
p2275
ag200
aS'id'
p2276
ag5
aS'string'
p2277
ag86
aS'id'
p2278
ag5
aS'integer'
p2279
ag205
aS'in'
p2280
aS'id'
p2281
aS'end'
p2282
aa(lp2283
S'let'
p2284
aS'type'
p2285
ag5
ag200
aS'id'
p2286
ag11
aS'id'
p2287
ag86
aS'id'
p2288
ag11
aS'id'
p2289
ag205
aS'type'
p2290
aS'id'
p2291
ag5
ag200
aS'id'
p2292
ag11
aS'id'
p2293
ag109
aS'id'
p2294
ag11
aS'id'
p2295
ag205
aS'var'
p2296
aS'id'
p2297
ag11
aS'id'
p2298
aS':='
p2299
aS'id'
p2300
ag200
aS'id'
p2301
ag5
aS'string'
p2302
ag86
aS'id'
p2303
ag5
aS'integer'
p2304
ag205
aS'in'
p2305
aS'id'
p2306
aS'end'
p2307
aa(lp2308
S'let'
p2309
aS'type'
p2310
aS'id'
p2311
ag5
ag200
aS'id'
p2312
ag11
aS'id'
p2313
ag86
aS'id'
p2314
ag11
aS'id'
p2315
ag205
aS'type'
p2316
aS'id'
p2317
ag5
ag200
aS'id'
p2318
ag11
aS'id'
p2319
ag86
ag187
ag11
aS'id'
p2320
ag205
aS'var'
p2321
aS'id'
p2322
ag11
ag53
aS':='
p2323
aS'id'
p2324
ag200
aS'id'
p2325
ag5
aS'string'
p2326
ag86
aS'id'
p2327
ag5
aS'integer'
p2328
ag205
aS'in'
p2329
aS'id'
p2330
aS'end'
p2331
aa(lp2332
S'let'
p2333
aS'type'
p2334
aS'id'
p2335
ag5
ag200
aS'id'
p2336
ag11
aS'id'
p2337
ag86
aS'id'
p2338
ag11
aS'id'
p2339
ag205
aS'type'
p2340
aS'id'
p2341
ag5
ag200
aS'id'
p2342
ag11
aS'id'
p2343
ag86
aS'id'
p2344
ag11
aS'id'
p2345
ag205
aS'var'
p2346
aS'id'
p2347
ag11
aS'id'
p2348
aS':='
p2349
aS'id'
p2350
ag200
ag221
ag5
aS'string'
p2351
ag86
aS'id'
p2352
ag5
aS'integer'
p2353
ag205
aS'in'
p2354
aS'id'
p2355
aa(lp2356
S'let'
p2357
aS'type'
p2358
aS'id'
p2359
ag5
ag200
aS'id'
p2360
ag11
aS'id'
p2361
ag86
aS'id'
p2362
ag11
aS'id'
p2363
ag205
aS'type'
p2364
aS'id'
p2365
ag5
ag200
aS'id'
p2366
ag11
aS'id'
p2367
ag86
aS'id'
p2368
ag11
aS'id'
p2369
ag205
aS'var'
p2370
aS'id'
p2371
ag11
aS'id'
p2372
aS':='
p2373
aS'id'
p2374
ag200
ag459
ag5
aS'string'
p2375
ag86
aS'id'
p2376
ag5
ag131
ag205
aS'in'
p2377
aS'id'
p2378
aS'end'
p2379
aa(lp2380
S'let'
p2381
aS'type'
p2382
ag831
aS'array'
p2383
aS'of'
p2384
aS'id'
p2385
aS'type'
p2386
aS'id'
p2387
ag5
aS'array'
p2388
aS'of'
p2389
aS'id'
p2390
aS'var'
p2391
aS'id'
p2392
ag11
aS'id'
p2393
aS':='
p2394
aS'id'
p2395
ag12
aS'integer'
p2396
ag16
aS'of'
p2397
aS'integer'
p2398
aS'in'
p2399
aS'id'
p2400
aS'end'
p2401
aa(lp2402
S'let'
p2403
aS'type'
p2404
ag5
aS'array'
p2405
aS'of'
p2406
ag1816
aS'type'
p2407
aS'id'
p2408
ag5
aS'array'
p2409
aS'of'
p2410
aS'id'
p2411
aS'var'
p2412
aS'id'
p2413
ag11
aS'id'
p2414
aS':='
p2415
aS'id'
p2416
ag12
aS'integer'
p2417
ag16
aS'of'
p2418
aS'integer'
p2419
aS'in'
p2420
aS'id'
p2421
aS'end'
p2422
aa(lp2423
S'let'
p2424
aS'type'
p2425
ag5
aS'array'
p2426
aS'of'
p2427
aS'id'
p2428
aS'type'
p2429
aS'id'
p2430
ag5
aS'array'
p2431
ag5
aS'id'
p2432
aS'var'
p2433
aS'id'
p2434
ag11
aS'id'
p2435
aS':='
p2436
aS'id'
p2437
ag12
aS'integer'
p2438
ag16
aS'of'
p2439
aS'integer'
p2440
aS'in'
p2441
aS'id'
p2442
aS'end'
p2443
aa(lp2444
S'let'
p2445
aS'type'
p2446
aS'id'
p2447
aS'array'
p2448
aS'of'
p2449
ag963
aS'type'
p2450
aS'id'
p2451
ag5
aS'array'
p2452
aS'of'
p2453
aS'id'
p2454
aS'var'
p2455
aS'id'
p2456
ag11
aS'id'
p2457
aS':='
p2458
aS'id'
p2459
ag12
aS'integer'
p2460
ag16
aS'of'
p2461
aS'integer'
p2462
aS'in'
p2463
aS'id'
p2464
aS'end'
p2465
aa(lp2466
S'let'
p2467
aS'type'
p2468
aS'id'
p2469
aS'array'
p2470
aS'of'
p2471
aS'id'
p2472
aS'type'
p2473
ag1303
ag5
aS'array'
p2474
aS'of'
p2475
aS'id'
p2476
aS'var'
p2477
aS'id'
p2478
ag11
aS'id'
p2479
aS':='
p2480
aS'id'
p2481
ag12
aS'integer'
p2482
ag16
aS'of'
p2483
aS'integer'
p2484
aS'in'
p2485
aS'id'
p2486
aS'end'
p2487
aa(lp2488
S'let'
p2489
aS'type'
p2490
ag5
aS'array'
p2491
aS'of'
p2492
aS'id'
p2493
aS'type'
p2494
ag1303
ag5
aS'id'
p2495
aS'var'
p2496
aS'id'
p2497
ag11
aS'id'
p2498
aS':='
p2499
aS'id'
p2500
ag12
aS'integer'
p2501
ag16
aS'of'
p2502
aS'integer'
p2503
aS'in'
p2504
aS'id'
p2505
ag12
aS'integer'
p2506
ag16
aS'end'
p2507
aa(lp2508
S'let'
p2509
aS'type'
p2510
aS'id'
p2511
ag5
aS'array'
p2512
aS'of'
p2513
aS'id'
p2514
aS'type'
p2515
aS'id'
p2516
ag5
aS'id'
p2517
aS'var'
p2518
aS'id'
p2519
ag11
aS'id'
p2520
aS':='
p2521
aS'id'
p2522
ag11
ag16
aS'of'
p2523
aS'integer'
p2524
aS'in'
p2525
aS'id'
p2526
ag12
aS'integer'
p2527
ag16
aS'end'
p2528
aa(lp2529
S'let'
p2530
aS'id'
p2531
ag5
aS'array'
p2532
aS'of'
p2533
aS'id'
p2534
aS'type'
p2535
aS'id'
p2536
ag5
aS'id'
p2537
aS'var'
p2538
aS'id'
p2539
ag11
aS'id'
p2540
aS':='
p2541
ag831
ag12
aS'integer'
p2542
ag16
aS'of'
p2543
aS'integer'
p2544
aS'in'
p2545
aS'id'
p2546
ag12
aS'integer'
p2547
ag16
aS'end'
p2548
aa(lp2549
S'let'
p2550
aS'type'
p2551
aS'id'
p2552
ag5
aS'array'
p2553
aS'of'
p2554
aS'id'
p2555
aS'type'
p2556
aS'id'
p2557
ag5
aS'id'
p2558
aS'var'
p2559
aS'id'
p2560
ag11
aS'id'
p2561
aS':='
p2562
aS'id'
p2563
ag12
ag16
aS'of'
p2564
ag821
aS'in'
p2565
aS'id'
p2566
ag12
aS'integer'
p2567
ag16
aS'end'
p2568
aa(lp2569
S'let'
p2570
aS'type'
p2571
ag5
aS'array'
p2572
aS'of'
p2573
aS'id'
p2574
aS'type'
p2575
aS'id'
p2576
ag5
aS'id'
p2577
aS'var'
p2578
aS'id'
p2579
ag11
aS'id'
p2580
aS':='
p2581
aS'id'
p2582
ag12
aS'integer'
p2583
ag16
aS'of'
p2584
ag195
aS'in'
p2585
aS'id'
p2586
ag12
aS'integer'
p2587
ag16
aS'end'
p2588
aa(lp2589
S'let'
p2590
aS'var'
p2591
ag187
ag11
aS'id'
p2592
aS':='
p2593
aS'string'
p2594
aS'id'
p2595
aS'end'
p2596
aa(lp2597
S'let'
p2598
aS'var'
p2599
aS'id'
p2600
ag11
aS'id'
p2601
ag1403
aS'in'
p2602
aS'id'
p2603
aS'end'
p2604
aa(lp2605
S'let'
p2606
ag459
ag109
ag11
aS'id'
p2607
aS':='
p2608
aS'string'
p2609
aS'in'
p2610
aS'id'
p2611
aS'end'
p2612
aa(lp2613
S'let'
p2614
aS'var'
p2615
aS'id'
p2616
ag459
aS':='
p2617
aS'string'
p2618
aS'in'
p2619
aS'id'
p2620
aS'end'
p2621
aa(lp2622
S'let'
p2623
aS'var'
p2624
ag11
aS'id'
p2625
ag318
aS'string'
p2626
aS'in'
p2627
aS'id'
p2628
aS'end'
p2629
aa(lp2630
S'let'
p2631
aS'type'
p2632
aS'id'
p2633
ag5
aS'array'
p2634
aS'of'
p2635
aS'id'
p2636
ag200
aS'id'
p2637
aS':='
p2638
aS'id'
p2639
ag12
aS'integer'
p2640
ag16
aS'of'
p2641
aS'string'
p2642
aS'in'
p2643
aS'integer'
p2644
aa(lp2645
S'let'
p2646
aS'type'
p2647
aS'id'
p2648
ag5
aS'of'
p2649
aS'id'
p2650
aS'var'
p2651
aS'id'
p2652
aS':='
p2653
aS'id'
p2654
ag12
ag16
aS'of'
p2655
aS'string'
p2656
aS'in'
p2657
aS'integer'
p2658
aS'end'
p2659
aa(lp2660
S'let'
p2661
aS'type'
p2662
aS'id'
p2663
ag109
aS'array'
p2664
aS'of'
p2665
aS'id'
p2666
ag12
aS'id'
p2667
aS':='
p2668
aS'id'
p2669
ag12
aS'integer'
p2670
ag16
aS'of'
p2671
aS'string'
p2672
aS'in'
p2673
aS'integer'
p2674
aS'end'
p2675
aa(lp2676
S'let'
p2677
ag822
aS'id'
p2678
ag5
aS'array'
p2679
aS'of'
p2680
aS'id'
p2681
aS'var'
p2682
aS'id'
p2683
aS':='
p2684
aS'id'
p2685
ag12
aS'integer'
p2686
aS'of'
p2687
aS'string'
p2688
aS'in'
p2689
aS'integer'
p2690
aS'end'
p2691
aa(lp2692
S'let'
p2693
ag5
aS'array'
p2694
aS'of'
p2695
aS'id'
p2696
aS'var'
p2697
aS'id'
p2698
aS':='
p2699
aS'id'
p2700
ag12
aS'integer'
p2701
ag16
aS'of'
p2702
aS'string'
p2703
aS'in'
p2704
aS'integer'
p2705
aS'end'
p2706
aa(lp2707
S'let'
p2708
aS'var'
p2709
aS'id'
p2710
aS':='
p2711
aS'id'
p2712
ag200
ag205
ag78
aS'integer'
p2713
ag217
aa(lp2714
S'let'
p2715
aS'var'
p2716
aS'id'
p2717
aS':='
p2718
aS'id'
p2719
ag329
ag205
aS'in'
p2720
ag963
aS'end'
p2721
aa(lp2722
S'let'
p2723
aS'var'
p2724
aS'id'
p2725
aS':='
p2726
aS'id'
p2727
ag200
ag205
ag124
aS'end'
p2728
aa(lp2729
g862
aS'var'
p2730
aS'id'
p2731
aS':='
p2732
aS'id'
p2733
ag200
ag205
aS'in'
p2734
aS'integer'
p2735
ag131
aa(lp2736
S'let'
p2737
aS'var'
p2738
aS'id'
p2739
aS':='
p2740
aS'id'
p2741
ag217
aS'in'
p2742
aS'integer'
p2743
aS'end'
p2744
aa(lp2745
S'let'
p2746
aS'function'
p2747
ag318
aS'id'
p2748
aS'id'
p2749
ag86
aS'id'
p2750
ag11
aS'id'
p2751
ag21
ag11
aS'id'
p2752
ag5
aS'id'
p2753
aS'in'
p2754
aS'id'
p2755
ag318
aS'string'
p2756
ag86
aS'string'
p2757
ag21
aS'end'
p2758
aa(lp2759
S'let'
p2760
ag487
ag318
aS'id'
p2761
ag11
aS'id'
p2762
ag86
aS'id'
p2763
ag11
aS'id'
p2764
ag21
ag11
aS'id'
p2765
ag5
aS'id'
p2766
aS'in'
p2767
aS'id'
p2768
ag318
aS'string'
p2769
ag86
aS'string'
p2770
ag21
aS'end'
p2771
aa(lp2772
S'let'
p2773
aS'function'
p2774
aS'id'
p2775
ag318
aS'id'
p2776
ag11
aS'id'
p2777
ag86
aS'id'
p2778
ag11
aS'id'
p2779
ag21
ag11
aS'id'
p2780
ag821
aS'id'
p2781
aS'in'
p2782
aS'id'
p2783
ag318
ag86
aS'string'
p2784
ag21
aS'end'
p2785
aa(lp2786
S'let'
p2787
aS'function'
p2788
aS'id'
p2789
ag318
aS'id'
p2790
ag11
aS'id'
p2791
ag86
aS'id'
p2792
ag11
ag318
ag21
ag11
aS'id'
p2793
ag5
aS'id'
p2794
aS'in'
p2795
aS'id'
p2796
ag318
aS'string'
p2797
ag86
aS'string'
p2798
ag21
aS'end'
p2799
aa(lp2800
S'let'
p2801
aS'function'
p2802
ag318
aS'id'
p2803
ag11
aS'id'
p2804
ag86
aS'id'
p2805
ag11
aS'id'
p2806
ag21
ag11
aS'id'
p2807
ag5
aS'id'
p2808
aS'in'
p2809
aS'id'
p2810
ag318
ag86
aS'string'
p2811
ag21
aS'end'
p2812
aa(lp2813
S'let'
p2814
aS'function'
p2815
aS'id'
p2816
ag318
aS'id'
p2817
ag11
aS'id'
p2818
ag86
aS'id'
p2819
ag11
aS'id'
p2820
ag21
ag11
aS'id'
p2821
ag5
aS'id'
p2822
aS'in'
p2823
aS'id'
p2824
ag318
aS'string'
p2825
ag638
ag1062
aa(lp2826
S'let'
p2827
aS'function'
p2828
ag318
ag11
aS'id'
p2829
ag86
aS'id'
p2830
ag11
aS'id'
p2831
ag21
ag11
aS'id'
p2832
ag5
aS'id'
p2833
aS'in'
p2834
aS'id'
p2835
ag318
aS'string'
p2836
ag21
aS'end'
p2837
aa(lp2838
S'let'
p2839
aS'function'
p2840
aS'id'
p2841
ag318
aS'id'
p2842
ag11
aS'id'
p2843
ag86
aS'id'
p2844
ag11
aS'id'
p2845
ag21
ag11
aS'id'
p2846
ag5
ag1303
aS'in'
p2847
aS'id'
p2848
ag318
aS'string'
p2849
ag231
aS'end'
p2850
aa(lp2851
S'let'
p2852
aS'function'
p2853
aS'id'
p2854
ag318
aS'id'
p2855
aS'id'
p2856
ag86
aS'id'
p2857
ag953
aS'id'
p2858
ag21
ag11
aS'id'
p2859
ag5
aS'id'
p2860
aS'in'
p2861
aS'id'
p2862
ag318
aS'string'
p2863
ag21
aS'end'
p2864
aa(lp2865
S'let'
p2866
aS'id'
p2867
ag318
aS'id'
p2868
ag11
aS'id'
p2869
ag86
aS'id'
p2870
ag11
aS'id'
p2871
ag21
ag11
ag384
ag5
aS'id'
p2872
aS'in'
p2873
aS'id'
p2874
ag318
aS'string'
p2875
ag21
aS'end'
p2876
aa(lp2877
S'let'
p2878
aS'function'
p2879
ag318
aS'id'
p2880
ag11
aS'id'
p2881
ag86
ag78
ag11
aS'id'
p2882
ag21
ag11
aS'id'
p2883
ag5
aS'id'
p2884
aS'in'
p2885
aS'id'
p2886
ag318
aS'integer'
p2887
ag86
aS'string'
p2888
ag86
aS'integer'
p2889
ag21
aS'end'
p2890
aa(lp2891
S'let'
p2892
aS'function'
p2893
aS'id'
p2894
ag318
aS'id'
p2895
ag11
aS'id'
p2896
ag86
ag78
ag11
aS'id'
p2897
ag21
ag11
aS'id'
p2898
ag5
aS'id'
p2899
aS'in'
p2900
aS'id'
p2901
ag318
aS'integer'
p2902
ag86
aS'string'
p2903
ag131
aS'integer'
p2904
ag21
aS'end'
p2905
aa(lp2906
S'let'
p2907
ag1761
aS'id'
p2908
ag318
aS'id'
p2909
aS'id'
p2910
ag86
aS'id'
p2911
ag11
aS'id'
p2912
ag21
ag11
aS'id'
p2913
ag5
aS'id'
p2914
aS'in'
p2915
aS'id'
p2916
ag318
aS'integer'
p2917
ag86
aS'string'
p2918
ag86
aS'integer'
p2919
ag21
aS'end'
p2920
aa(lp2921
S'let'
p2922
aS'function'
p2923
aS'id'
p2924
ag318
aS'id'
p2925
ag11
aS'id'
p2926
ag78
aS'id'
p2927
ag11
aS'id'
p2928
ag21
ag11
aS'id'
p2929
ag5
aS'id'
p2930
aS'in'
p2931
aS'id'
p2932
ag318
aS'integer'
p2933
aS'string'
p2934
ag86
aS'integer'
p2935
ag21
aS'end'
p2936
aa(lp2937
S'let'
p2938
aS'function'
p2939
aS'id'
p2940
aS'id'
p2941
aS'id'
p2942
ag86
aS'id'
p2943
ag11
aS'id'
p2944
ag21
ag11
aS'id'
p2945
ag5
aS'id'
p2946
aS'in'
p2947
aS'id'
p2948
ag318
aS'integer'
p2949
ag86
aS'string'
p2950
ag86
aS'integer'
p2951
ag21
aS'end'
p2952
aa(lp2953
S'let'
p2954
aS'var'
p2955
aS':='
p2956
aS'integer'
p2957
aS'var'
p2958
aS'id'
p2959
aS':='
p2960
aS'string'
p2961
aS'in'
p2962
aS'integer'
p2963
aS'end'
p2964
aa(lp2965
S'let'
p2966
aS'var'
p2967
ag459
aS'integer'
p2968
aS'var'
p2969
aS'id'
p2970
aS':='
p2971
aS'string'
p2972
aS'in'
p2973
aS'integer'
p2974
aS'end'
p2975
aa(lp2976
g200
aS'var'
p2977
aS'id'
p2978
aS':='
p2979
ag158
aS'var'
p2980
aS'id'
p2981
aS':='
p2982
aS'string'
p2983
aS'in'
p2984
aS'integer'
p2985
aS'end'
p2986
aa(lp2987
S'let'
p2988
aS'var'
p2989
ag329
aS':='
p2990
ag158
aS'var'
p2991
aS'id'
p2992
aS':='
p2993
aS'string'
p2994
aS'in'
p2995
aS'integer'
p2996
aS'end'
p2997
aa(lp2998
S'let'
p2999
aS'var'
p3000
aS'id'
p3001
aS':='
p3002
aS'integer'
p3003
aS'var'
p3004
aS'id'
p3005
ag1303
aS'in'
p3006
aS'integer'
p3007
aS'end'
p3008
aa(lp3009
S'let'
p3010
aS'type'
p3011
aS'id'
p3012
ag5
aS'id'
p3013
aS'type'
p3014
aS'id'
p3015
ag5
aS'id'
p3016
ag217
aS'end'
p3017
aa(lp3018
S'let'
p3019
aS'type'
p3020
ag11
ag5
aS'type'
p3021
aS'id'
p3022
ag5
aS'id'
p3023
aS'in'
p3024
aS'integer'
p3025
aS'end'
p3026
aa(lp3027
S'let'
p3028
aS'type'
p3029
aS'id'
p3030
ag5
aS'id'
p3031
aS'type'
p3032
ag459
ag5
aS'id'
p3033
aS'in'
p3034
aS'integer'
p3035
aa(lp3036
S'let'
p3037
aS'type'
p3038
ag5
aS'id'
p3039
aS'type'
p3040
aS'id'
p3041
ag5
aS'id'
p3042
aS'in'
p3043
aS'end'
p3044
aa(lp3045
S'let'
p3046
aS'type'
p3047
aS'id'
p3048
ag5
aS'id'
p3049
aS'type'
p3050
ag1079
ag5
aS'id'
p3051
aS'in'
p3052
ag831
aS'end'
p3053
aa(lp3054
S'let'
p3055
aS'function'
p3056
ag1211
ag318
aS'id'
p3057
ag11
aS'id'
p3058
ag21
ag11
aS'id'
p3059
ag5
aS'id'
p3060
aS'function'
p3061
aS'id'
p3062
ag318
aS'id'
p3063
ag11
aS'id'
p3064
ag21
ag11
aS'id'
p3065
ag5
aS'id'
p3066
aS'in'
p3067
aS'integer'
p3068
ag1761
aa(lp3069
S'let'
p3070
aS'function'
p3071
ag638
ag318
aS'id'
p3072
ag11
aS'id'
p3073
ag21
ag11
aS'id'
p3074
ag5
aS'id'
p3075
aS'function'
p3076
aS'id'
p3077
ag318
ag86
ag11
aS'id'
p3078
ag21
ag11
aS'id'
p3079
ag5
aS'id'
p3080
aS'in'
p3081
aS'integer'
p3082
aS'end'
p3083
aa(lp3084
S'let'
p3085
aS'function'
p3086
aS'id'
p3087
ag318
aS'id'
p3088
ag11
aS'id'
p3089
ag21
ag11
aS'id'
p3090
ag5
aS'id'
p3091
aS'function'
p3092
aS'id'
p3093
ag318
aS'id'
p3094
ag11
aS'id'
p3095
ag21
ag11
aS'id'
p3096
ag831
aS'id'
p3097
ag5
aS'integer'
p3098
aS'end'
p3099
aa(lp3100
S'let'
p3101
aS'function'
p3102
ag318
aS'id'
p3103
ag11
aS'id'
p3104
ag21
ag11
aS'id'
p3105
ag5
aS'id'
p3106
aS'function'
p3107
aS'id'
p3108
ag318
aS'id'
p3109
ag158
aS'id'
p3110
ag21
ag11
aS'id'
p3111
ag5
aS'id'
p3112
aS'in'
p3113
aS'integer'
p3114
aS'end'
p3115
aa(lp3116
S'let'
p3117
ag12
ag318
aS'id'
p3118
ag11
aS'id'
p3119
ag21
ag11
aS'id'
p3120
ag5
aS'id'
p3121
aS'function'
p3122
aS'id'
p3123
ag318
aS'id'
p3124
ag11
aS'id'
p3125
ag21
ag11
aS'id'
p3126
ag5
aS'id'
p3127
aS'in'
p3128
aS'integer'
p3129
aS'end'
p3130
aa(lp3131
S'let'
p3132
aS'function'
p3133
ag318
aS'id'
p3134
ag11
aS'id'
p3135
ag21
ag5
aS'id'
p3136
ag53
aS'id'
p3137
ag318
aS'integer'
p3138
ag21
aS'end'
p3139
aa(lp3140
S'let'
p3141
aS'function'
p3142
aS'id'
p3143
ag318
aS'id'
p3144
aS'id'
p3145
ag21
ag5
aS'id'
p3146
aS'in'
p3147
aS'id'
p3148
ag318
aS'integer'
p3149
ag21
aS'end'
p3150
aa(lp3151
S'let'
p3152
aS'id'
p3153
ag318
aS'id'
p3154
ag11
aS'id'
p3155
ag21
ag158
aS'id'
p3156
aS'in'
p3157
aS'id'
p3158
ag318
aS'integer'
p3159
ag21
aS'end'
p3160
aa(lp3161
S'let'
p3162
aS'function'
p3163
aS'id'
p3164
ag318
aS'id'
p3165
ag11
aS'id'
p3166
ag21
ag5
aS'id'
p3167
aS'in'
p3168
ag221
ag318
ag187
ag21
aS'end'
p3169
aa(lp3170
S'let'
p3171
aS'function'
p3172
ag318
aS'id'
p3173
ag11
aS'id'
p3174
ag5
aS'id'
p3175
aS'in'
p3176
aS'id'
p3177
ag318
aS'integer'
p3178
ag21
aS'end'
p3179
aa(lp3180
S'let'
p3181
aS'type'
p3182
ag5
aS'id'
p3183
aS'let'
p3184
aS'type'
p3185
aS'id'
p3186
ag5
aS'id'
p3187
aS'in'
p3188
aS'integer'
p3189
aS'end'
p3190
aS'end'
p3191
aa(lp3192
S'let'
p3193
aS'type'
p3194
ag5
aS'id'
p3195
aS'in'
p3196
aS'let'
p3197
aS'type'
p3198
aS'id'
p3199
ag5
aS'id'
p3200
aS'in'
p3201
aS'integer'
p3202
ag862
aS'end'
p3203
aa(lp3204
g1062
aS'type'
p3205
aS'id'
p3206
ag5
aS'id'
p3207
aS'in'
p3208
aS'type'
p3209
aS'id'
p3210
ag5
aS'id'
p3211
aS'in'
p3212
aS'integer'
p3213
aS'end'
p3214
aS'end'
p3215
aa(lp3216
S'let'
p3217
aS'type'
p3218
ag5
aS'id'
p3219
aS'in'
p3220
aS'let'
p3221
aS'type'
p3222
aS'id'
p3223
ag5
aS'id'
p3224
ag318
aS'integer'
p3225
aS'end'
p3226
aS'end'
p3227
aa(lp3228
S'let'
p3229
aS'type'
p3230
ag1340
aS'id'
p3231
aS'in'
p3232
aS'let'
p3233
aS'type'
p3234
aS'id'
p3235
ag5
aS'id'
p3236
aS'in'
p3237
aS'integer'
p3238
aS'end'
p3239
aS'end'
p3240
aa(lp3241
S'let'
p3242
aS'type'
p3243
ag5
aS'array'
p3244
aS'of'
p3245
aS'id'
p3246
aS'type'
p3247
aS'id'
p3248
ag5
ag200
aS'id'
p3249
ag11
aS'id'
p3250
ag86
aS'id'
p3251
ag11
aS'id'
p3252
ag86
aS'id'
p3253
ag11
aS'id'
p3254
ag86
aS'id'
p3255
ag11
aS'id'
p3256
ag205
aS'type'
p3257
aS'id'
p3258
ag5
aS'array'
p3259
aS'of'
p3260
aS'id'
p3261
aS'type'
p3262
aS'id'
p3263
ag5
ag200
aS'id'
p3264
ag11
aS'id'
p3265
ag86
aS'id'
p3266
ag11
aS'id'
p3267
ag205
aS'type'
p3268
aS'id'
p3269
ag5
aS'array'
p3270
aS'of'
p3271
aS'id'
p3272
aS'var'
p3273
aS'id'
p3274
aS':='
p3275
aS'id'
p3276
ag12
aS'integer'
p3277
ag16
aS'of'
p3278
aS'integer'
p3279
aS'var'
p3280
aS'id'
p3281
aS':='
p3282
aS'id'
p3283
ag12
aS'integer'
p3284
ag16
aS'of'
p3285
aS'id'
p3286
ag200
aS'id'
p3287
ag5
aS'string'
p3288
ag86
aS'id'
p3289
ag5
aS'string'
p3290
ag86
aS'id'
p3291
ag5
aS'integer'
p3292
ag86
aS'id'
p3293
ag5
aS'integer'
p3294
ag205
aS'var'
p3295
aS'id'
p3296
ag11
aS'id'
p3297
aS':='
p3298
aS'id'
p3299
ag12
aS'integer'
p3300
ag16
aS'of'
p3301
aS'string'
p3302
aS'var'
p3303
aS'id'
p3304
ag384
aS'id'
p3305
ag200
aS'id'
p3306
ag5
aS'string'
p3307
ag86
aS'id'
p3308
ag5
aS'string'
p3309
ag86
aS'id'
p3310
ag5
aS'integer'
p3311
ag86
aS'id'
p3312
ag5
aS'integer'
p3313
ag205
aS'var'
p3314
aS'id'
p3315
aS':='
p3316
aS'id'
p3317
ag200
aS'id'
p3318
ag5
aS'string'
p3319
ag86
aS'id'
p3320
ag5
aS'id'
p3321
ag12
aS'integer'
p3322
ag16
aS'of'
p3323
aS'integer'
p3324
ag205
aS'in'
p3325
aS'id'
p3326
ag12
aS'integer'
p3327
ag16
aS':='
p3328
aS'integer'
p3329
ag221
aS'id'
p3330
ag12
aS'integer'
p3331
ag16
aS':='
p3332
aS'integer'
p3333
ag221
aS'id'
p3334
ag12
aS'integer'
p3335
ag16
ag217
aS'id'
p3336
aS':='
p3337
aS'string'
p3338
ag221
aS'id'
p3339
ag12
aS'integer'
p3340
ag16
ag217
aS'id'
p3341
aS':='
p3342
aS'integer'
p3343
ag221
aS'id'
p3344
ag12
aS'integer'
p3345
ag16
aS':='
p3346
aS'string'
p3347
ag221
aS'id'
p3348
ag217
aS'id'
p3349
aS':='
p3350
aS'string'
p3351
ag221
aS'id'
p3352
ag217
aS'id'
p3353
ag12
aS'integer'
p3354
ag16
aS':='
p3355
aS'integer'
p3356
ag221
aS'id'
p3357
ag217
aS'id'
p3358
ag12
aS'integer'
p3359
ag16
aS':='
p3360
aS'integer'
p3361
aS'end'
p3362
aa(lp3363
S'let'
p3364
aS'type'
p3365
ag5
aS'array'
p3366
aS'of'
p3367
aS'id'
p3368
aS'type'
p3369
aS'id'
p3370
ag5
ag200
aS'id'
p3371
ag11
aS'id'
p3372
ag86
aS'id'
p3373
ag11
aS'id'
p3374
ag86
aS'id'
p3375
ag11
aS'id'
p3376
ag86
aS'id'
p3377
ag11
aS'id'
p3378
ag205
aS'type'
p3379
aS'id'
p3380
ag5
aS'array'
p3381
aS'of'
p3382
aS'id'
p3383
aS'type'
p3384
aS'id'
p3385
ag5
ag200
aS'id'
p3386
ag11
aS'id'
p3387
ag86
aS'id'
p3388
ag11
aS'id'
p3389
ag205
aS'type'
p3390
aS'id'
p3391
ag5
aS'array'
p3392
aS'of'
p3393
aS'id'
p3394
aS'var'
p3395
aS'id'
p3396
aS':='
p3397
aS'id'
p3398
ag12
aS'integer'
p3399
ag16
aS'of'
p3400
aS'integer'
p3401
aS'var'
p3402
aS'id'
p3403
aS':='
p3404
aS'id'
p3405
ag12
aS'integer'
p3406
ag16
aS'of'
p3407
aS'id'
p3408
ag200
aS'id'
p3409
ag5
aS'string'
p3410
ag86
aS'id'
p3411
ag5
aS'string'
p3412
ag86
aS'id'
p3413
ag5
aS'integer'
p3414
ag86
aS'id'
p3415
ag5
aS'integer'
p3416
ag205
aS'var'
p3417
aS'id'
p3418
ag11
aS'id'
p3419
aS':='
p3420
aS'id'
p3421
ag12
aS'integer'
p3422
ag16
aS'of'
p3423
aS'string'
p3424
aS'var'
p3425
aS'id'
p3426
aS':='
p3427
aS'id'
p3428
ag200
aS'id'
p3429
ag5
aS'string'
p3430
ag86
aS'id'
p3431
ag5
aS'string'
p3432
ag86
aS'id'
p3433
ag5
aS'integer'
p3434
ag86
aS'id'
p3435
ag5
aS'integer'
p3436
ag205
aS'var'
p3437
aS'id'
p3438
aS':='
p3439
aS'id'
p3440
ag200
aS'id'
p3441
ag5
aS'string'
p3442
ag86
aS'id'
p3443
ag5
aS'id'
p3444
ag12
aS'integer'
p3445
ag16
aS'of'
p3446
aS'integer'
p3447
ag205
aS'in'
p3448
aS'id'
p3449
ag12
aS'integer'
p3450
ag16
aS':='
p3451
aS'integer'
p3452
ag221
aS'id'
p3453
ag12
aS'integer'
p3454
ag16
aS':='
p3455
aS'integer'
p3456
ag221
aS'id'
p3457
ag12
aS'integer'
p3458
ag16
ag217
aS'id'
p3459
aS':='
p3460
aS'string'
p3461
ag221
aS'id'
p3462
ag12
aS'integer'
p3463
ag16
ag217
aS'id'
p3464
aS':='
p3465
aS'integer'
p3466
ag221
aS'id'
p3467
ag12
aS'integer'
p3468
ag16
aS':='
p3469
aS'string'
p3470
ag221
aS'id'
p3471
ag217
aS'id'
p3472
aS':='
p3473
ag158
ag221
aS'id'
p3474
ag217
aS'id'
p3475
ag12
aS'integer'
p3476
ag16
aS':='
p3477
aS'integer'
p3478
ag221
aS'id'
p3479
ag217
aS'id'
p3480
ag12
aS'integer'
p3481
ag16
aS':='
p3482
aS'integer'
p3483
aS'end'
p3484
aa(lp3485
S'let'
p3486
aS'type'
p3487
ag5
aS'array'
p3488
aS'of'
p3489
aS'id'
p3490
aS'type'
p3491
aS'id'
p3492
ag5
ag200
aS'id'
p3493
ag11
aS'id'
p3494
ag86
aS'id'
p3495
ag11
aS'id'
p3496
ag86
aS'id'
p3497
ag11
aS'id'
p3498
ag86
aS'id'
p3499
ag11
aS'id'
p3500
ag205
aS'type'
p3501
aS'id'
p3502
ag5
aS'array'
p3503
aS'of'
p3504
aS'id'
p3505
aS'type'
p3506
aS'id'
p3507
ag5
ag200
aS'id'
p3508
ag11
aS'id'
p3509
ag86
aS'id'
p3510
ag11
aS'id'
p3511
ag205
aS'type'
p3512
aS'id'
p3513
ag5
aS'array'
p3514
aS'of'
p3515
aS'id'
p3516
aS'var'
p3517
ag963
aS':='
p3518
aS'id'
p3519
ag12
aS'integer'
p3520
ag16
aS'of'
p3521
aS'integer'
p3522
aS'var'
p3523
aS'id'
p3524
aS':='
p3525
aS'id'
p3526
ag12
aS'integer'
p3527
ag16
aS'of'
p3528
aS'id'
p3529
ag200
aS'id'
p3530
ag5
aS'string'
p3531
ag86
aS'id'
p3532
ag5
aS'string'
p3533
ag86
aS'id'
p3534
ag5
aS'integer'
p3535
ag86
aS'id'
p3536
ag5
aS'integer'
p3537
ag205
aS'var'
p3538
aS'id'
p3539
ag11
aS'id'
p3540
aS':='
p3541
aS'id'
p3542
ag12
aS'integer'
p3543
ag16
aS'of'
p3544
aS'string'
p3545
aS'var'
p3546
aS'id'
p3547
aS':='
p3548
aS'id'
p3549
ag200
aS'id'
p3550
ag5
aS'string'
p3551
ag86
aS'id'
p3552
ag5
aS'string'
p3553
ag86
aS'id'
p3554
ag5
aS'integer'
p3555
ag86
aS'id'
p3556
ag5
aS'integer'
p3557
ag205
aS'var'
p3558
aS'id'
p3559
aS':='
p3560
aS'id'
p3561
ag200
aS'id'
p3562
ag5
aS'string'
p3563
ag86
aS'id'
p3564
ag5
aS'id'
p3565
ag12
aS'integer'
p3566
ag16
aS'of'
p3567
aS'integer'
p3568
ag205
aS'in'
p3569
aS'id'
p3570
ag12
aS'integer'
p3571
ag16
aS':='
p3572
aS'integer'
p3573
ag221
aS'id'
p3574
ag12
aS'integer'
p3575
ag16
aS':='
p3576
aS'integer'
p3577
ag221
aS'id'
p3578
ag12
aS'integer'
p3579
ag16
ag217
aS'id'
p3580
aS':='
p3581
aS'string'
p3582
ag221
aS'id'
p3583
ag12
aS'integer'
p3584
ag16
ag217
aS'id'
p3585
aS':='
p3586
aS'integer'
p3587
ag221
aS'id'
p3588
ag12
aS'integer'
p3589
ag16
aS':='
p3590
aS'string'
p3591
ag221
aS'id'
p3592
ag217
aS'id'
p3593
aS':='
p3594
aS'string'
p3595
ag221
aS'id'
p3596
ag217
aS'id'
p3597
ag12
aS'integer'
p3598
ag16
aS':='
p3599
aS'integer'
p3600
ag221
aS'id'
p3601
ag217
aS'id'
p3602
ag12
aS'integer'
p3603
ag16
aS':='
p3604
aS'integer'
p3605
aS'end'
p3606
aa(lp3607
S'let'
p3608
aS'type'
p3609
aS'id'
p3610
ag5
aS'array'
p3611
aS'of'
p3612
aS'id'
p3613
aS'type'
p3614
aS'id'
p3615
ag5
ag200
aS'id'
p3616
ag11
aS'id'
p3617
ag86
aS'id'
p3618
ag11
aS'id'
p3619
ag86
aS'id'
p3620
ag11
aS'id'
p3621
ag86
aS'id'
p3622
ag11
aS'id'
p3623
aS'type'
p3624
aS'id'
p3625
ag5
aS'array'
p3626
aS'of'
p3627
aS'id'
p3628
aS'type'
p3629
aS'id'
p3630
ag5
ag200
aS'id'
p3631
ag11
aS'id'
p3632
ag86
aS'id'
p3633
ag11
aS'id'
p3634
ag205
aS'type'
p3635
aS'id'
p3636
ag5
aS'array'
p3637
aS'of'
p3638
aS'id'
p3639
aS'var'
p3640
aS'id'
p3641
aS':='
p3642
aS'id'
p3643
ag12
aS'integer'
p3644
ag16
aS'of'
p3645
aS'integer'
p3646
aS'var'
p3647
aS'id'
p3648
aS':='
p3649
aS'id'
p3650
ag12
aS'integer'
p3651
ag16
aS'of'
p3652
aS'id'
p3653
ag200
aS'id'
p3654
ag5
aS'string'
p3655
ag86
aS'id'
p3656
ag5
aS'string'
p3657
ag86
aS'id'
p3658
ag5
aS'integer'
p3659
ag86
aS'id'
p3660
ag5
aS'integer'
p3661
ag205
aS'var'
p3662
aS'id'
p3663
ag11
aS'id'
p3664
aS':='
p3665
aS'id'
p3666
ag12
aS'integer'
p3667
ag16
aS'of'
p3668
aS'string'
p3669
aS'var'
p3670
aS'id'
p3671
aS':='
p3672
aS'id'
p3673
ag200
aS'id'
p3674
ag5
aS'string'
p3675
ag86
aS'id'
p3676
ag5
aS'string'
p3677
ag86
aS'id'
p3678
ag5
aS'integer'
p3679
ag86
aS'id'
p3680
ag5
aS'integer'
p3681
ag205
aS'var'
p3682
aS'id'
p3683
aS':='
p3684
aS'id'
p3685
ag200
aS'id'
p3686
ag5
aS'string'
p3687
ag86
aS'id'
p3688
ag5
aS'id'
p3689
ag12
aS'integer'
p3690
ag16
aS'of'
p3691
aS'integer'
p3692
ag205
aS'in'
p3693
aS'id'
p3694
ag12
aS'integer'
p3695
ag16
aS':='
p3696
aS'integer'
p3697
ag221
aS'id'
p3698
ag12
aS'integer'
p3699
ag16
ag1211
aS'integer'
p3700
ag221
aS'id'
p3701
ag12
aS'integer'
p3702
ag16
ag217
aS'id'
p3703
aS':='
p3704
aS'string'
p3705
ag221
aS'id'
p3706
ag12
aS'integer'
p3707
ag16
ag217
aS'id'
p3708
aS':='
p3709
aS'integer'
p3710
ag221
aS'id'
p3711
ag12
aS'integer'
p3712
ag16
aS':='
p3713
aS'string'
p3714
ag221
aS'id'
p3715
ag217
aS'id'
p3716
aS':='
p3717
aS'string'
p3718
ag221
aS'id'
p3719
ag217
aS'id'
p3720
ag12
aS'integer'
p3721
ag16
aS':='
p3722
aS'integer'
p3723
ag221
aS'id'
p3724
ag217
aS'id'
p3725
ag12
aS'integer'
p3726
ag16
aS':='
p3727
aS'integer'
p3728
aS'end'
p3729
aa(lp3730
S'let'
p3731
aS'type'
p3732
aS'id'
p3733
ag5
aS'array'
p3734
aS'of'
p3735
aS'id'
p3736
aS'type'
p3737
aS'id'
p3738
ag5
ag200
aS'id'
p3739
ag11
aS'id'
p3740
ag86
aS'id'
p3741
ag11
aS'id'
p3742
ag86
aS'id'
p3743
ag11
aS'id'
p3744
ag86
aS'id'
p3745
ag11
aS'id'
p3746
ag205
aS'type'
p3747
aS'id'
p3748
ag5
aS'array'
p3749
aS'of'
p3750
aS'id'
p3751
aS'type'
p3752
aS'id'
p3753
ag5
ag200
aS'id'
p3754
ag11
aS'id'
p3755
ag86
aS'id'
p3756
ag11
aS'id'
p3757
ag205
aS'type'
p3758
aS'id'
p3759
ag5
aS'array'
p3760
aS'of'
p3761
aS'id'
p3762
aS'var'
p3763
aS'id'
p3764
aS':='
p3765
aS'id'
p3766
ag12
aS'of'
p3767
aS'integer'
p3768
aS'var'
p3769
aS'id'
p3770
aS':='
p3771
aS'id'
p3772
ag12
aS'integer'
p3773
ag16
aS'of'
p3774
aS'id'
p3775
ag200
aS'id'
p3776
ag5
aS'string'
p3777
ag86
aS'id'
p3778
ag5
aS'string'
p3779
ag86
aS'id'
p3780
ag5
aS'integer'
p3781
ag86
aS'id'
p3782
ag5
aS'integer'
p3783
ag205
aS'var'
p3784
aS'id'
p3785
ag11
aS'id'
p3786
aS':='
p3787
aS'id'
p3788
ag12
aS'integer'
p3789
ag16
aS'of'
p3790
aS'string'
p3791
aS'var'
p3792
aS'id'
p3793
aS':='
p3794
aS'id'
p3795
ag200
aS'id'
p3796
ag5
aS'string'
p3797
ag86
aS'id'
p3798
ag5
aS'string'
p3799
ag86
aS'id'
p3800
ag5
aS'integer'
p3801
ag86
aS'id'
p3802
ag5
aS'integer'
p3803
ag205
aS'var'
p3804
aS'id'
p3805
aS':='
p3806
aS'id'
p3807
ag200
aS'id'
p3808
ag5
aS'string'
p3809
ag86
aS'id'
p3810
ag5
aS'id'
p3811
ag12
aS'integer'
p3812
ag16
aS'of'
p3813
aS'integer'
p3814
ag205
aS'in'
p3815
aS'id'
p3816
ag12
aS'integer'
p3817
ag16
aS':='
p3818
aS'integer'
p3819
ag221
aS'id'
p3820
ag12
aS'integer'
p3821
ag16
aS':='
p3822
aS'integer'
p3823
ag221
aS'id'
p3824
ag12
aS'integer'
p3825
ag16
ag217
aS'id'
p3826
aS':='
p3827
aS'string'
p3828
ag221
aS'id'
p3829
ag12
aS'integer'
p3830
ag16
ag217
aS'id'
p3831
aS':='
p3832
aS'integer'
p3833
ag221
aS'id'
p3834
ag12
aS'integer'
p3835
ag16
aS':='
p3836
aS'string'
p3837
ag221
aS'id'
p3838
ag217
aS'id'
p3839
aS':='
p3840
aS'string'
p3841
ag221
aS'id'
p3842
ag217
aS'id'
p3843
ag12
aS'integer'
p3844
ag16
aS':='
p3845
aS'integer'
p3846
ag221
aS'id'
p3847
ag217
aS'id'
p3848
ag12
aS'integer'
p3849
ag16
aS':='
p3850
aS'integer'
p3851
aS'end'
p3852
aa(lp3853
S'let'
p3854
aS'var'
p3855
aS':='
p3856
ag318
ag21
aS'in'
p3857
ag195
aS'integer'
p3858
aS'end'
p3859
aa(lp3860
S'let'
p3861
aS'var'
p3862
aS'id'
p3863
ag21
aS'in'
p3864
aS'id'
p3865
ag195
aS'integer'
p3866
aS'end'
p3867
aa(lp3868
S'var'
p3869
aS'id'
p3870
aS':='
p3871
ag16
ag21
aS'in'
p3872
aS'id'
p3873
ag195
aS'integer'
p3874
aS'end'
p3875
aa(lp3876
g124
aS'id'
p3877
aS':='
p3878
ag318
ag21
aS'in'
p3879
aS'id'
p3880
ag195
aS'integer'
p3881
aS'end'
p3882
aa(lp3883
S'let'
p3884
aS'var'
p3885
aS'id'
p3886
aS':='
p3887
ag21
aS'id'
p3888
ag195
aS'integer'
p3889
aS'end'
p3890
aa(lp3891
S'type'
p3892
aS'id'
p3893
ag5
ag200
aS'id'
p3894
ag11
aS'id'
p3895
ag86
aS'id'
p3896
ag11
aS'id'
p3897
ag205
aS'var'
p3898
aS'id'
p3899
ag11
aS'id'
p3900
aS'nil'
p3901
aS'in'
p3902
aS'id'
p3903
aS':='
p3904
aS'nil'
p3905
aS'end'
p3906
aa(lp3907
g638
aS'type'
p3908
aS'id'
p3909
ag5
ag200
aS'id'
p3910
ag11
aS'id'
p3911
ag86
aS'id'
p3912
ag11
aS'id'
p3913
ag205
aS'id'
p3914
ag11
aS'id'
p3915
aS':='
p3916
aS'nil'
p3917
aS'in'
p3918
aS'id'
p3919
aS':='
p3920
aS'nil'
p3921
aS'end'
p3922
aa(lp3923
S'let'
p3924
aS'type'
p3925
aS'id'
p3926
ag5
ag200
aS'id'
p3927
ag11
ag831
ag905
aS'id'
p3928
ag11
aS'id'
p3929
ag205
aS'var'
p3930
aS'id'
p3931
ag11
aS'id'
p3932
aS':='
p3933
aS'nil'
p3934
aS'in'
p3935
aS'id'
p3936
aS':='
p3937
aS'nil'
p3938
aS'end'
p3939
aa(lp3940
S'let'
p3941
aS'type'
p3942
ag195
ag5
ag200
aS'id'
p3943
ag11
aS'id'
p3944
ag86
aS'id'
p3945
ag78
aS'id'
p3946
ag205
aS'var'
p3947
aS'id'
p3948
ag11
aS'id'
p3949
aS':='
p3950
aS'nil'
p3951
aS'in'
p3952
aS'id'
p3953
aS':='
p3954
aS'nil'
p3955
aS'end'
p3956
aa(lp3957
S'let'
p3958
aS'type'
p3959
aS'id'
p3960
ag5
ag200
aS'id'
p3961
ag11
aS'id'
p3962
ag86
aS'id'
p3963
ag11
aS'id'
p3964
ag205
aS'var'
p3965
ag124
ag11
aS'id'
p3966
aS':='
p3967
aS'nil'
p3968
aS'in'
p3969
aS'id'
p3970
aS':='
p3971
aS'nil'
p3972
aS'end'
p3973
aa(lp3974
S'let'
p3975
aS'type'
p3976
ag5
ag200
aS'id'
p3977
ag11
aS'id'
p3978
ag86
aS'id'
p3979
ag11
aS'id'
p3980
ag205
aS'var'
p3981
aS'id'
p3982
aS':='
p3983
aS'nil'
p3984
ag86
aS'id'
p3985
aS'end'
p3986
aa(lp3987
S'let'
p3988
ag459
ag5
ag200
aS'id'
p3989
ag11
aS'id'
p3990
ag86
aS'id'
p3991
ag11
aS'id'
p3992
ag205
aS'var'
p3993
aS'id'
p3994
aS':='
p3995
aS'nil'
p3996
aS'in'
p3997
aS'id'
p3998
aS'end'
p3999
aa(lp4000
S'let'
p4001
aS'type'
p4002
aS'id'
p4003
ag200
aS'id'
p4004
ag11
aS'id'
p4005
ag86
aS'id'
p4006
ag11
aS'id'
p4007
ag205
aS'var'
p4008
aS'id'
p4009
aS':='
p4010
ag16
aS'in'
p4011
aS'id'
p4012
aS'end'
p4013
aa(lp4014
S'let'
p4015
aS'type'
p4016
aS'id'
p4017
ag5
ag200
aS'id'
p4018
ag11
aS'id'
p4019
ag86
ag1211
ag11
aS'id'
p4020
ag205
aS'var'
p4021
aS'id'
p4022
aS':='
p4023
ag16
aS'in'
p4024
aS'id'
p4025
aS'end'
p4026
aa(lp4027
S'let'
p4028
aS'type'
p4029
aS'id'
p4030
ag5
ag200
aS'id'
p4031
ag11
aS'id'
p4032
ag86
aS'id'
p4033
ag11
aS'id'
p4034
ag205
aS'id'
p4035
aS':='
p4036
aS'nil'
p4037
aS'in'
p4038
aS'id'
p4039
aS'end'
p4040
aa(lp4041
S'let'
p4042
aS'type'
p4043
ag5
ag200
aS'id'
p4044
ag11
aS'id'
p4045
ag86
aS'id'
p4046
ag11
aS'id'
p4047
ag205
aS'var'
p4048
aS'id'
p4049
ag11
aS'id'
p4050
aS'nil'
p4051
aS'in'
p4052
aS'id'
p4053
ag5
aS'nil'
p4054
ag221
aS'id'
p4055
aS'<>'
p4056
aS'nil'
p4057
aS'end'
p4058
aa(lp4059
S'let'
p4060
aS'type'
p4061
aS'id'
p4062
ag5
ag200
aS'id'
p4063
ag11
aS'id'
p4064
ag86
aS'id'
p4065
ag11
aS'id'
p4066
ag205
aS'var'
p4067
ag647
ag11
aS'id'
p4068
aS':='
p4069
aS'nil'
p4070
aS'in'
p4071
aS'id'
p4072
ag5
aS'nil'
p4073
aS'id'
p4074
aS'<>'
p4075
aS'nil'
p4076
aS'end'
p4077
aa(lp4078
S'let'
p4079
aS'type'
p4080
aS'id'
p4081
ag5
ag200
aS'id'
p4082
ag11
aS'id'
p4083
aS'id'
p4084
ag11
aS'id'
p4085
ag205
aS'var'
p4086
aS'id'
p4087
ag11
aS'id'
p4088
aS':='
p4089
aS'nil'
p4090
aS'in'
p4091
aS'id'
p4092
ag822
aS'nil'
p4093
ag221
aS'id'
p4094
aS'<>'
p4095
aS'nil'
p4096
aS'end'
p4097
aa(lp4098
S'let'
p4099
aS'type'
p4100
aS'id'
p4101
ag5
ag53
aS'id'
p4102
ag11
aS'id'
p4103
ag86
aS'id'
p4104
ag11
aS'id'
p4105
ag205
aS'var'
p4106
aS'id'
p4107
ag11
aS'id'
p4108
aS':='
p4109
aS'nil'
p4110
aS'in'
p4111
aS'id'
p4112
ag1211
aS'nil'
p4113
ag221
aS'id'
p4114
aS'<>'
p4115
aS'nil'
p4116
aS'end'
p4117
aa(lp4118
S'let'
p4119
aS'type'
p4120
aS'id'
p4121
ag5
ag200
aS'id'
p4122
ag11
aS'id'
p4123
ag86
aS'id'
p4124
ag11
aS'id'
p4125
ag205
aS'var'
p4126
aS'id'
p4127
ag11
aS'id'
p4128
aS':='
p4129
aS'nil'
p4130
aS'in'
p4131
ag487
ag5
aS'nil'
p4132
ag221
aS'id'
p4133
aS'nil'
p4134
aS'end'
p4135
aa(lp4136
S'let'
p4137
aS'type'
p4138
ag5
aS'id'
p4139
aS'var'
p4140
aS'id'
p4141
aS':='
p4142
aS'integer'
p4143
aS'type'
p4144
aS'id'
p4145
ag5
aS'id'
p4146
aS'in'
p4147
aS'integer'
p4148
aS'end'
p4149
aa(lp4150
S'let'
p4151
aS'type'
p4152
aS'id'
p4153
ag5
aS'id'
p4154
aS'var'
p4155
aS'id'
p4156
aS':='
p4157
aS'type'
p4158
aS'id'
p4159
ag5
aS'id'
p4160
ag1761
aS'integer'
p4161
aS'end'
p4162
aa(lp4163
S'let'
p4164
aS'type'
p4165
aS'id'
p4166
aS'id'
p4167
aS'id'
p4168
aS':='
p4169
aS'integer'
p4170
aS'type'
p4171
aS'id'
p4172
ag5
aS'id'
p4173
aS'in'
p4174
aS'integer'
p4175
aS'end'
p4176
aa(lp4177
S'let'
p4178
aS'type'
p4179
aS'id'
p4180
ag5
ag862
ag318
aS'id'
p4181
aS':='
p4182
aS'integer'
p4183
aS'type'
p4184
aS'id'
p4185
ag5
aS'id'
p4186
aS'in'
p4187
aS'integer'
p4188
aS'end'
p4189
aa(lp4190
S'let'
p4191
aS'type'
p4192
aS'id'
p4193
ag5
aS'id'
p4194
aS'var'
p4195
aS'id'
p4196
ag124
aS'integer'
p4197
aS'type'
p4198
ag329
ag5
aS'id'
p4199
aS'in'
p4200
aS'integer'
p4201
aS'end'
p4202
aa(lp4203
S'let'
p4204
aS'function'
p4205
ag318
aS'id'
p4206
ag11
aS'id'
p4207
ag21
ag11
aS'id'
p4208
ag5
aS'id'
p4209
aS'type'
p4210
ag384
ag5
aS'id'
p4211
aS'function'
p4212
aS'id'
p4213
ag318
aS'id'
p4214
ag11
aS'id'
p4215
ag21
ag11
aS'id'
p4216
ag5
aS'id'
p4217
aS'in'
p4218
aS'integer'
p4219
aS'end'
p4220
aa(lp4221
S'function'
p4222
aS'id'
p4223
ag318
aS'id'
p4224
ag11
aS'id'
p4225
ag21
ag11
aS'id'
p4226
ag5
aS'id'
p4227
aS'type'
p4228
aS'id'
p4229
ag5
aS'id'
p4230
aS'function'
p4231
ag131
ag318
aS'id'
p4232
ag11
aS'id'
p4233
ag21
ag11
aS'id'
p4234
ag5
aS'id'
p4235
aS'in'
p4236
aS'integer'
p4237
aS'end'
p4238
aa(lp4239
S'let'
p4240
aS'function'
p4241
ag318
aS'id'
p4242
ag11
aS'id'
p4243
ag21
ag11
aS'id'
p4244
ag5
aS'id'
p4245
aS'type'
p4246
aS'id'
p4247
ag5
aS'id'
p4248
ag353
aS'id'
p4249
ag318
aS'id'
p4250
ag11
aS'id'
p4251
ag21
ag11
aS'id'
p4252
ag5
aS'id'
p4253
aS'in'
p4254
aS'integer'
p4255
aS'end'
p4256
aa(lp4257
S'let'
p4258
aS'function'
p4259
aS'id'
p4260
ag318
aS'id'
p4261
ag11
aS'id'
p4262
ag21
ag11
aS'id'
p4263
ag5
aS'id'
p4264
aS'type'
p4265
ag231
ag5
aS'id'
p4266
aS'function'
p4267
aS'id'
p4268
ag318
aS'id'
p4269
ag131
aS'id'
p4270
ag21
ag11
aS'id'
p4271
ag5
aS'id'
p4272
aS'in'
p4273
aS'integer'
p4274
aS'end'
p4275
aa(lp4276
S'let'
p4277
aS'function'
p4278
ag318
ag11
aS'id'
p4279
ag21
ag11
aS'id'
p4280
ag5
aS'id'
p4281
aS'type'
p4282
aS'id'
p4283
ag5
aS'id'
p4284
aS'function'
p4285
aS'id'
p4286
ag318
aS'id'
p4287
ag11
aS'id'
p4288
ag21
ag11
aS'id'
p4289
ag5
aS'id'
p4290
aS'in'
p4291
aS'integer'
p4292
aS'end'
p4293
aa(lp4294
S'let'
p4295
aS'type'
p4296
ag5
ag200
aS'id'
p4297
ag11
aS'id'
p4298
ag86
aS'id'
p4299
ag11
aS'id'
p4300
ag205
aS'var'
p4301
aS'id'
p4302
aS':='
p4303
aS'id'
p4304
aS'nil'
p4305
aS'in'
p4306
aS'id'
p4307
aa(lp4308
g1079
aS'id'
p4309
ag5
ag200
aS'id'
p4310
ag11
aS'id'
p4311
ag86
aS'id'
p4312
ag11
aS'id'
p4313
ag205
aS'var'
p4314
aS'id'
p4315
aS':='
p4316
aS'id'
p4317
aS'nil'
p4318
aS'in'
p4319
aS'id'
p4320
aS'end'
p4321
aa(lp4322
S'let'
p4323
ag1816
aS'id'
p4324
ag5
ag200
aS'id'
p4325
ag11
aS'id'
p4326
ag86
aS'id'
p4327
ag11
aS'id'
p4328
ag205
aS'var'
p4329
aS'id'
p4330
aS':='
p4331
aS'id'
p4332
aS'in'
p4333
aS'id'
p4334
aS'end'
p4335
aa(lp4336
S'let'
p4337
aS'type'
p4338
aS'id'
p4339
ag200
aS'id'
p4340
ag11
aS'id'
p4341
ag86
aS'id'
p4342
ag11
aS'id'
p4343
ag205
aS'var'
p4344
aS'id'
p4345
aS':='
p4346
aS'id'
p4347
aS'nil'
p4348
aS'id'
p4349
aS'end'
p4350
aa(lp4351
S'let'
p4352
aS'type'
p4353
aS'id'
p4354
ag5
ag200
ag1340
ag11
aS'id'
p4355
ag384
aS'id'
p4356
ag11
aS'id'
p4357
ag205
aS'var'
p4358
aS'id'
p4359
aS':='
p4360
aS'id'
p4361
aS'nil'
p4362
aS'in'
p4363
aS'id'
p4364
aS'end'
p4365
aa.