(lp0
(lp1
I12
aa(lp2
I12
aa(lp3
I17
aa(lp4
I14
aa(lp5
I8
aa(lp6
I5
aa(lp7
I19
aa(lp8
I3
aa(lp9
I4
aa(lp10
I1
aa(lp11
I9
aa(lp12
I22
aa(lp13
I12
aa(lp14
I27
aa(lp15
I33
aa(lp16
I15
aa(lp17
I1
aa(lp18
I3
aa(lp19
I18
aa(lp20
I13
aa(lp21
I14
aa(lp22
I2
aa(lp23
I7
aa(lp24
I48
aa(lp25
I32
aa(lp26
I3
aa(lp27
I4
aa(lp28
I28
aa(lp29
I7
aa(lp30
I5
aa(lp31
I3
aa(lp32
I49
aa(lp33
I48
aa(lp34
I29
aa(lp35
I28
aa(lp36
I4
aa(lp37
I5
aa(lp38
I6
aa(lp39
I1
aa(lp40
I1
aa(lp41
I2
aa(lp42
I6
aa(lp43
I5
aa(lp44
I2
aa(lp45
I6
aa(lp46
I2
aa(lp47
I4
aa(lp48
I4
aa(lp49
I3
aa(lp50
I6
aa(lp51
I6
aa(lp52
I1
aa(lp53
I6
aa(lp54
I1
aa(lp55
I7
aa(lp56
I11
aa(lp57
I17
aa(lp58
I11
aa(lp59
I8
aa(lp60
I15
aa(lp61
I18
aa(lp62
I7
aa(lp63
I10
aa(lp64
I5
aa(lp65
I37
aa(lp66
I5
aa(lp67
I1
aa(lp68
I8
aa(lp69
I11
aa(lp70
I10
aa(lp71
I18
aa(lp72
I28
aa(lp73
I10
aa(lp74
I2
aa(lp75
I6
aa(lp76
I14
aa(lp77
I34
aa(lp78
I24
aa(lp79
I3
aa(lp80
I4
aa(lp81
I23
aa(lp82
I44
aa(lp83
I29
aa(lp84
I35
aa(lp85
I29
aa(lp86
I1
aa(lp87
I5
aa(lp88
I7
aa(lp89
I1
aa(lp90
I9
aa(lp91
I23
aa(lp92
I13
aa(lp93
I11
aa(lp94
I3
aa(lp95
I13
aa(lp96
I22
aa(lp97
I16
aa(lp98
I23
aa(lp99
I21
aa(lp100
I23
aa(lp101
I28
aa(lp102
I9
aa(lp103
I29
aa(lp104
I33
aa(lp105
I34
aa(lp106
I6
aa(lp107
I4
aa(lp108
I2
aa(lp109
I5
aa(lp110
I7
aa(lp111
I4
aa(lp112
I2
aa(lp113
I1
aa(lp114
I2
aa(lp115
I4
aa(lp116
I18
aa(lp117
I13
aa(lp118
I12
aa(lp119
I9
aa(lp120
I17
aa(lp121
I35
aa(lp122
I23
aa(lp123
I1
aa(lp124
I14
aa(lp125
I37
aa(lp126
I7
aa(lp127
I15
aa(lp128
I13
aa(lp129
I15
aa(lp130
I19
aa(lp131
I7
aa(lp132
I17
aa(lp133
I9
aa(lp134
I10
aa(lp135
I4
aa(lp136
I3
aa(lp137
I6
aa(lp138
I1
aa(lp139
I5
aa(lp140
I3
aa(lp141
I5
aa(lp142
I15
aa(lp143
I13
aa(lp144
I11
aa(lp145
I14
aa(lp146
I6
aa(lp147
I1
aa(lp148
I4
aa(lp149
I2
aa(lp150
I2
aa(lp151
I11
aa(lp152
I10
aa(lp153
I16
aa(lp154
I10
aa(lp155
I18
aa(lp156
I18
aa(lp157
I11
aa(lp158
I12
aa(lp159
I7
aa(lp160
I13
aa(lp161
I14
aa(lp162
I22
aa(lp163
I4
aa(lp164
I18
aa(lp165
I22
aa(lp166
I6
aa(lp167
I5
aa(lp168
I8
aa(lp169
I2
aa(lp170
I2
aa(lp171
I6
aa(lp172
I4
aa(lp173
I4
aa(lp174
I4
aa(lp175
I2
aa(lp176
I5
aa(lp177
I13
aa(lp178
I6
aa(lp179
I3
aa(lp180
I8
aa(lp181
I2
aa(lp182
I10
aa(lp183
I2
aa(lp184
I12
aa(lp185
I12
aa(lp186
I5
aa(lp187
I4
aa(lp188
I2
aa(lp189
I4
aa(lp190
I5
aa(lp191
I190
aa(lp192
I25
aa(lp193
I17
aa(lp194
I135
aa(lp195
I49
aa(lp196
I2
aa(lp197
I5
aa(lp198
I2
aa(lp199
I3
aa(lp200
I4
aa(lp201
I8
aa(lp202
I16
aa(lp203
I15
aa(lp204
I15
aa(lp205
I3
aa(lp206
I16
aa(lp207
I4
aa(lp208
I6
aa(lp209
I16
aa(lp210
I12
aa(lp211
I22
aa(lp212
I22
aa(lp213
I7
aa(lp214
I20
aa(lp215
I8
aa(lp216
I4
aa(lp217
I10
aa(lp218
I4
aa(lp219
I5
aa(lp220
I6
aa(lp221
I7
aa(lp222
I5
aa(lp223
I3
aa(lp224
I24
aa(lp225
I22
aa(lp226
I7
aa(lp227
I17
aa(lp228
I1
aa(lp229
I8
aa(lp230
I15
aa.