(lp0
(lp1
S'let'
p2
aS'type'
p3
aS'id'
p4
aS'='
p5
aS'array'
p6
aS'of'
p7
aS'id'
p8
aS'var'
p9
aS'id'
p10
aS':'
p11
aS'id'
p12
aS':='
p13
aS'id'
p14
aS'else'
p15
aS'['
p16
aS'integer'
p17
aS']'
p18
aS'of'
p19
aS'integer'
p20
aS'in'
p21
aS'id'
p22
aS'end'
p23
aa(lp24
S'let'
p25
aS'type'
p26
aS'id'
p27
ag5
aS'array'
p28
aS'of'
p29
aS'id'
p30
aS'var'
p31
aS'id'
p32
ag11
aS'id'
p33
aS':='
p34
aS'id'
p35
aS'{'
p36
ag16
aS'integer'
p37
ag18
aS'of'
p38
aS'integer'
p39
aS'in'
p40
aS'id'
p41
aS'end'
p42
aa(lp43
S'let'
p44
aS'type'
p45
aS'id'
p46
ag5
aS'array'
p47
aS'of'
p48
aS'id'
p49
aS'var'
p50
aS'id'
p51
ag11
aS'id'
p52
aS':='
p53
aS'id'
p54
ag16
aS'integer'
p55
ag18
aS'of'
p56
aS'integer'
p57
aS'!='
p58
aS'in'
p59
aS'id'
p60
aS'end'
p61
aa(lp62
S'let'
p63
aS'type'
p64
aS'id'
p65
ag5
aS'array'
p66
aS'of'
p67
aS'id'
p68
aS'var'
p69
aS'id'
p70
ag11
aS'id'
p71
aS':='
p72
aS'id'
p73
ag16
aS'integer'
p74
aS'end'
p75
ag18
aS'of'
p76
aS'integer'
p77
aS'in'
p78
aS'id'
p79
aS'end'
p80
aa(lp81
S'let'
p82
aS'type'
p83
aS'id'
p84
ag5
aS'array'
p85
aS'of'
p86
aS'id'
p87
aS'var'
p88
aS'id'
p89
aS'.'
p90
ag11
aS'id'
p91
aS':='
p92
aS'id'
p93
ag16
aS'integer'
p94
ag18
aS'of'
p95
aS'integer'
p96
aS'in'
p97
aS'id'
p98
aS'end'
p99
aa(lp100
S'let'
p101
aS'type'
p102
aS'id'
p103
ag5
aS'id'
p104
aS'type'
p105
aS'nil'
p106
aS'id'
p107
ag5
aS'array'
p108
aS'of'
p109
aS'id'
p110
aS'var'
p111
aS'id'
p112
ag11
aS'id'
p113
aS':='
p114
aS'id'
p115
ag16
aS'integer'
p116
ag18
aS'of'
p117
aS'integer'
p118
aS'in'
p119
aS'id'
p120
aS'end'
p121
aa(lp122
S'let'
p123
aS'type'
p124
aS'id'
p125
ag5
aS'id'
p126
aS'type'
p127
aS'id'
p128
ag5
aS'array'
p129
aS'of'
p130
aS'id'
p131
aS'var'
p132
aS'id'
p133
ag11
aS'id'
p134
aS':='
p135
aS'id'
p136
ag16
aS'integer'
p137
ag18
aS'of'
p138
aS'of'
p139
aS'integer'
p140
aS'in'
p141
aS'id'
p142
aS'end'
p143
aa(lp144
S'let'
p145
aS'type'
p146
aS'id'
p147
ag5
aS'break'
p148
aS'id'
p149
aS'type'
p150
aS'id'
p151
ag5
aS'array'
p152
aS'of'
p153
aS'id'
p154
aS'var'
p155
aS'id'
p156
ag11
aS'id'
p157
aS':='
p158
aS'id'
p159
ag16
aS'integer'
p160
ag18
aS'of'
p161
aS'integer'
p162
aS'in'
p163
aS'id'
p164
aS'end'
p165
aa(lp166
S'let'
p167
aS'type'
p168
aS'id'
p169
ag5
aS'id'
p170
ag106
aS'type'
p171
aS'id'
p172
ag5
aS'array'
p173
aS'of'
p174
aS'id'
p175
aS'var'
p176
aS'id'
p177
ag11
aS'id'
p178
aS':='
p179
aS'id'
p180
ag16
aS'integer'
p181
ag18
aS'of'
p182
aS'integer'
p183
aS'in'
p184
aS'id'
p185
aS'end'
p186
aa(lp187
S'let'
p188
aS'type'
p189
ag36
aS'id'
p190
ag5
aS'id'
p191
aS'type'
p192
aS'id'
p193
ag5
aS'array'
p194
aS'of'
p195
aS'id'
p196
aS'var'
p197
aS'id'
p198
ag11
aS'id'
p199
aS':='
p200
aS'id'
p201
ag16
aS'integer'
p202
ag18
aS'of'
p203
aS'integer'
p204
aS'in'
p205
aS'id'
p206
aS'end'
p207
aa(lp208
S'let'
p209
aS'type'
p210
aS'id'
p211
ag5
ag36
aS'id'
p212
ag11
aS'id'
p213
aS','
p214
aS'id'
p215
aS'integer'
p216
ag11
aS'id'
p217
aS'}'
p218
aS'var'
p219
aS'id'
p220
ag11
aS'id'
p221
aS':='
p222
aS'id'
p223
ag36
aS'id'
p224
ag5
aS'string'
p225
ag214
aS'id'
p226
ag5
aS'integer'
p227
ag218
aS'in'
p228
aS'id'
p229
ag90
aS'id'
p230
aS':='
p231
aS'string'
p232
aS';'
p233
aS'id'
p234
aS'end'
p235
aa(lp236
S'let'
p237
aS'type'
p238
aS'id'
p239
ag5
ag36
aS'id'
p240
ag11
aS'id'
p241
ag214
aS'id'
p242
ag11
aS'id'
p243
ag218
aS'var'
p244
aS'id'
p245
ag11
aS'id'
p246
aS':='
p247
aS'id'
p248
ag36
aS'id'
p249
ag5
aS'string'
p250
aS':='
p251
ag214
aS'id'
p252
ag5
aS'integer'
p253
ag218
aS'in'
p254
aS'id'
p255
ag90
aS'id'
p256
aS':='
p257
aS'string'
p258
ag233
aS'id'
p259
aS'end'
p260
aa(lp261
S'let'
p262
aS'type'
p263
aS'id'
p264
ag5
ag36
aS'id'
p265
ag11
aS'id'
p266
ag214
aS'id'
p267
ag11
aS'id'
p268
ag218
ag251
aS'var'
p269
aS'id'
p270
ag11
aS'id'
p271
aS':='
p272
aS'id'
p273
ag36
aS'id'
p274
ag5
aS'string'
p275
ag214
aS'id'
p276
ag5
aS'integer'
p277
ag218
aS'in'
p278
aS'id'
p279
ag90
aS'id'
p280
aS':='
p281
aS'string'
p282
ag233
aS'id'
p283
aS'end'
p284
aa(lp285
S'let'
p286
aS'type'
p287
aS'id'
p288
ag5
ag36
aS'id'
p289
ag11
aS'id'
p290
ag214
aS'id'
p291
ag11
aS'id'
p292
ag218
aS'var'
p293
aS'id'
p294
ag11
aS'id'
p295
aS':='
p296
aS'id'
p297
ag36
aS'id'
p298
ag5
aS'string'
p299
ag214
aS'id'
p300
ag5
aS'integer'
p301
ag218
ag214
aS'in'
p302
aS'id'
p303
ag90
aS'id'
p304
aS':='
p305
aS'string'
p306
ag233
aS'id'
p307
aS'end'
p308
aa(lp309
S'let'
p310
aS'type'
p311
aS'id'
p312
ag5
ag36
aS'id'
p313
ag11
aS'id'
p314
ag214
aS'id'
p315
ag11
aS'id'
p316
ag218
aS'var'
p317
aS'id'
p318
ag11
aS'id'
p319
aS':='
p320
aS'id'
p321
ag36
aS'id'
p322
ag5
aS'string'
p323
ag214
aS'id'
p324
ag5
aS'integer'
p325
ag218
aS'in'
p326
aS'id'
p327
ag90
aS'id'
p328
aS':='
p329
aS'string'
p330
ag75
ag233
aS'id'
p331
aS'end'
p332
aa(lp333
S'let'
p334
aS'function'
p335
aS'id'
p336
aS'('
p337
aS'id'
p338
ag11
aS'id'
p339
aS')'
p340
ag11
aS'id'
p341
ag5
aS'if'
p342
aS'id'
p343
ag5
aS'integer'
p344
aS'then'
p345
ag106
aS'integer'
p346
aS'else'
p347
aS'id'
p348
aS'*'
p349
aS'id'
p350
ag337
aS'id'
p351
aS'-'
p352
aS'integer'
p353
ag340
aS'in'
p354
aS'id'
p355
ag337
aS'integer'
p356
ag340
aS'end'
p357
aa(lp358
S'let'
p359
aS'function'
p360
ag216
aS'id'
p361
ag337
aS'id'
p362
ag11
aS'id'
p363
ag340
ag11
aS'id'
p364
ag5
aS'if'
p365
aS'id'
p366
ag5
aS'integer'
p367
aS'then'
p368
aS'integer'
p369
aS'else'
p370
aS'id'
p371
ag349
aS'id'
p372
ag337
aS'id'
p373
ag352
aS'integer'
p374
ag340
aS'in'
p375
aS'id'
p376
ag337
aS'integer'
p377
ag340
aS'end'
p378
aa(lp379
S'let'
p380
aS'function'
p381
aS'id'
p382
ag337
aS'for'
p383
aS'id'
p384
ag11
aS'id'
p385
ag340
ag11
aS'id'
p386
ag5
aS'if'
p387
aS'id'
p388
ag5
aS'integer'
p389
aS'then'
p390
aS'integer'
p391
aS'else'
p392
aS'id'
p393
ag349
aS'id'
p394
ag337
aS'id'
p395
ag352
aS'integer'
p396
ag340
aS'in'
p397
aS'id'
p398
ag337
aS'integer'
p399
ag340
aS'end'
p400
aa(lp401
S'let'
p402
aS'function'
p403
aS'id'
p404
ag337
aS'id'
p405
ag11
aS'id'
p406
ag340
ag11
aS'id'
p407
ag5
aS'if'
p408
aS'id'
p409
ag5
aS'integer'
p410
aS'then'
p411
aS'integer'
p412
aS'else'
p413
aS'id'
p414
ag349
ag349
aS'id'
p415
ag337
aS'id'
p416
ag352
aS'integer'
p417
ag340
aS'in'
p418
aS'id'
p419
ag337
aS'integer'
p420
ag340
aS'end'
p421
aa(lp422
S'let'
p423
aS'function'
p424
aS'id'
p425
ag337
aS'id'
p426
ag11
aS'id'
p427
ag340
ag11
aS'id'
p428
ag5
aS'if'
p429
aS'id'
p430
ag5
aS'>='
p431
aS'integer'
p432
aS'then'
p433
aS'integer'
p434
aS'else'
p435
aS'id'
p436
ag349
aS'id'
p437
ag337
aS'id'
p438
ag352
aS'integer'
p439
ag340
aS'in'
p440
aS'id'
p441
ag337
aS'integer'
p442
ag340
aS'end'
p443
aa(lp444
S'let'
p445
aS'type'
p446
aS'id'
p447
ag5
ag36
aS'id'
p448
ag11
aS'id'
p449
ag214
aS'id'
p450
ag11
aS'id'
p451
ag218
aS'type'
p452
aS'id'
p453
aS'if'
p454
ag5
ag36
aS'id'
p455
ag11
aS'id'
p456
ag214
aS'id'
p457
ag11
aS'id'
p458
ag218
aS'type'
p459
aS'id'
p460
ag5
ag36
aS'id'
p461
ag11
aS'id'
p462
ag214
aS'id'
p463
ag11
aS'id'
p464
ag218
aS'var'
p465
aS'id'
p466
ag11
aS'id'
p467
aS':='
p468
aS'id'
p469
ag36
aS'id'
p470
ag5
aS'integer'
p471
ag214
aS'id'
p472
ag5
aS'nil'
p473
ag218
aS'in'
p474
aS'id'
p475
aS'end'
p476
aa(lp477
S'let'
p478
aS'type'
p479
aS'id'
p480
ag349
ag5
ag36
aS'id'
p481
ag11
aS'id'
p482
ag214
aS'id'
p483
ag11
aS'id'
p484
ag218
aS'type'
p485
aS'id'
p486
ag5
ag36
aS'id'
p487
ag11
aS'id'
p488
ag214
aS'id'
p489
ag11
aS'id'
p490
ag218
aS'type'
p491
aS'id'
p492
ag5
ag36
aS'id'
p493
ag11
aS'id'
p494
ag214
aS'id'
p495
ag11
aS'id'
p496
ag218
aS'var'
p497
aS'id'
p498
ag11
aS'id'
p499
aS':='
p500
aS'id'
p501
ag36
aS'id'
p502
ag5
aS'integer'
p503
ag214
aS'id'
p504
ag5
aS'nil'
p505
ag218
aS'in'
p506
aS'id'
p507
aS'end'
p508
aa(lp509
S'let'
p510
aS'type'
p511
aS'id'
p512
ag5
ag36
aS'id'
p513
ag11
aS'id'
p514
ag337
ag214
aS'id'
p515
ag11
aS'id'
p516
ag218
aS'type'
p517
aS'id'
p518
ag5
ag36
aS'id'
p519
ag11
aS'id'
p520
ag214
aS'id'
p521
ag11
aS'id'
p522
ag218
aS'type'
p523
aS'id'
p524
ag5
ag36
aS'id'
p525
ag11
aS'id'
p526
ag214
aS'id'
p527
ag11
aS'id'
p528
ag218
aS'var'
p529
aS'id'
p530
ag11
aS'id'
p531
aS':='
p532
aS'id'
p533
ag36
aS'id'
p534
ag5
aS'integer'
p535
ag214
aS'id'
p536
ag5
aS'nil'
p537
ag218
aS'in'
p538
aS'id'
p539
aS'end'
p540
aa(lp541
S'let'
p542
aS'type'
p543
aS'id'
p544
ag5
ag36
aS'id'
p545
ag11
aS'id'
p546
ag214
aS'id'
p547
ag11
aS'id'
p548
ag218
aS'type'
p549
aS'id'
p550
ag5
ag36
aS'id'
p551
ag11
aS'id'
p552
ag214
aS'id'
p553
ag11
aS'id'
p554
ag218
aS'type'
p555
aS'id'
p556
ag5
ag36
aS'id'
p557
ag11
aS'id'
p558
ag214
aS'id'
p559
ag11
aS'id'
p560
ag218
aS'var'
p561
aS'id'
p562
ag11
aS'id'
p563
aS':='
p564
aS'id'
p565
ag36
aS'id'
p566
ag5
aS'integer'
p567
ag214
aS'id'
p568
aS'string'
p569
ag5
aS'nil'
p570
ag218
aS'in'
p571
aS'id'
p572
aS'end'
p573
aa(lp574
S'let'
p575
aS'type'
p576
aS'id'
p577
ag5
ag36
aS'id'
p578
ag11
aS'id'
p579
ag214
aS'id'
p580
ag11
aS'id'
p581
ag218
aS'type'
p582
aS'id'
p583
ag5
ag36
aS'id'
p584
ag11
aS'id'
p585
ag214
aS'id'
p586
ag11
aS'id'
p587
ag218
aS'type'
p588
aS'id'
p589
ag5
ag36
aS'id'
p590
ag11
aS'id'
p591
ag214
ag106
aS'id'
p592
ag11
aS'id'
p593
ag218
aS'var'
p594
aS'id'
p595
ag11
aS'id'
p596
aS':='
p597
aS'id'
p598
ag36
aS'id'
p599
ag5
aS'integer'
p600
ag214
aS'id'
p601
ag5
aS'nil'
p602
ag218
aS'in'
p603
aS'id'
p604
aS'end'
p605
aa(lp606
S'let'
p607
aS'function'
p608
aS'id'
p609
ag337
aS'then'
p610
aS'id'
p611
ag11
aS'id'
p612
ag214
aS'id'
p613
ag11
aS'id'
p614
ag340
ag5
aS'id'
p615
ag337
aS'id'
p616
aS'+'
p617
aS'integer'
p618
ag340
aS'function'
p619
aS'id'
p620
ag337
aS'id'
p621
ag11
aS'id'
p622
ag340
ag5
aS'id'
p623
ag337
aS'id'
p624
ag214
aS'string'
p625
ag340
aS'in'
p626
aS'id'
p627
ag337
aS'integer'
p628
ag214
aS'string'
p629
ag340
aS'end'
p630
aa(lp631
S'let'
p632
aS'function'
p633
aS'id'
p634
ag337
aS'id'
p635
ag11
ag11
aS'id'
p636
ag214
aS'id'
p637
ag11
aS'id'
p638
ag340
ag5
aS'id'
p639
ag337
aS'id'
p640
ag617
aS'integer'
p641
ag340
aS'function'
p642
aS'id'
p643
ag337
aS'id'
p644
ag11
aS'id'
p645
ag340
ag5
aS'id'
p646
ag337
aS'id'
p647
ag214
aS'string'
p648
ag340
aS'in'
p649
aS'id'
p650
ag337
aS'integer'
p651
ag214
aS'string'
p652
ag340
aS'end'
p653
aa(lp654
S'let'
p655
aS'function'
p656
aS'id'
p657
ag337
aS'id'
p658
ag11
aS'id'
p659
ag214
aS'id'
p660
ag11
aS'id'
p661
ag340
ag5
aS'id'
p662
ag337
aS'id'
p663
ag617
aS'integer'
p664
ag340
aS'function'
p665
aS'id'
p666
ag337
aS'id'
p667
ag11
aS'id'
p668
ag340
ag5
aS'id'
p669
ag337
aS'/'
p670
aS'id'
p671
ag214
aS'string'
p672
ag340
aS'in'
p673
aS'id'
p674
ag337
aS'integer'
p675
ag214
aS'string'
p676
ag340
aS'end'
p677
aa(lp678
S'let'
p679
aS'function'
p680
aS'id'
p681
ag337
aS'id'
p682
ag11
aS'id'
p683
ag214
ag569
aS'id'
p684
ag11
aS'id'
p685
ag340
ag5
aS'id'
p686
ag337
aS'id'
p687
ag617
aS'integer'
p688
ag340
aS'function'
p689
aS'id'
p690
ag337
aS'id'
p691
ag11
aS'id'
p692
ag340
ag5
aS'id'
p693
ag337
aS'id'
p694
ag214
aS'string'
p695
ag340
aS'in'
p696
aS'id'
p697
ag337
aS'integer'
p698
ag214
aS'string'
p699
ag340
aS'end'
p700
aa(lp701
S'let'
p702
aS'function'
p703
aS'id'
p704
ag337
aS'id'
p705
ag11
aS'let'
p706
aS'id'
p707
ag214
aS'id'
p708
ag11
aS'id'
p709
ag340
ag5
aS'id'
p710
ag337
aS'id'
p711
ag617
aS'integer'
p712
ag340
aS'function'
p713
aS'id'
p714
ag337
aS'id'
p715
ag11
aS'id'
p716
ag340
ag5
aS'id'
p717
ag337
aS'id'
p718
ag214
aS'string'
p719
ag340
aS'in'
p720
aS'id'
p721
ag337
aS'integer'
p722
ag214
aS'string'
p723
ag340
aS'end'
p724
aa(lp725
S'let'
p726
aS'function'
p727
aS'id'
p728
ag337
ag5
aS'id'
p729
ag11
aS'id'
p730
ag214
aS'id'
p731
ag11
aS'id'
p732
ag340
ag11
aS'id'
p733
ag5
ag337
aS'id'
p734
ag337
aS'id'
p735
ag617
aS'integer'
p736
ag340
ag233
aS'integer'
p737
ag340
aS'function'
p738
aS'id'
p739
ag337
aS'id'
p740
ag11
aS'id'
p741
ag340
ag11
aS'id'
p742
ag5
ag337
aS'id'
p743
ag337
aS'id'
p744
ag214
aS'string'
p745
ag340
ag233
aS'string'
p746
ag340
aS'in'
p747
aS'id'
p748
ag337
aS'integer'
p749
ag214
aS'string'
p750
ag340
aS'end'
p751
aa(lp752
S'let'
p753
aS'function'
p754
aS'id'
p755
ag337
aS'id'
p756
ag11
aS'id'
p757
ag214
aS'id'
p758
ag11
aS'id'
p759
ag340
ag11
aS'id'
p760
ag5
ag337
aS'id'
p761
ag337
aS'id'
p762
ag617
aS'integer'
p763
ag340
ag233
aS'integer'
p764
ag340
aS'function'
p765
aS'id'
p766
ag337
aS'id'
p767
ag11
aS'id'
p768
ag340
ag11
aS'id'
p769
ag5
ag337
aS'id'
p770
ag337
aS'id'
p771
ag214
aS'string'
p772
ag340
ag233
aS'string'
p773
ag340
aS'in'
p774
aS'id'
p775
ag337
aS'integer'
p776
ag214
ag11
aS'string'
p777
ag340
aS'end'
p778
aa(lp779
S'let'
p780
aS'function'
p781
aS'id'
p782
ag337
aS'id'
p783
ag11
aS'id'
p784
ag214
aS'id'
p785
ag11
aS'id'
p786
ag340
ag11
aS'id'
p787
ag5
ag337
aS'id'
p788
ag337
aS'id'
p789
ag617
aS'integer'
p790
ag340
ag233
aS'integer'
p791
ag340
aS'function'
p792
aS'id'
p793
ag337
aS'id'
p794
ag11
aS'id'
p795
ag340
ag11
aS'id'
p796
ag5
ag337
aS'id'
p797
ag337
aS'id'
p798
ag214
aS'string'
p799
ag340
ag233
aS'string'
p800
ag340
aS'in'
p801
aS'id'
p802
ag337
aS'integer'
p803
aS'in'
p804
ag214
aS'string'
p805
ag340
aS'end'
p806
aa(lp807
S'let'
p808
aS'function'
p809
aS'id'
p810
ag337
aS'id'
p811
ag11
aS'id'
p812
ag214
aS'id'
p813
ag11
aS'id'
p814
ag340
ag11
aS'id'
p815
ag5
ag337
aS'id'
p816
ag337
aS'id'
p817
ag617
aS'integer'
p818
ag340
ag233
aS'integer'
p819
ag340
aS'function'
p820
aS'id'
p821
ag337
aS'id'
p822
ag11
ag610
aS'id'
p823
ag340
ag11
aS'id'
p824
ag5
ag337
aS'id'
p825
ag337
aS'id'
p826
ag214
aS'string'
p827
ag340
ag233
aS'string'
p828
ag340
aS'in'
p829
aS'id'
p830
ag337
aS'integer'
p831
ag214
aS'string'
p832
ag340
aS'end'
p833
aa(lp834
S'let'
p835
aS'function'
p836
aS'id'
p837
ag337
aS'id'
p838
ag11
aS'id'
p839
ag214
aS'id'
p840
ag11
aS'id'
p841
ag340
ag11
aS'id'
p842
ag5
ag337
aS'id'
p843
ag337
aS'id'
p844
ag617
aS'integer'
p845
ag340
ag233
aS'integer'
p846
ag340
aS'function'
p847
aS'id'
p848
ag337
aS'id'
p849
ag148
ag11
aS'id'
p850
ag340
ag11
aS'id'
p851
ag5
ag337
aS'id'
p852
ag337
aS'id'
p853
ag214
aS'string'
p854
ag340
ag233
aS'string'
p855
ag340
aS'in'
p856
aS'id'
p857
ag337
aS'integer'
p858
ag214
aS'string'
p859
ag340
aS'end'
p860
aa(lp861
S'if'
p862
ag337
aS'integer'
p863
aS'>'
p864
aS'integer'
p865
ag90
ag340
aS'then'
p866
aS'integer'
p867
aS'else'
p868
aS'integer'
p869
aa(lp870
S'if'
p871
ag337
aS'integer'
p872
ag864
aS'integer'
p873
ag340
ag11
aS'then'
p874
aS'integer'
p875
aS'else'
p876
aS'integer'
p877
aa(lp878
S'if'
p879
ag337
aS'integer'
p880
ag864
aS'integer'
p881
ag340
aS'then'
p882
ag610
aS'integer'
p883
aS'else'
p884
aS'integer'
p885
aa(lp886
S'if'
p887
ag337
ag864
aS'integer'
p888
ag864
aS'integer'
p889
ag340
aS'then'
p890
aS'integer'
p891
aS'else'
p892
aS'integer'
p893
aa(lp894
S'if'
p895
ag337
ag15
aS'integer'
p896
ag864
aS'integer'
p897
ag340
aS'then'
p898
aS'integer'
p899
aS'else'
p900
aS'integer'
p901
aa(lp902
S'if'
p903
ag337
aS'integer'
p904
aS'&'
p905
ag864
aS'integer'
p906
ag340
aS'then'
p907
aS'integer'
p908
aS'else'
p909
aS'string'
p910
aa(lp911
S'if'
p912
ag337
aS'integer'
p913
ag864
aS'integer'
p914
ag340
aS'then'
p915
ag106
aS'integer'
p916
aS'else'
p917
aS'string'
p918
aa(lp919
S'if'
p920
ag337
aS'integer'
p921
ag864
aS'integer'
p922
ag340
ag75
aS'then'
p923
aS'integer'
p924
aS'else'
p925
aS'string'
p926
aa(lp927
S'if'
p928
ag337
aS'integer'
p929
ag36
ag864
aS'integer'
p930
ag340
aS'then'
p931
aS'integer'
p932
aS'else'
p933
aS'string'
p934
aa(lp935
S'if'
p936
ag337
aS'integer'
p937
ag864
aS'integer'
p938
ag340
aS'then'
p939
ag16
aS'integer'
p940
aS'else'
p941
aS'string'
p942
aa(lp943
S'while'
p944
ag337
aS'integer'
p945
ag617
ag864
aS'integer'
p946
ag340
aS'do'
p947
aS'integer'
p948
ag617
aS'integer'
p949
aa(lp950
S'while'
p951
ag337
aS'integer'
p952
ag864
aS'integer'
p953
ag5
ag340
aS'do'
p954
aS'integer'
p955
ag617
aS'integer'
p956
aa(lp957
S'while'
p958
ag337
aS'integer'
p959
ag864
aS'integer'
p960
ag804
ag340
aS'do'
p961
aS'integer'
p962
ag617
aS'integer'
p963
aa(lp964
S'while'
p965
ag337
aS'integer'
p966
ag864
ag610
aS'integer'
p967
ag340
aS'do'
p968
aS'integer'
p969
ag617
aS'integer'
p970
aa(lp971
S'while'
p972
ag337
aS'integer'
p973
ag864
aS'integer'
p974
ag340
aS'do'
p975
ag218
aS'integer'
p976
ag617
aS'integer'
p977
aa(lp978
S'for'
p979
aS'id'
p980
aS':='
p981
aS'integer'
p982
aS'to'
p983
aS'string'
p984
aS'do'
p985
ag58
aS'id'
p986
aS':='
p987
aS'id'
p988
ag352
aS'integer'
p989
aa(lp990
S'for'
p991
aS'id'
p992
ag383
aS':='
p993
aS'integer'
p994
aS'to'
p995
aS'string'
p996
aS'do'
p997
aS'id'
p998
aS':='
p999
aS'id'
p1000
ag352
aS'integer'
p1001
aa(lp1002
S'for'
p1003
aS'id'
p1004
aS':='
p1005
aS'integer'
p1006
aS'to'
p1007
aS'string'
p1008
aS'do'
p1009
aS'type'
p1010
aS'id'
p1011
aS':='
p1012
aS'id'
p1013
ag352
aS'integer'
p1014
aa(lp1015
S'for'
p1016
aS'id'
p1017
aS'<='
p1018
aS':='
p1019
aS'integer'
p1020
aS'to'
p1021
aS'string'
p1022
aS'do'
p1023
aS'id'
p1024
aS':='
p1025
aS'id'
p1026
ag352
aS'integer'
p1027
aa(lp1028
S'for'
p1029
aS'id'
p1030
aS':='
p1031
aS'integer'
p1032
aS'to'
p1033
aS'string'
p1034
aS'do'
p1035
aS'id'
p1036
ag15
aS':='
p1037
aS'id'
p1038
ag352
aS'integer'
p1039
aa(lp1040
S'let'
p1041
aS'var'
p1042
aS'id'
p1043
aS':='
p1044
aS'integer'
p1045
aS'in'
p1046
aS'for'
p1047
aS'id'
p1048
aS':='
p1049
aS'integer'
p1050
aS'to'
p1051
aS'integer'
p1052
ag1018
aS'do'
p1053
ag337
aS'id'
p1054
aS':='
p1055
aS'id'
p1056
ag617
aS'integer'
p1057
ag233
ag337
ag340
ag340
aS'end'
p1058
aa(lp1059
S'let'
p1060
aS'var'
p1061
aS'id'
p1062
aS':='
p1063
aS'integer'
p1064
aS'in'
p1065
aS'for'
p1066
aS'id'
p1067
aS':='
p1068
aS'integer'
p1069
aS'to'
p1070
aS'integer'
p1071
aS'do'
p1072
ag337
aS'id'
p1073
aS':='
p1074
aS'id'
p1075
ag617
ag383
aS'integer'
p1076
ag233
ag337
ag340
ag340
aS'end'
p1077
aa(lp1078
S'let'
p1079
aS'var'
p1080
aS'id'
p1081
aS':='
p1082
aS'integer'
p1083
aS'in'
p1084
aS'for'
p1085
aS'id'
p1086
aS':='
p1087
aS'integer'
p1088
aS'to'
p1089
aS'integer'
p1090
ag18
aS'do'
p1091
ag337
aS'id'
p1092
aS':='
p1093
aS'id'
p1094
ag617
aS'integer'
p1095
ag233
ag337
ag340
ag340
aS'end'
p1096
aa(lp1097
S'let'
p1098
aS'var'
p1099
aS'id'
p1100
aS':='
p1101
aS'integer'
p1102
aS'in'
p1103
aS'for'
p1104
aS'id'
p1105
aS':='
p1106
ag233
aS'integer'
p1107
aS'to'
p1108
aS'integer'
p1109
aS'do'
p1110
ag337
aS'id'
p1111
aS':='
p1112
aS'id'
p1113
ag617
aS'integer'
p1114
ag233
ag337
ag340
ag340
aS'end'
p1115
aa(lp1116
S'let'
p1117
aS'var'
p1118
aS'id'
p1119
aS':='
p1120
aS'integer'
p1121
aS'in'
p1122
aS'for'
p1123
aS'id'
p1124
aS':='
p1125
aS'integer'
p1126
aS'to'
p1127
aS'integer'
p1128
aS'do'
p1129
ag337
aS'id'
p1130
aS':='
p1131
ag804
aS'id'
p1132
ag617
aS'integer'
p1133
ag233
ag337
ag340
ag340
aS'end'
p1134
aa(lp1135
S'let'
p1136
aS'type'
p1137
aS'id'
p1138
ag5
aS'array'
p1139
aS'of'
p1140
aS'id'
p1141
aS'type'
p1142
aS'id'
p1143
ag5
ag36
aS'id'
p1144
ag11
aS'id'
p1145
ag214
aS'id'
p1146
ag11
aS'id'
p1147
ag218
ag349
aS'var'
p1148
aS'id'
p1149
aS':='
p1150
aS'id'
p1151
ag36
aS'id'
p1152
ag5
aS'string'
p1153
ag214
aS'id'
p1154
ag5
aS'integer'
p1155
ag218
aS'var'
p1156
aS'id'
p1157
aS':='
p1158
aS'id'
p1159
ag16
aS'integer'
p1160
ag18
aS'of'
p1161
aS'integer'
p1162
aS'in'
p1163
aS'if'
p1164
aS'id'
p1165
aS'<>'
p1166
aS'id'
p1167
aS'then'
p1168
aS'integer'
p1169
aS'else'
p1170
aS'integer'
p1171
aS'end'
p1172
aa(lp1173
S'let'
p1174
aS'type'
p1175
aS'id'
p1176
ag5
aS'array'
p1177
aS'of'
p1178
aS'id'
p1179
aS'type'
p1180
ag5
aS'id'
p1181
ag5
ag36
aS'id'
p1182
ag11
aS'id'
p1183
ag214
aS'id'
p1184
ag11
aS'id'
p1185
ag218
aS'var'
p1186
aS'id'
p1187
aS':='
p1188
aS'id'
p1189
ag36
aS'id'
p1190
ag5
aS'string'
p1191
ag214
aS'id'
p1192
ag5
aS'integer'
p1193
ag218
aS'var'
p1194
aS'id'
p1195
aS':='
p1196
aS'id'
p1197
ag16
aS'integer'
p1198
ag18
aS'of'
p1199
aS'integer'
p1200
aS'in'
p1201
aS'if'
p1202
aS'id'
p1203
aS'<>'
p1204
aS'id'
p1205
aS'then'
p1206
aS'integer'
p1207
aS'else'
p1208
aS'integer'
p1209
aS'end'
p1210
aa(lp1211
S'let'
p1212
aS'type'
p1213
aS'id'
p1214
ag5
aS'array'
p1215
aS'of'
p1216
aS'id'
p1217
aS'type'
p1218
aS'id'
p1219
ag5
ag36
ag218
aS'id'
p1220
ag11
aS'id'
p1221
ag214
aS'id'
p1222
ag11
aS'id'
p1223
ag218
aS'var'
p1224
aS'id'
p1225
aS':='
p1226
aS'id'
p1227
ag36
aS'id'
p1228
ag5
aS'string'
p1229
ag214
aS'id'
p1230
ag5
aS'integer'
p1231
ag218
aS'var'
p1232
aS'id'
p1233
aS':='
p1234
aS'id'
p1235
ag16
aS'integer'
p1236
ag18
aS'of'
p1237
aS'integer'
p1238
aS'in'
p1239
aS'if'
p1240
aS'id'
p1241
aS'<>'
p1242
aS'id'
p1243
aS'then'
p1244
aS'integer'
p1245
aS'else'
p1246
aS'integer'
p1247
aS'end'
p1248
aa(lp1249
S'let'
p1250
aS'type'
p1251
aS'id'
p1252
ag5
aS'array'
p1253
aS'of'
p1254
ag569
aS'id'
p1255
aS'type'
p1256
aS'id'
p1257
ag5
ag36
aS'id'
p1258
ag11
aS'id'
p1259
ag214
aS'id'
p1260
ag11
aS'id'
p1261
ag218
aS'var'
p1262
aS'id'
p1263
aS':='
p1264
aS'id'
p1265
ag36
aS'id'
p1266
ag5
aS'string'
p1267
ag214
aS'id'
p1268
ag5
aS'integer'
p1269
ag218
aS'var'
p1270
aS'id'
p1271
aS':='
p1272
aS'id'
p1273
ag16
aS'integer'
p1274
ag18
aS'of'
p1275
aS'integer'
p1276
aS'in'
p1277
aS'if'
p1278
aS'id'
p1279
aS'<>'
p1280
aS'id'
p1281
aS'then'
p1282
aS'integer'
p1283
aS'else'
p1284
aS'integer'
p1285
aS'end'
p1286
aa(lp1287
S'let'
p1288
aS'type'
p1289
aS'id'
p1290
ag5
aS'array'
p1291
aS'of'
p1292
aS'id'
p1293
aS'type'
p1294
aS'id'
p1295
ag5
ag36
aS'id'
p1296
ag11
aS'id'
p1297
ag214
aS'id'
p1298
ag11
aS'id'
p1299
ag218
aS'var'
p1300
aS'id'
p1301
aS':='
p1302
aS'id'
p1303
ag36
aS'id'
p1304
ag5
aS'string'
p1305
ag214
aS'id'
p1306
ag5
aS'integer'
p1307
ag218
aS'var'
p1308
aS'id'
p1309
aS':='
p1310
aS'id'
p1311
ag16
aS'integer'
p1312
aS'<'
p1313
ag18
aS'of'
p1314
aS'integer'
p1315
aS'in'
p1316
aS'if'
p1317
aS'id'
p1318
aS'<>'
p1319
aS'id'
p1320
aS'then'
p1321
aS'integer'
p1322
aS'else'
p1323
aS'integer'
p1324
aS'end'
p1325
aa(lp1326
S'let'
p1327
aS'type'
p1328
aS'id'
p1329
ag5
aS'id'
p1330
aS'type'
p1331
aS'array'
p1332
aS'id'
p1333
ag5
aS'id'
p1334
aS'type'
p1335
aS'id'
p1336
ag5
aS'id'
p1337
aS'type'
p1338
aS'id'
p1339
ag5
aS'id'
p1340
aS'in'
p1341
aS'string'
p1342
aS'end'
p1343
aa(lp1344
S'let'
p1345
aS'type'
p1346
ag670
aS'id'
p1347
ag5
aS'id'
p1348
aS'type'
p1349
aS'id'
p1350
ag5
aS'id'
p1351
aS'type'
p1352
aS'id'
p1353
ag5
aS'id'
p1354
aS'type'
p1355
aS'id'
p1356
ag5
aS'id'
p1357
aS'in'
p1358
aS'string'
p1359
aS'end'
p1360
aa(lp1361
S'let'
p1362
aS'type'
p1363
aS'id'
p1364
ag5
aS'id'
p1365
aS'type'
p1366
aS'id'
p1367
ag5
aS'id'
p1368
aS'to'
p1369
aS'type'
p1370
aS'id'
p1371
ag5
aS'id'
p1372
aS'type'
p1373
aS'id'
p1374
ag5
aS'id'
p1375
aS'in'
p1376
aS'string'
p1377
aS'end'
p1378
aa(lp1379
S'let'
p1380
aS'type'
p1381
aS'id'
p1382
ag5
aS'id'
p1383
aS'type'
p1384
aS'id'
p1385
ag5
aS'id'
p1386
aS'type'
p1387
aS'id'
p1388
ag5
ag36
aS'id'
p1389
aS'type'
p1390
aS'id'
p1391
ag5
aS'id'
p1392
aS'in'
p1393
aS'string'
p1394
aS'end'
p1395
aa(lp1396
S'let'
p1397
aS'type'
p1398
aS'id'
p1399
ag5
aS'id'
p1400
aS'type'
p1401
aS'id'
p1402
ag5
aS'id'
p1403
aS'type'
p1404
aS'id'
p1405
ag864
ag5
aS'id'
p1406
aS'type'
p1407
aS'id'
p1408
ag5
aS'id'
p1409
aS'in'
p1410
aS'string'
p1411
aS'end'
p1412
aa(lp1413
S'let'
p1414
aS'type'
p1415
aS'id'
p1416
ag5
ag36
aS'id'
p1417
ag11
aS'id'
p1418
ag214
aS'id'
p1419
ag11
aS'id'
p1420
ag218
aS'var'
p1421
aS'id'
p1422
ag11
aS'id'
p1423
aS':='
p1424
aS'integer'
p1425
ag340
aS'type'
p1426
aS'id'
p1427
ag5
ag36
aS'id'
p1428
ag11
aS'id'
p1429
ag214
aS'id'
p1430
ag11
aS'id'
p1431
ag218
aS'in'
p1432
aS'id'
p1433
aS'end'
p1434
aa(lp1435
S'let'
p1436
aS'type'
p1437
aS'id'
p1438
ag5
ag36
aS'id'
p1439
ag11
aS'id'
p1440
ag214
aS'id'
p1441
ag11
aS'id'
p1442
ag218
aS'var'
p1443
aS'id'
p1444
ag11
aS'id'
p1445
aS':='
p1446
aS'integer'
p1447
aS'type'
p1448
aS'id'
p1449
ag5
ag36
aS'id'
p1450
ag11
aS'id'
p1451
ag214
aS'id'
p1452
ag11
ag5
aS'id'
p1453
ag218
aS'in'
p1454
aS'id'
p1455
aS'end'
p1456
aa(lp1457
S'let'
p1458
aS'type'
p1459
aS'id'
p1460
ag5
ag36
aS'id'
p1461
ag11
aS'id'
p1462
ag214
aS'id'
p1463
ag11
ag610
aS'id'
p1464
ag218
aS'var'
p1465
aS'id'
p1466
ag11
aS'id'
p1467
aS':='
p1468
aS'integer'
p1469
aS'type'
p1470
aS'id'
p1471
ag5
ag36
aS'id'
p1472
ag11
aS'id'
p1473
ag214
aS'id'
p1474
ag11
aS'id'
p1475
ag218
aS'in'
p1476
aS'id'
p1477
aS'end'
p1478
aa(lp1479
S'let'
p1480
aS'type'
p1481
aS'id'
p1482
aS'function'
p1483
ag5
ag36
aS'id'
p1484
ag11
aS'id'
p1485
ag214
aS'id'
p1486
ag11
aS'id'
p1487
ag218
aS'var'
p1488
aS'id'
p1489
ag11
aS'id'
p1490
aS':='
p1491
aS'integer'
p1492
aS'type'
p1493
aS'id'
p1494
ag5
ag36
aS'id'
p1495
ag11
aS'id'
p1496
ag214
aS'id'
p1497
ag11
aS'id'
p1498
ag218
aS'in'
p1499
aS'id'
p1500
aS'end'
p1501
aa(lp1502
S'let'
p1503
aS'type'
p1504
aS'id'
p1505
ag5
ag36
aS'id'
p1506
ag11
ag18
aS'id'
p1507
ag214
aS'id'
p1508
ag11
aS'id'
p1509
ag218
aS'var'
p1510
aS'id'
p1511
ag11
aS'id'
p1512
aS':='
p1513
aS'integer'
p1514
aS'type'
p1515
aS'id'
p1516
ag5
ag36
aS'id'
p1517
ag11
aS'id'
p1518
ag214
aS'id'
p1519
ag11
aS'id'
p1520
ag218
aS'in'
p1521
aS'id'
p1522
aS'end'
p1523
aa(lp1524
S'let'
p1525
aS'function'
p1526
aS'id'
p1527
ag337
aS'id'
p1528
ag11
aS'id'
p1529
ag214
aS'id'
p1530
ag11
aS'id'
p1531
ag340
ag11
aS'id'
p1532
ag5
aS'|'
p1533
ag337
aS'id'
p1534
ag337
aS'id'
p1535
ag617
aS'integer'
p1536
ag340
ag233
aS'integer'
p1537
ag340
aS'var'
p1538
aS'id'
p1539
aS':='
p1540
aS'integer'
p1541
aS'function'
p1542
aS'id'
p1543
ag337
aS'id'
p1544
ag11
aS'id'
p1545
ag340
ag11
aS'id'
p1546
ag5
ag337
aS'id'
p1547
ag337
aS'id'
p1548
ag214
aS'string'
p1549
ag340
ag233
aS'string'
p1550
ag340
aS'in'
p1551
aS'id'
p1552
ag337
aS'integer'
p1553
ag214
aS'string'
p1554
ag340
aS'end'
p1555
aa(lp1556
S'let'
p1557
aS'function'
p1558
aS'id'
p1559
ag337
aS'id'
p1560
ag11
aS'id'
p1561
ag214
aS'id'
p1562
ag11
aS'id'
p1563
ag340
ag11
aS'id'
p1564
ag5
ag337
aS'id'
p1565
ag337
aS'id'
p1566
ag617
aS'integer'
p1567
ag340
ag233
aS'integer'
p1568
ag340
aS'var'
p1569
aS'id'
p1570
aS':='
p1571
aS'integer'
p1572
aS'function'
p1573
aS'id'
p1574
ag337
aS'id'
p1575
ag11
aS'id'
p1576
ag216
ag340
ag11
aS'id'
p1577
ag5
ag337
aS'id'
p1578
ag337
aS'id'
p1579
ag214
aS'string'
p1580
ag340
ag233
aS'string'
p1581
ag340
aS'in'
p1582
aS'id'
p1583
ag337
aS'integer'
p1584
ag214
aS'string'
p1585
ag340
aS'end'
p1586
aa(lp1587
S'let'
p1588
aS'function'
p1589
aS'id'
p1590
ag337
aS'id'
p1591
ag11
aS'id'
p1592
ag214
aS'id'
p1593
ag11
aS'id'
p1594
ag340
ag11
aS'id'
p1595
ag5
ag337
aS'id'
p1596
ag337
aS'id'
p1597
ag617
aS'integer'
p1598
ag340
ag233
aS'integer'
p1599
ag340
ag1483
aS'var'
p1600
aS'id'
p1601
aS':='
p1602
aS'integer'
p1603
aS'function'
p1604
aS'id'
p1605
ag337
aS'id'
p1606
ag11
aS'id'
p1607
ag340
ag11
aS'id'
p1608
ag5
ag337
aS'id'
p1609
ag337
aS'id'
p1610
ag214
aS'string'
p1611
ag340
ag233
aS'string'
p1612
ag340
aS'in'
p1613
aS'id'
p1614
ag337
aS'integer'
p1615
ag214
aS'string'
p1616
ag340
aS'end'
p1617
aa(lp1618
S'let'
p1619
aS'function'
p1620
aS'id'
p1621
ag337
ag75
aS'id'
p1622
ag11
aS'id'
p1623
ag214
aS'id'
p1624
ag11
aS'id'
p1625
ag340
ag11
aS'id'
p1626
ag5
ag337
aS'id'
p1627
ag337
aS'id'
p1628
ag617
aS'integer'
p1629
ag340
ag233
aS'integer'
p1630
ag340
aS'var'
p1631
aS'id'
p1632
aS':='
p1633
aS'integer'
p1634
aS'function'
p1635
aS'id'
p1636
ag337
aS'id'
p1637
ag11
aS'id'
p1638
ag340
ag11
aS'id'
p1639
ag5
ag337
aS'id'
p1640
ag337
aS'id'
p1641
ag214
aS'string'
p1642
ag340
ag233
aS'string'
p1643
ag340
aS'in'
p1644
aS'id'
p1645
ag337
aS'integer'
p1646
ag214
aS'string'
p1647
ag340
aS'end'
p1648
aa(lp1649
S'let'
p1650
aS'function'
p1651
aS'id'
p1652
ag337
aS'id'
p1653
ag383
ag11
aS'id'
p1654
ag214
aS'id'
p1655
ag11
aS'id'
p1656
ag340
ag11
aS'id'
p1657
ag5
ag337
aS'id'
p1658
ag337
aS'id'
p1659
ag617
aS'integer'
p1660
ag340
ag233
aS'integer'
p1661
ag340
aS'var'
p1662
aS'id'
p1663
aS':='
p1664
aS'integer'
p1665
aS'function'
p1666
aS'id'
p1667
ag337
aS'id'
p1668
ag11
aS'id'
p1669
ag340
ag11
aS'id'
p1670
ag5
ag337
aS'id'
p1671
ag337
aS'id'
p1672
ag214
aS'string'
p1673
ag340
ag233
aS'string'
p1674
ag340
aS'in'
p1675
aS'id'
p1676
ag337
aS'integer'
p1677
ag214
aS'string'
p1678
ag340
aS'end'
p1679
aa(lp1680
S'let'
p1681
aS'function'
p1682
aS'id'
p1683
ag337
aS'id'
p1684
ag11
aS'id'
p1685
ag214
aS'id'
p1686
ag11
aS'id'
p1687
ag340
ag11
aS'id'
p1688
ag5
ag337
aS'id'
p1689
ag337
aS'id'
p1690
ag617
aS'integer'
p1691
ag340
ag233
aS'integer'
p1692
ag670
ag340
aS'function'
p1693
aS'id'
p1694
ag337
aS'id'
p1695
ag11
aS'id'
p1696
ag340
ag11
aS'id'
p1697
ag5
ag337
aS'id'
p1698
ag337
aS'id'
p1699
ag214
aS'string'
p1700
ag340
ag233
aS'string'
p1701
ag340
aS'in'
p1702
aS'id'
p1703
ag337
aS'integer'
p1704
ag214
aS'string'
p1705
ag340
aS'end'
p1706
aa(lp1707
S'let'
p1708
aS'function'
p1709
aS'id'
p1710
ag337
aS'id'
p1711
ag11
aS'id'
p1712
ag214
aS'id'
p1713
ag11
aS'id'
p1714
ag340
ag11
aS'id'
p1715
ag5
ag337
aS'id'
p1716
ag337
aS'id'
p1717
ag617
aS'integer'
p1718
ag340
ag233
aS'integer'
p1719
ag340
aS'function'
p1720
aS'id'
p1721
ag337
aS'id'
p1722
ag11
aS'id'
p1723
ag340
ag11
aS'id'
p1724
ag5
ag337
aS'id'
p1725
ag337
aS'id'
p1726
ag214
aS'string'
p1727
ag340
ag233
aS'string'
p1728
ag340
ag349
aS'in'
p1729
aS'id'
p1730
ag337
aS'integer'
p1731
ag214
aS'string'
p1732
ag340
aS'end'
p1733
aa(lp1734
S'let'
p1735
aS'function'
p1736
aS'id'
p1737
ag337
aS'id'
p1738
ag11
aS'id'
p1739
ag214
aS'id'
p1740
ag11
aS'id'
p1741
ag340
ag11
aS'id'
p1742
ag5
ag337
aS'id'
p1743
ag337
aS'id'
p1744
ag617
aS'integer'
p1745
ag340
ag233
aS'integer'
p1746
ag340
aS'function'
p1747
aS'id'
p1748
ag337
aS'id'
p1749
ag11
ag617
aS'id'
p1750
ag340
ag11
aS'id'
p1751
ag5
ag337
aS'id'
p1752
ag337
aS'id'
p1753
ag214
aS'string'
p1754
ag340
ag233
aS'string'
p1755
ag340
aS'in'
p1756
aS'id'
p1757
ag337
aS'integer'
p1758
ag214
aS'string'
p1759
ag340
aS'end'
p1760
aa(lp1761
S'let'
p1762
aS'function'
p1763
aS'id'
p1764
ag337
aS'id'
p1765
ag11
aS'id'
p1766
ag214
aS'id'
p1767
ag11
aS'id'
p1768
ag340
ag11
aS'id'
p1769
ag5
ag337
aS'id'
p1770
ag337
aS'id'
p1771
ag617
aS'integer'
p1772
ag340
ag233
aS'integer'
p1773
ag340
aS'function'
p1774
aS'id'
p1775
ag337
aS'id'
p1776
ag11
aS'id'
p1777
ag340
ag11
aS'id'
p1778
ag5
ag337
ag16
aS'id'
p1779
ag337
aS'id'
p1780
ag214
aS'string'
p1781
ag340
ag233
aS'string'
p1782
ag340
aS'in'
p1783
aS'id'
p1784
ag337
aS'integer'
p1785
ag214
aS'string'
p1786
ag340
aS'end'
p1787
aa(lp1788
S'let'
p1789
aS'function'
p1790
aS'id'
p1791
ag337
aS'id'
p1792
ag11
aS'id'
p1793
ag214
aS'id'
p1794
ag11
aS'id'
p1795
ag340
ag11
aS'id'
p1796
ag5
ag337
aS'id'
p1797
ag337
aS'id'
p1798
ag617
aS'integer'
p1799
ag340
ag233
aS'integer'
p1800
ag340
aS'function'
p1801
aS'id'
p1802
ag337
aS'id'
p1803
ag11
ag218
aS'id'
p1804
ag340
ag11
aS'id'
p1805
ag5
ag337
aS'id'
p1806
ag337
aS'id'
p1807
ag214
aS'string'
p1808
ag340
ag233
aS'string'
p1809
ag340
aS'in'
p1810
aS'id'
p1811
ag337
aS'integer'
p1812
ag214
aS'string'
p1813
ag340
aS'end'
p1814
aa(lp1815
S'while'
p1816
aS'integer'
p1817
ag58
ag864
aS'integer'
p1818
aS'do'
p1819
ag337
aS'id'
p1820
ag617
aS'integer'
p1821
ag233
ag337
ag340
ag340
aa(lp1822
S'while'
p1823
aS'integer'
p1824
ag864
aS'integer'
p1825
aS'do'
p1826
ag337
ag617
aS'id'
p1827
ag617
aS'integer'
p1828
ag233
ag337
ag340
ag340
aa(lp1829
S'while'
p1830
aS'integer'
p1831
ag864
aS'integer'
p1832
aS'do'
p1833
ag337
aS'id'
p1834
ag617
ag670
aS'integer'
p1835
ag233
ag337
ag340
ag340
aa(lp1836
S'while'
p1837
aS'integer'
p1838
ag36
ag864
aS'integer'
p1839
aS'do'
p1840
ag337
aS'id'
p1841
ag617
aS'integer'
p1842
ag233
ag337
ag340
ag340
aa(lp1843
S'while'
p1844
aS'integer'
p1845
ag864
aS'integer'
p1846
aS'do'
p1847
ag337
aS'id'
p1848
ag617
aS'integer'
p1849
ag233
ag5
ag337
ag340
ag340
aa(lp1850
S'let'
p1851
aS'function'
p1852
aS'id'
p1853
ag337
aS'id'
p1854
ag11
aS'id'
p1855
ag340
ag5
aS'if'
p1856
aS'id'
p1857
ag5
aS'integer'
p1858
aS'then'
p1859
aS'integer'
p1860
aS'else'
p1861
aS'id'
p1862
ag349
aS'id'
p1863
ag337
aS'id'
p1864
ag352
aS'integer'
p1865
ag340
ag218
aS'in'
p1866
aS'id'
p1867
ag337
aS'integer'
p1868
ag340
aS'end'
p1869
aa(lp1870
S'let'
p1871
aS'function'
p1872
aS'id'
p1873
ag337
aS'id'
p1874
ag11
aS'id'
p1875
ag340
ag5
aS'if'
p1876
aS'id'
p1877
ag5
aS'integer'
p1878
aS'then'
p1879
ag340
aS'integer'
p1880
aS'else'
p1881
aS'id'
p1882
ag349
aS'id'
p1883
ag337
aS'id'
p1884
ag352
aS'integer'
p1885
ag340
aS'in'
p1886
aS'id'
p1887
ag337
aS'integer'
p1888
ag340
aS'end'
p1889
aa(lp1890
S'let'
p1891
aS'function'
p1892
aS'id'
p1893
ag337
aS'id'
p1894
ag11
aS'id'
p1895
ag340
ag5
aS'if'
p1896
aS'id'
p1897
ag5
ag617
aS'integer'
p1898
aS'then'
p1899
aS'integer'
p1900
aS'else'
p1901
aS'id'
p1902
ag349
aS'id'
p1903
ag337
aS'id'
p1904
ag352
aS'integer'
p1905
ag340
aS'in'
p1906
aS'id'
p1907
ag337
aS'integer'
p1908
ag340
aS'end'
p1909
aa(lp1910
S'let'
p1911
aS'function'
p1912
aS'id'
p1913
ag337
ag16
aS'id'
p1914
ag11
aS'id'
p1915
ag340
ag5
aS'if'
p1916
aS'id'
p1917
ag5
aS'integer'
p1918
aS'then'
p1919
aS'integer'
p1920
aS'else'
p1921
aS'id'
p1922
ag349
aS'id'
p1923
ag337
aS'id'
p1924
ag352
aS'integer'
p1925
ag340
aS'in'
p1926
aS'id'
p1927
ag337
aS'integer'
p1928
ag340
aS'end'
p1929
aa(lp1930
S'let'
p1931
aS'function'
p1932
aS'id'
p1933
ag337
aS'id'
p1934
ag11
aS'id'
p1935
ag340
ag5
aS'if'
p1936
aS'id'
p1937
ag5
aS'integer'
p1938
aS'then'
p1939
aS'do'
p1940
aS'integer'
p1941
aS'else'
p1942
aS'id'
p1943
ag349
aS'id'
p1944
ag337
aS'id'
p1945
ag352
aS'integer'
p1946
ag340
aS'in'
p1947
aS'id'
p1948
ag337
aS'integer'
p1949
ag340
aS'end'
p1950
aa(lp1951
S'let'
p1952
aS'type'
p1953
aS'id'
p1954
ag5
ag36
aS'id'
p1955
ag11
aS'id'
p1956
ag214
aS'id'
p1957
ag11
aS'id'
p1958
ag218
aS'var'
p1959
aS'id'
p1960
aS':='
p1961
aS'id'
p1962
ag36
aS'id'
p1963
ag5
aS'string'
p1964
ag214
aS'id'
p1965
ag58
ag5
aS'integer'
p1966
ag218
aS'in'
p1967
aS'id'
p1968
ag90
aS'id'
p1969
aS':='
p1970
aS'string'
p1971
aS'end'
p1972
aa(lp1973
S'let'
p1974
aS'type'
p1975
aS'id'
p1976
ag5
ag36
aS'id'
p1977
ag11
aS'id'
p1978
ag214
aS'id'
p1979
ag11
aS'id'
p1980
ag218
aS'var'
p1981
aS'id'
p1982
aS':='
p1983
aS'id'
p1984
ag216
ag36
aS'id'
p1985
ag5
aS'string'
p1986
ag214
aS'id'
p1987
ag5
aS'integer'
p1988
ag218
aS'in'
p1989
aS'id'
p1990
ag90
aS'id'
p1991
aS':='
p1992
aS'string'
p1993
aS'end'
p1994
aa(lp1995
S'let'
p1996
aS'type'
p1997
aS'id'
p1998
ag5
ag36
aS'id'
p1999
ag11
aS'id'
p2000
ag214
aS'id'
p2001
ag11
aS'id'
p2002
ag218
aS'var'
p2003
aS'id'
p2004
aS':='
p2005
aS'id'
p2006
ag36
aS'id'
p2007
ag5
aS'string'
p2008
ag214
aS'id'
p2009
ag5
ag670
aS'integer'
p2010
ag218
aS'in'
p2011
aS'id'
p2012
ag90
aS'id'
p2013
aS':='
p2014
aS'string'
p2015
aS'end'
p2016
aa(lp2017
S'let'
p2018
aS'type'
p2019
aS'id'
p2020
ag5
ag36
aS'id'
p2021
ag11
aS'id'
p2022
ag214
aS'id'
p2023
ag11
aS'id'
p2024
ag218
aS'var'
p2025
aS'id'
p2026
aS':='
p2027
aS'id'
p2028
ag36
aS'id'
p2029
ag5
aS'string'
p2030
ag214
ag18
aS'id'
p2031
ag5
aS'integer'
p2032
ag218
aS'in'
p2033
aS'id'
p2034
ag90
aS'id'
p2035
aS':='
p2036
aS'string'
p2037
aS'end'
p2038
aa(lp2039
S'let'
p2040
aS'type'
p2041
aS'id'
p2042
ag5
ag36
aS'id'
p2043
ag11
aS'id'
p2044
ag214
aS'id'
p2045
ag11
aS'id'
p2046
ag218
aS'var'
p2047
aS'id'
p2048
aS':='
p2049
aS'id'
p2050
ag36
aS'id'
p2051
ag5
aS'string'
p2052
ag214
aS'id'
p2053
ag5
ag610
aS'integer'
p2054
ag218
aS'in'
p2055
aS'id'
p2056
ag90
aS'id'
p2057
aS':='
p2058
aS'string'
p2059
aS'end'
p2060
aa(lp2061
S'let'
p2062
aS'type'
p2063
aS'id'
p2064
ag5
ag36
aS'id'
p2065
ag11
aS'id'
p2066
ag214
aS'id'
p2067
ag11
aS'id'
p2068
ag218
aS'var'
p2069
aS'id'
p2070
aS':='
p2071
aS'id'
p2072
ag36
aS'id'
p2073
ag5
aS'string'
p2074
ag214
aS'id'
p2075
ag5
aS'integer'
p2076
ag218
aS'in'
p2077
aS'id'
p2078
ag90
ag216
aS'id'
p2079
aS':='
p2080
aS'integer'
p2081
ag233
aS'id'
p2082
ag90
aS'id'
p2083
aS':='
p2084
aS'string'
p2085
aS'end'
p2086
aa(lp2087
S'let'
p2088
aS'type'
p2089
aS'id'
p2090
ag5
ag36
aS'id'
p2091
ag11
aS'id'
p2092
ag214
aS'id'
p2093
ag617
ag11
aS'id'
p2094
ag218
aS'var'
p2095
aS'id'
p2096
aS':='
p2097
aS'id'
p2098
ag36
aS'id'
p2099
ag5
aS'string'
p2100
ag214
aS'id'
p2101
ag5
aS'integer'
p2102
ag218
aS'in'
p2103
aS'id'
p2104
ag90
aS'id'
p2105
aS':='
p2106
aS'integer'
p2107
ag233
aS'id'
p2108
ag90
aS'id'
p2109
aS':='
p2110
aS'string'
p2111
aS'end'
p2112
aa(lp2113
S'let'
p2114
aS'type'
p2115
aS'id'
p2116
ag5
ag36
aS'id'
p2117
ag11
aS'id'
p2118
ag214
aS'id'
p2119
ag11
aS'id'
p2120
ag218
aS'var'
p2121
aS'id'
p2122
aS':='
p2123
aS'id'
p2124
ag36
aS'id'
p2125
ag5
aS'string'
p2126
ag214
aS'id'
p2127
ag5
aS'integer'
p2128
ag218
aS'in'
p2129
aS'id'
p2130
ag90
aS'id'
p2131
ag864
aS':='
p2132
aS'integer'
p2133
ag233
aS'id'
p2134
ag90
aS'id'
p2135
aS':='
p2136
aS'string'
p2137
aS'end'
p2138
aa(lp2139
S'let'
p2140
aS'type'
p2141
aS'id'
p2142
ag5
ag36
aS'id'
p2143
ag11
aS'id'
p2144
ag214
aS'id'
p2145
ag11
aS'id'
p2146
ag218
aS'var'
p2147
aS'id'
p2148
aS':='
p2149
aS'id'
p2150
ag36
aS'id'
p2151
ag5
aS'string'
p2152
ag214
aS'id'
p2153
ag5
aS'integer'
p2154
ag218
aS'in'
p2155
aS'id'
p2156
ag90
aS'id'
p2157
aS':='
p2158
aS'integer'
p2159
ag233
aS'id'
p2160
ag804
ag90
aS'id'
p2161
aS':='
p2162
aS'string'
p2163
aS'end'
p2164
aa(lp2165
S'let'
p2166
aS'type'
p2167
aS'id'
p2168
ag5
ag36
aS'id'
p2169
ag11
aS'id'
p2170
ag214
aS'id'
p2171
ag11
aS'id'
p2172
ag218
aS'var'
p2173
aS'id'
p2174
aS':='
p2175
aS'id'
p2176
ag36
aS'id'
p2177
ag5
aS'string'
p2178
ag214
aS'id'
p2179
ag5
aS'integer'
p2180
ag218
aS'in'
p2181
aS'id'
p2182
ag90
aS'id'
p2183
aS':='
p2184
aS'integer'
p2185
ag233
aS'id'
p2186
ag90
ag1533
aS'id'
p2187
aS':='
p2188
aS'string'
p2189
aS'end'
p2190
aa(lp2191
S'let'
p2192
aS'var'
p2193
aS'id'
p2194
aS':='
p2195
aS'integer'
p2196
aS'in'
p2197
aS'id'
p2198
ag383
ag16
aS'integer'
p2199
ag18
aS'end'
p2200
aa(lp2201
S'let'
p2202
aS'var'
p2203
aS'id'
p2204
aS':='
p2205
aS'integer'
p2206
ag233
aS'in'
p2207
aS'id'
p2208
ag16
aS'integer'
p2209
ag18
aS'end'
p2210
aa(lp2211
S'let'
p2212
aS'var'
p2213
aS'id'
p2214
ag1332
aS':='
p2215
aS'integer'
p2216
aS'in'
p2217
aS'id'
p2218
ag16
aS'integer'
p2219
ag18
aS'end'
p2220
aa(lp2221
S'let'
p2222
aS'var'
p2223
aS'id'
p2224
aS':='
p2225
aS'integer'
p2226
aS'in'
p2227
ag18
aS'id'
p2228
ag16
aS'integer'
p2229
ag18
aS'end'
p2230
aa(lp2231
S'let'
p2232
aS'var'
p2233
aS'id'
p2234
aS':='
p2235
aS'integer'
p2236
aS'in'
p2237
aS'id'
p2238
ag16
ag106
aS'integer'
p2239
ag18
aS'end'
p2240
aa(lp2241
S'let'
p2242
aS'var'
p2243
aS'id'
p2244
aS':='
p2245
aS'integer'
p2246
ag1483
aS'in'
p2247
aS'id'
p2248
ag90
aS'id'
p2249
aS'end'
p2250
aa(lp2251
S'let'
p2252
aS'var'
p2253
aS'id'
p2254
ag864
aS':='
p2255
aS'integer'
p2256
aS'in'
p2257
aS'id'
p2258
ag90
aS'id'
p2259
aS'end'
p2260
aa(lp2261
S'let'
p2262
aS'var'
p2263
aS'id'
p2264
aS'id'
p2265
aS':='
p2266
aS'integer'
p2267
aS'in'
p2268
aS'id'
p2269
ag90
aS'id'
p2270
aS'end'
p2271
aa(lp2272
S'let'
p2273
aS'var'
p2274
aS'id'
p2275
ag75
aS':='
p2276
aS'integer'
p2277
aS'in'
p2278
aS'id'
p2279
ag90
aS'id'
p2280
aS'end'
p2281
aa(lp2282
S'let'
p2283
aS'var'
p2284
aS'id'
p2285
aS':='
p2286
aS'integer'
p2287
ag706
aS'in'
p2288
aS'id'
p2289
ag90
aS'id'
p2290
aS'end'
p2291
aa(lp2292
S'let'
p2293
aS'var'
p2294
aS'id'
p2295
aS':='
p2296
aS'integer'
p2297
aS'function'
p2298
aS'id'
p2299
ag337
aS'id'
p2300
ag11
aS'id'
p2301
ag340
ag11
aS'id'
p2302
ag5
aS'id'
p2303
aS'in'
p2304
aS'id'
p2305
ag337
ag90
aS'integer'
p2306
ag340
aS'end'
p2307
aa(lp2308
S'let'
p2309
aS'var'
p2310
aS'id'
p2311
aS':='
p2312
aS'integer'
p2313
aS'function'
p2314
aS'id'
p2315
ag337
aS'id'
p2316
ag11
aS'id'
p2317
ag340
ag11
aS'id'
p2318
ag90
ag5
aS'id'
p2319
aS'in'
p2320
aS'id'
p2321
ag337
aS'integer'
p2322
ag340
aS'end'
p2323
aa(lp2324
S'let'
p2325
aS'var'
p2326
aS'id'
p2327
aS':='
p2328
aS'integer'
p2329
aS'function'
p2330
aS'id'
p2331
ag337
aS'id'
p2332
ag11
aS'id'
p2333
ag340
ag11
ag706
aS'id'
p2334
ag5
aS'id'
p2335
aS'in'
p2336
aS'id'
p2337
ag337
aS'integer'
p2338
ag340
aS'end'
p2339
aa(lp2340
S'let'
p2341
aS'var'
p2342
aS'id'
p2343
aS':='
p2344
aS'integer'
p2345
aS'function'
p2346
aS'id'
p2347
ag337
aS'id'
p2348
ag11
ag148
aS'id'
p2349
ag340
ag11
aS'id'
p2350
ag5
aS'id'
p2351
aS'in'
p2352
aS'id'
p2353
ag337
aS'integer'
p2354
ag340
aS'end'
p2355
aa(lp2356
S'let'
p2357
aS'var'
p2358
aS'id'
p2359
aS':='
p2360
aS'integer'
p2361
aS'function'
p2362
aS'id'
p2363
ag337
aS'id'
p2364
ag11
aS'id'
p2365
ag340
ag11
aS'id'
p2366
ag5
aS'id'
p2367
aS'in'
p2368
aS'id'
p2369
aS'while'
p2370
ag337
aS'integer'
p2371
ag340
aS'end'
p2372
aa(lp2373
S'let'
p2374
aS'type'
p2375
aS'id'
p2376
ag5
ag36
aS'id'
p2377
ag11
aS'id'
p2378
ag214
aS'id'
p2379
ag11
aS'id'
p2380
ag218
aS'type'
p2381
aS'id'
p2382
ag5
ag36
aS'id'
p2383
ag11
aS'id'
p2384
ag214
aS'id'
p2385
ag11
aS'id'
p2386
ag218
aS'var'
p2387
aS'id'
p2388
ag11
aS'id'
p2389
aS':='
p2390
aS'id'
p2391
ag36
aS'id'
p2392
ag5
aS'string'
p2393
ag214
ag610
aS'id'
p2394
ag5
aS'integer'
p2395
ag218
aS'in'
p2396
aS'id'
p2397
aS'end'
p2398
aa(lp2399
S'let'
p2400
aS'type'
p2401
aS'id'
p2402
ag5
ag36
aS'id'
p2403
ag11
aS'id'
p2404
ag214
aS'id'
p2405
ag11
aS'id'
p2406
ag218
aS'type'
p2407
aS'id'
p2408
ag5
ag36
aS'id'
p2409
ag11
aS'id'
p2410
ag214
aS'id'
p2411
ag11
aS'id'
p2412
ag864
ag218
aS'var'
p2413
aS'id'
p2414
ag11
aS'id'
p2415
aS':='
p2416
aS'id'
p2417
ag36
aS'id'
p2418
ag5
aS'string'
p2419
ag214
aS'id'
p2420
ag5
aS'integer'
p2421
ag218
aS'in'
p2422
aS'id'
p2423
aS'end'
p2424
aa(lp2425
S'let'
p2426
aS'type'
p2427
ag138
aS'id'
p2428
ag5
ag36
aS'id'
p2429
ag11
aS'id'
p2430
ag214
aS'id'
p2431
ag11
aS'id'
p2432
ag218
aS'type'
p2433
aS'id'
p2434
ag5
ag36
aS'id'
p2435
ag11
aS'id'
p2436
ag214
aS'id'
p2437
ag11
aS'id'
p2438
ag218
aS'var'
p2439
aS'id'
p2440
ag11
aS'id'
p2441
aS':='
p2442
aS'id'
p2443
ag36
aS'id'
p2444
ag5
aS'string'
p2445
ag214
aS'id'
p2446
ag5
aS'integer'
p2447
ag218
aS'in'
p2448
aS'id'
p2449
aS'end'
p2450
aa(lp2451
S'let'
p2452
aS'type'
p2453
aS'id'
p2454
ag5
ag36
aS'id'
p2455
ag11
aS'id'
p2456
ag214
aS'id'
p2457
ag11
aS'id'
p2458
ag218
aS'type'
p2459
aS'id'
p2460
ag36
ag5
ag36
aS'id'
p2461
ag11
aS'id'
p2462
ag214
aS'id'
p2463
ag11
aS'id'
p2464
ag218
aS'var'
p2465
aS'id'
p2466
ag11
aS'id'
p2467
aS':='
p2468
aS'id'
p2469
ag36
aS'id'
p2470
ag5
aS'string'
p2471
ag214
aS'id'
p2472
ag5
aS'integer'
p2473
ag218
aS'in'
p2474
aS'id'
p2475
aS'end'
p2476
aa(lp2477
S'let'
p2478
aS'type'
p2479
aS'id'
p2480
ag5
ag36
aS'id'
p2481
ag11
aS'id'
p2482
ag214
aS'id'
p2483
ag11
aS'id'
p2484
ag218
aS'type'
p2485
aS'id'
p2486
ag5
ag36
aS'id'
p2487
ag11
aS'id'
p2488
ag214
aS'id'
p2489
ag11
aS'id'
p2490
ag218
aS'var'
p2491
aS'id'
p2492
ag11
aS'id'
p2493
aS':='
p2494
aS'id'
p2495
ag36
aS'id'
p2496
ag5
aS'string'
p2497
ag214
aS'id'
p2498
ag5
ag16
aS'integer'
p2499
ag218
aS'in'
p2500
aS'id'
p2501
aS'end'
p2502
aa(lp2503
S'let'
p2504
aS'type'
p2505
aS'id'
p2506
ag5
aS'array'
p2507
aS'of'
p2508
aS'id'
p2509
aS'type'
p2510
ag610
aS'id'
p2511
ag5
aS'array'
p2512
aS'of'
p2513
aS'id'
p2514
aS'var'
p2515
aS'id'
p2516
ag11
aS'id'
p2517
aS':='
p2518
aS'id'
p2519
ag16
aS'integer'
p2520
ag18
aS'of'
p2521
aS'integer'
p2522
aS'in'
p2523
aS'id'
p2524
aS'end'
p2525
aa(lp2526
S'let'
p2527
aS'type'
p2528
aS'id'
p2529
ag5
aS'array'
p2530
aS'of'
p2531
aS'id'
p2532
aS'type'
p2533
aS'id'
p2534
ag5
aS'array'
p2535
aS'of'
p2536
aS'id'
p2537
aS'var'
p2538
aS'id'
p2539
ag11
ag706
aS'id'
p2540
aS':='
p2541
aS'id'
p2542
ag16
aS'integer'
p2543
ag18
aS'of'
p2544
aS'integer'
p2545
aS'in'
p2546
aS'id'
p2547
aS'end'
p2548
aa(lp2549
S'let'
p2550
aS'type'
p2551
aS'id'
p2552
ag5
aS'array'
p2553
aS'of'
p2554
aS'id'
p2555
aS'type'
p2556
aS'id'
p2557
ag5
aS'array'
p2558
aS'of'
p2559
aS'id'
p2560
aS'var'
p2561
ag569
aS'id'
p2562
ag11
aS'id'
p2563
aS':='
p2564
aS'id'
p2565
ag16
aS'integer'
p2566
ag18
aS'of'
p2567
aS'integer'
p2568
aS'in'
p2569
aS'id'
p2570
aS'end'
p2571
aa(lp2572
S'let'
p2573
aS'type'
p2574
aS'id'
p2575
ag5
aS'array'
p2576
aS'of'
p2577
aS'id'
p2578
aS'type'
p2579
aS'id'
p2580
ag5
aS'array'
p2581
aS'of'
p2582
aS'id'
p2583
aS'var'
p2584
aS'id'
p2585
ag11
ag106
aS'id'
p2586
aS':='
p2587
aS'id'
p2588
ag16
aS'integer'
p2589
ag18
aS'of'
p2590
aS'integer'
p2591
aS'in'
p2592
aS'id'
p2593
aS'end'
p2594
aa(lp2595
S'let'
p2596
aS'type'
p2597
aS'id'
p2598
ag5
aS'array'
p2599
aS'of'
p2600
aS'id'
p2601
aS'type'
p2602
aS'id'
p2603
ag5
aS'array'
p2604
aS'of'
p2605
aS'id'
p2606
aS'var'
p2607
aS'id'
p2608
ag11
aS'id'
p2609
aS':='
p2610
aS'id'
p2611
ag16
ag349
aS'integer'
p2612
ag18
aS'of'
p2613
aS'integer'
p2614
aS'in'
p2615
aS'id'
p2616
aS'end'
p2617
aa(lp2618
S'let'
p2619
aS'type'
p2620
aS'id'
p2621
ag5
aS'array'
p2622
aS'of'
p2623
aS'id'
p2624
aS'type'
p2625
ag2370
aS'id'
p2626
ag5
aS'id'
p2627
aS'var'
p2628
aS'id'
p2629
ag11
aS'id'
p2630
aS':='
p2631
aS'id'
p2632
ag16
aS'integer'
p2633
ag18
aS'of'
p2634
aS'integer'
p2635
aS'in'
p2636
aS'id'
p2637
ag16
aS'integer'
p2638
ag18
aS'end'
p2639
aa(lp2640
S'let'
p2641
aS'type'
p2642
aS'id'
p2643
ag5
aS'array'
p2644
aS'of'
p2645
aS'id'
p2646
aS'type'
p2647
aS'id'
p2648
ag5
aS'id'
p2649
aS'var'
p2650
aS'id'
p2651
ag11
aS'id'
p2652
aS':='
p2653
aS'id'
p2654
ag16
ag15
aS'integer'
p2655
ag18
aS'of'
p2656
aS'integer'
p2657
aS'in'
p2658
aS'id'
p2659
ag16
aS'integer'
p2660
ag18
aS'end'
p2661
aa(lp2662
S'let'
p2663
aS'type'
p2664
aS'id'
p2665
ag5
aS'array'
p2666
aS'of'
p2667
aS'id'
p2668
aS'type'
p2669
aS'id'
p2670
ag5
ag18
aS'id'
p2671
aS'var'
p2672
aS'id'
p2673
ag11
aS'id'
p2674
aS':='
p2675
aS'id'
p2676
ag16
aS'integer'
p2677
ag18
aS'of'
p2678
aS'integer'
p2679
aS'in'
p2680
aS'id'
p2681
ag16
aS'integer'
p2682
ag18
aS'end'
p2683
aa(lp2684
S'let'
p2685
aS'type'
p2686
aS'id'
p2687
ag5
aS'array'
p2688
aS'of'
p2689
aS'id'
p2690
aS'type'
p2691
aS'id'
p2692
ag5
aS'id'
p2693
ag216
aS'var'
p2694
aS'id'
p2695
ag11
aS'id'
p2696
aS':='
p2697
aS'id'
p2698
ag16
aS'integer'
p2699
ag18
aS'of'
p2700
aS'integer'
p2701
aS'in'
p2702
aS'id'
p2703
ag16
aS'integer'
p2704
ag18
aS'end'
p2705
aa(lp2706
S'let'
p2707
aS'type'
p2708
aS'id'
p2709
ag5
aS'array'
p2710
ag1533
aS'of'
p2711
aS'id'
p2712
aS'type'
p2713
aS'id'
p2714
ag5
aS'id'
p2715
aS'var'
p2716
aS'id'
p2717
ag11
aS'id'
p2718
aS':='
p2719
aS'id'
p2720
ag16
aS'integer'
p2721
ag18
aS'of'
p2722
aS'integer'
p2723
aS'in'
p2724
aS'id'
p2725
ag16
aS'integer'
p2726
ag18
aS'end'
p2727
aa(lp2728
S'let'
p2729
aS'var'
p2730
aS'id'
p2731
ag11
ag1483
aS'id'
p2732
aS':='
p2733
aS'string'
p2734
aS'in'
p2735
aS'id'
p2736
aS'end'
p2737
aa(lp2738
S'let'
p2739
aS'var'
p2740
aS'id'
p2741
ag11
aS'id'
p2742
aS':='
p2743
aS'string'
p2744
ag138
aS'in'
p2745
aS'id'
p2746
aS'end'
p2747
aa(lp2748
S'let'
p2749
aS'var'
p2750
ag1533
aS'id'
p2751
ag11
aS'id'
p2752
aS':='
p2753
aS'string'
p2754
aS'in'
p2755
aS'id'
p2756
aS'end'
p2757
aa(lp2758
S'let'
p2759
aS'var'
p2760
aS'id'
p2761
ag11
aS'id'
p2762
aS':='
p2763
ag1483
aS'string'
p2764
aS'in'
p2765
aS'id'
p2766
aS'end'
p2767
aa(lp2768
S'let'
p2769
aS'var'
p2770
aS'id'
p2771
ag11
ag15
aS'id'
p2772
aS':='
p2773
aS'string'
p2774
aS'in'
p2775
aS'id'
p2776
aS'end'
p2777
aa(lp2778
S'let'
p2779
aS'type'
p2780
aS'id'
p2781
ag5
aS'array'
p2782
aS'of'
p2783
ag1010
aS'id'
p2784
aS'var'
p2785
aS'id'
p2786
aS':='
p2787
aS'id'
p2788
ag16
aS'integer'
p2789
ag18
aS'of'
p2790
aS'string'
p2791
aS'in'
p2792
aS'integer'
p2793
aS'end'
p2794
aa(lp2795
S'let'
p2796
aS'type'
p2797
aS'id'
p2798
ag5
aS'array'
p2799
aS'of'
p2800
aS'id'
p2801
aS'var'
p2802
aS'id'
p2803
aS':='
p2804
aS'id'
p2805
ag16
aS'integer'
p2806
ag18
aS'of'
p2807
aS'string'
p2808
ag864
aS'in'
p2809
aS'integer'
p2810
aS'end'
p2811
aa(lp2812
S'let'
p2813
aS'type'
p2814
aS'id'
p2815
ag5
aS'array'
p2816
aS'of'
p2817
aS'id'
p2818
aS'var'
p2819
aS'id'
p2820
aS':='
p2821
aS'id'
p2822
ag16
aS'integer'
p2823
ag18
ag148
aS'of'
p2824
aS'string'
p2825
aS'in'
p2826
aS'integer'
p2827
aS'end'
p2828
aa(lp2829
S'let'
p2830
aS'type'
p2831
aS'id'
p2832
ag5
aS'array'
p2833
aS'of'
p2834
aS'id'
p2835
aS'var'
p2836
aS'id'
p2837
aS':='
p2838
aS'id'
p2839
ag16
ag617
aS'integer'
p2840
ag18
aS'of'
p2841
aS'string'
p2842
aS'in'
p2843
aS'integer'
p2844
aS'end'
p2845
aa(lp2846
S'let'
p2847
aS'type'
p2848
aS'id'
p2849
ag5
aS'array'
p2850
aS'of'
p2851
aS'id'
p2852
aS'var'
p2853
aS'id'
p2854
aS':='
p2855
aS'id'
p2856
ag16
aS'integer'
p2857
ag18
aS'of'
p2858
ag337
aS'string'
p2859
aS'in'
p2860
aS'integer'
p2861
aS'end'
p2862
aa(lp2863
S'let'
p2864
aS'var'
p2865
aS'id'
p2866
aS':='
p2867
aS'id'
p2868
ag36
ag218
ag218
aS'in'
p2869
aS'integer'
p2870
aS'end'
p2871
aa(lp2872
S'let'
p2873
aS'var'
p2874
ag349
aS'id'
p2875
aS':='
p2876
aS'id'
p2877
ag36
ag218
aS'in'
p2878
aS'integer'
p2879
aS'end'
p2880
aa(lp2881
S'let'
p2882
aS'var'
p2883
aS'id'
p2884
aS':='
p2885
aS'id'
p2886
ag233
ag36
ag218
aS'in'
p2887
aS'integer'
p2888
aS'end'
p2889
aa(lp2890
S'let'
p2891
aS'var'
p2892
aS'id'
p2893
ag18
aS':='
p2894
aS'id'
p2895
ag36
ag218
aS'in'
p2896
aS'integer'
p2897
aS'end'
p2898
aa(lp2899
S'let'
p2900
aS'var'
p2901
aS'id'
p2902
ag18
aS':='
p2903
aS'id'
p2904
ag36
ag218
aS'in'
p2905
aS'integer'
p2906
aS'end'
p2907
aa(lp2908
S'let'
p2909
aS'function'
p2910
aS'id'
p2911
ag337
aS'id'
p2912
ag11
aS'id'
p2913
ag214
aS'id'
p2914
ag11
aS'id'
p2915
ag340
ag36
ag11
aS'id'
p2916
ag5
aS'id'
p2917
aS'in'
p2918
aS'id'
p2919
ag337
aS'string'
p2920
ag214
aS'string'
p2921
ag340
aS'end'
p2922
aa(lp2923
S'let'
p2924
aS'function'
p2925
aS'id'
p2926
ag337
aS'id'
p2927
ag11
aS'id'
p2928
ag214
aS'id'
p2929
ag11
aS'id'
p2930
ag569
ag340
ag11
aS'id'
p2931
ag5
aS'id'
p2932
aS'in'
p2933
aS'id'
p2934
ag337
aS'string'
p2935
ag214
aS'string'
p2936
ag340
aS'end'
p2937
aa(lp2938
S'let'
p2939
aS'function'
p2940
aS'id'
p2941
ag337
aS'id'
p2942
ag11
aS'id'
p2943
ag214
aS'id'
p2944
ag11
aS'id'
p2945
ag340
ag11
aS'id'
p2946
ag5
aS'id'
p2947
aS'in'
p2948
ag617
aS'id'
p2949
ag337
aS'string'
p2950
ag214
aS'string'
p2951
ag340
aS'end'
p2952
aa(lp2953
S'let'
p2954
aS'function'
p2955
aS'id'
p2956
ag337
aS'id'
p2957
ag11
aS'id'
p2958
ag214
aS'id'
p2959
ag11
aS'id'
p2960
ag864
ag340
ag11
aS'id'
p2961
ag5
aS'id'
p2962
aS'in'
p2963
aS'id'
p2964
ag337
aS'string'
p2965
ag214
aS'string'
p2966
ag340
aS'end'
p2967
aa(lp2968
S'let'
p2969
aS'function'
p2970
aS'id'
p2971
ag337
aS'id'
p2972
ag11
aS'id'
p2973
ag214
aS'id'
p2974
ag11
aS'id'
p2975
ag340
ag11
aS'id'
p2976
ag5
aS'id'
p2977
aS'in'
p2978
aS'id'
p2979
ag337
ag383
aS'string'
p2980
ag214
aS'string'
p2981
ag340
aS'end'
p2982
aa(lp2983
S'let'
p2984
aS'function'
p2985
aS'id'
p2986
ag337
aS'id'
p2987
ag11
aS'id'
p2988
ag214
aS'id'
p2989
ag11
aS'id'
p2990
ag340
ag11
aS'id'
p2991
ag5
aS'id'
p2992
aS'in'
p2993
aS'id'
p2994
ag337
ag337
aS'string'
p2995
ag340
aS'end'
p2996
aa(lp2997
S'let'
p2998
aS'function'
p2999
aS'id'
p3000
ag337
aS'id'
p3001
ag11
aS'id'
p3002
ag214
aS'id'
p3003
ag11
aS'id'
p3004
ag340
ag75
ag11
aS'id'
p3005
ag5
aS'id'
p3006
aS'in'
p3007
aS'id'
p3008
ag337
aS'string'
p3009
ag340
aS'end'
p3010
aa(lp3011
S'let'
p3012
aS'function'
p3013
aS'id'
p3014
ag337
aS'id'
p3015
ag11
aS'id'
p3016
ag214
aS'id'
p3017
ag11
aS'id'
p3018
ag340
ag11
ag454
aS'id'
p3019
ag5
aS'id'
p3020
aS'in'
p3021
aS'id'
p3022
ag337
aS'string'
p3023
ag340
aS'end'
p3024
aa(lp3025
S'let'
p3026
aS'function'
p3027
aS'id'
p3028
ag337
aS'id'
p3029
ag11
aS'id'
p3030
ag214
ag11
aS'id'
p3031
ag11
aS'id'
p3032
ag340
ag11
aS'id'
p3033
ag5
aS'id'
p3034
aS'in'
p3035
aS'id'
p3036
ag337
aS'string'
p3037
ag340
aS'end'
p3038
aa(lp3039
S'let'
p3040
aS'function'
p3041
aS'id'
p3042
ag337
aS'id'
p3043
ag11
aS'id'
p3044
ag214
aS'id'
p3045
ag11
aS'id'
p3046
ag340
ag11
aS'id'
p3047
aS'var'
p3048
ag5
aS'id'
p3049
aS'in'
p3050
aS'id'
p3051
ag337
aS'string'
p3052
ag340
aS'end'
p3053
aa(lp3054
S'let'
p3055
aS'function'
p3056
aS'id'
p3057
ag337
aS'id'
p3058
ag11
aS'id'
p3059
ag214
aS'id'
p3060
ag11
aS'id'
p3061
ag340
ag11
aS'id'
p3062
ag5
ag1483
aS'id'
p3063
aS'in'
p3064
aS'id'
p3065
ag337
aS'integer'
p3066
ag214
aS'string'
p3067
ag214
aS'integer'
p3068
ag340
aS'end'
p3069
aa(lp3070
S'let'
p3071
aS'function'
p3072
aS'id'
p3073
ag337
aS'id'
p3074
ag11
aS'id'
p3075
ag214
aS'id'
p3076
ag11
aS'id'
p3077
ag340
ag11
aS'id'
p3078
ag5
aS'id'
p3079
aS'in'
p3080
aS'id'
p3081
ag337
aS'integer'
p3082
ag214
aS'string'
p3083
ag214
ag1332
aS'integer'
p3084
ag340
aS'end'
p3085
aa(lp3086
S'let'
p3087
aS'function'
p3088
aS'id'
p3089
ag337
aS'id'
p3090
ag15
ag11
aS'id'
p3091
ag214
aS'id'
p3092
ag11
aS'id'
p3093
ag340
ag11
aS'id'
p3094
ag5
aS'id'
p3095
aS'in'
p3096
aS'id'
p3097
ag337
aS'integer'
p3098
ag214
aS'string'
p3099
ag214
aS'integer'
p3100
ag340
aS'end'
p3101
aa(lp3102
S'let'
p3103
aS'function'
p3104
aS'id'
p3105
ag337
aS'id'
p3106
ag11
aS'id'
p3107
ag214
aS'id'
p3108
ag11
aS'id'
p3109
ag340
ag11
aS'id'
p3110
ag5
aS'id'
p3111
aS'in'
p3112
aS'id'
p3113
ag337
ag1533
aS'integer'
p3114
ag214
aS'string'
p3115
ag214
aS'integer'
p3116
ag340
aS'end'
p3117
aa(lp3118
S'let'
p3119
aS'function'
p3120
aS'id'
p3121
ag337
aS'id'
p3122
ag11
aS'id'
p3123
ag214
aS'id'
p3124
ag11
aS'id'
p3125
ag340
ag11
aS'id'
p3126
ag5
aS'id'
p3127
aS'in'
p3128
aS'id'
p3129
ag337
aS'integer'
p3130
ag214
aS'string'
p3131
ag214
ag352
aS'integer'
p3132
ag340
aS'end'
p3133
aa(lp3134
S'let'
p3135
aS'var'
p3136
aS'id'
p3137
aS':='
p3138
aS'integer'
p3139
aS'var'
p3140
aS'id'
p3141
ag905
aS':='
p3142
aS'string'
p3143
aS'in'
p3144
aS'integer'
p3145
aS'end'
p3146
aa(lp3147
S'let'
p3148
aS'var'
p3149
aS'id'
p3150
aS':='
p3151
aS'integer'
p3152
aS'var'
p3153
ag216
aS'id'
p3154
aS':='
p3155
aS'string'
p3156
aS'in'
p3157
aS'integer'
p3158
aS'end'
p3159
aa(lp3160
S'let'
p3161
aS'var'
p3162
aS'id'
p3163
aS':='
p3164
aS'integer'
p3165
aS'var'
p3166
aS'id'
p3167
aS':='
p3168
aS'string'
p3169
ag5
aS'in'
p3170
aS'integer'
p3171
aS'end'
p3172
aa(lp3173
S'let'
p3174
aS'var'
p3175
aS'id'
p3176
ag349
aS':='
p3177
aS'integer'
p3178
aS'var'
p3179
aS'id'
p3180
aS':='
p3181
aS'string'
p3182
aS'in'
p3183
aS'integer'
p3184
aS'end'
p3185
aa(lp3186
S'let'
p3187
aS'var'
p3188
aS'id'
p3189
ag216
aS':='
p3190
aS'integer'
p3191
aS'var'
p3192
aS'id'
p3193
aS':='
p3194
aS'string'
p3195
aS'in'
p3196
aS'integer'
p3197
aS'end'
p3198
aa(lp3199
S'let'
p3200
aS'type'
p3201
aS'id'
p3202
ag5
aS'id'
p3203
aS'type'
p3204
aS'id'
p3205
ag1940
ag5
aS'id'
p3206
aS'in'
p3207
aS'integer'
p3208
aS'end'
p3209
aa(lp3210
S'let'
p3211
aS'type'
p3212
aS'id'
p3213
ag5
aS'id'
p3214
ag1533
aS'type'
p3215
aS'id'
p3216
ag5
aS'id'
p3217
aS'in'
p3218
aS'integer'
p3219
aS'end'
p3220
aa(lp3221
S'let'
p3222
aS'type'
p3223
aS'id'
p3224
ag5
aS'id'
p3225
ag864
aS'type'
p3226
aS'id'
p3227
ag5
aS'id'
p3228
aS'in'
p3229
aS'integer'
p3230
aS'end'
p3231
aa(lp3232
S'let'
p3233
aS'type'
p3234
aS'id'
p3235
ag5
aS'id'
p3236
ag2264
aS'type'
p3237
aS'id'
p3238
ag5
aS'id'
p3239
aS'in'
p3240
aS'integer'
p3241
aS'end'
p3242
aa(lp3243
S'let'
p3244
aS'type'
p3245
aS'id'
p3246
ag106
ag5
aS'id'
p3247
aS'type'
p3248
aS'id'
p3249
ag5
aS'id'
p3250
aS'in'
p3251
aS'integer'
p3252
aS'end'
p3253
aa(lp3254
S'let'
p3255
aS'function'
p3256
aS'id'
p3257
ag337
aS'id'
p3258
ag11
ag349
aS'id'
p3259
ag340
ag11
aS'id'
p3260
ag5
aS'id'
p3261
aS'function'
p3262
aS'id'
p3263
ag337
aS'id'
p3264
ag11
aS'id'
p3265
ag340
ag11
aS'id'
p3266
ag5
aS'id'
p3267
aS'in'
p3268
aS'integer'
p3269
aS'end'
p3270
aa(lp3271
S'let'
p3272
aS'function'
p3273
aS'id'
p3274
ag337
aS'id'
p3275
ag11
aS'id'
p3276
ag340
ag11
aS'id'
p3277
ag5
aS'id'
p3278
aS'function'
p3279
aS'id'
p3280
ag18
ag337
aS'id'
p3281
ag11
aS'id'
p3282
ag340
ag11
aS'id'
p3283
ag5
aS'id'
p3284
aS'in'
p3285
aS'integer'
p3286
aS'end'
p3287
aa(lp3288
S'let'
p3289
aS'function'
p3290
aS'id'
p3291
ag337
aS'id'
p3292
ag11
aS'id'
p3293
ag1018
ag340
ag11
aS'id'
p3294
ag5
aS'id'
p3295
aS'function'
p3296
aS'id'
p3297
ag337
aS'id'
p3298
ag11
aS'id'
p3299
ag340
ag11
aS'id'
p3300
ag5
aS'id'
p3301
aS'in'
p3302
aS'integer'
p3303
aS'end'
p3304
aa(lp3305
S'let'
p3306
aS'function'
p3307
aS'id'
p3308
ag337
ag340
aS'id'
p3309
ag11
aS'id'
p3310
ag340
ag11
aS'id'
p3311
ag5
aS'id'
p3312
aS'function'
p3313
aS'id'
p3314
ag337
aS'id'
p3315
ag11
aS'id'
p3316
ag340
ag11
aS'id'
p3317
ag5
aS'id'
p3318
aS'in'
p3319
aS'integer'
p3320
aS'end'
p3321
aa(lp3322
S'let'
p3323
aS'function'
p3324
aS'id'
p3325
ag337
aS'id'
p3326
ag11
aS'id'
p3327
ag340
ag11
ag216
aS'id'
p3328
ag5
aS'id'
p3329
aS'function'
p3330
aS'id'
p3331
ag337
aS'id'
p3332
ag11
aS'id'
p3333
ag340
ag11
aS'id'
p3334
ag5
aS'id'
p3335
aS'in'
p3336
aS'integer'
p3337
aS'end'
p3338
aa(lp3339
S'let'
p3340
aS'function'
p3341
aS'id'
p3342
ag58
ag337
aS'id'
p3343
ag11
aS'id'
p3344
ag340
ag5
aS'id'
p3345
aS'in'
p3346
aS'id'
p3347
ag337
aS'integer'
p3348
ag340
aS'end'
p3349
aa(lp3350
S'let'
p3351
aS'function'
p3352
aS'id'
p3353
ag337
aS'id'
p3354
ag11
aS'id'
p3355
ag340
ag5
aS'id'
p3356
aS'in'
p3357
ag1010
aS'id'
p3358
ag337
aS'integer'
p3359
ag340
aS'end'
p3360
aa(lp3361
S'let'
p3362
aS'function'
p3363
aS'id'
p3364
ag431
ag337
aS'id'
p3365
ag11
aS'id'
p3366
ag340
ag5
aS'id'
p3367
aS'in'
p3368
aS'id'
p3369
ag337
aS'integer'
p3370
ag340
aS'end'
p3371
aa(lp3372
S'let'
p3373
aS'function'
p3374
aS'id'
p3375
ag337
aS'id'
p3376
ag11
aS'id'
p3377
ag340
ag5
aS'id'
p3378
aS'in'
p3379
aS'id'
p3380
ag337
ag1018
aS'integer'
p3381
ag340
aS'end'
p3382
aa(lp3383
S'let'
p3384
aS'function'
p3385
aS'id'
p3386
ag337
aS'id'
p3387
ag11
aS'id'
p3388
ag340
ag5
aS'id'
p3389
aS'in'
p3390
aS'id'
p3391
ag337
ag214
aS'integer'
p3392
ag340
aS'end'
p3393
aa(lp3394
S'let'
p3395
aS'type'
p3396
aS'id'
p3397
ag5
aS'id'
p3398
aS'in'
p3399
ag16
aS'let'
p3400
aS'type'
p3401
aS'id'
p3402
ag5
aS'id'
p3403
aS'in'
p3404
aS'integer'
p3405
aS'end'
p3406
aS'end'
p3407
aa(lp3408
S'let'
p3409
aS'type'
p3410
aS'id'
p3411
ag5
aS'id'
p3412
ag864
aS'in'
p3413
aS'let'
p3414
aS'type'
p3415
aS'id'
p3416
ag5
aS'id'
p3417
aS'in'
p3418
aS'integer'
p3419
aS'end'
p3420
aS'end'
p3421
aa(lp3422
S'let'
p3423
aS'type'
p3424
aS'id'
p3425
ag337
ag5
aS'id'
p3426
aS'in'
p3427
aS'let'
p3428
aS'type'
p3429
aS'id'
p3430
ag5
aS'id'
p3431
aS'in'
p3432
aS'integer'
p3433
aS'end'
p3434
aS'end'
p3435
aa(lp3436
S'let'
p3437
aS'type'
p3438
aS'id'
p3439
ag5
aS'id'
p3440
ag1940
aS'in'
p3441
aS'let'
p3442
aS'type'
p3443
aS'id'
p3444
ag5
aS'id'
p3445
aS'in'
p3446
aS'integer'
p3447
aS'end'
p3448
aS'end'
p3449
aa(lp3450
S'let'
p3451
aS'type'
p3452
aS'id'
p3453
ag5
aS'id'
p3454
aS'in'
p3455
ag138
aS'let'
p3456
aS'type'
p3457
aS'id'
p3458
ag5
aS'id'
p3459
aS'in'
p3460
aS'integer'
p3461
aS'end'
p3462
aS'end'
p3463
aa(lp3464
S'let'
p3465
aS'type'
p3466
aS'id'
p3467
ag5
aS'array'
p3468
aS'of'
p3469
aS'id'
p3470
aS'type'
p3471
aS'id'
p3472
ag5
ag36
aS'id'
p3473
ag11
aS'id'
p3474
ag214
aS'id'
p3475
ag11
aS'id'
p3476
ag214
aS'id'
p3477
ag11
aS'id'
p3478
ag214
aS'id'
p3479
ag11
aS'id'
p3480
ag218
aS'type'
p3481
aS'id'
p3482
ag5
aS'array'
p3483
aS'of'
p3484
aS'id'
p3485
aS'type'
p3486
aS'id'
p3487
ag5
ag36
aS'id'
p3488
ag11
aS'id'
p3489
ag214
aS'id'
p3490
ag11
aS'id'
p3491
ag218
aS'type'
p3492
aS'id'
p3493
ag5
aS'array'
p3494
aS'of'
p3495
aS'id'
p3496
aS'var'
p3497
aS'id'
p3498
aS':='
p3499
aS'id'
p3500
ag16
aS'integer'
p3501
ag18
aS'of'
p3502
aS'integer'
p3503
aS'var'
p3504
aS'id'
p3505
aS':='
p3506
aS'id'
p3507
ag16
aS'integer'
p3508
ag18
aS'of'
p3509
aS'id'
p3510
ag36
aS'id'
p3511
ag5
aS'string'
p3512
ag214
aS'id'
p3513
ag5
aS'string'
p3514
ag214
aS'id'
p3515
ag5
aS'integer'
p3516
ag214
aS'id'
p3517
ag5
aS'integer'
p3518
ag218
aS'var'
p3519
aS'id'
p3520
ag11
aS'id'
p3521
aS':='
p3522
aS'id'
p3523
ag16
aS'integer'
p3524
ag18
aS'of'
p3525
aS'string'
p3526
aS'var'
p3527
aS'id'
p3528
aS':='
p3529
aS'id'
p3530
ag36
aS'id'
p3531
ag5
aS'string'
p3532
ag214
aS'id'
p3533
ag5
aS'string'
p3534
ag214
aS'id'
p3535
ag5
aS'integer'
p3536
ag214
aS'id'
p3537
ag5
aS'integer'
p3538
ag218
aS'var'
p3539
aS'id'
p3540
aS':='
p3541
aS'id'
p3542
ag36
aS'id'
p3543
ag5
aS'string'
p3544
ag214
aS'id'
p3545
ag5
aS'id'
p3546
ag16
aS'integer'
p3547
ag18
aS'of'
p3548
aS'integer'
p3549
ag218
aS'in'
p3550
aS'id'
p3551
ag16
aS'integer'
p3552
ag18
aS':='
p3553
aS'integer'
p3554
ag233
aS'id'
p3555
ag16
aS'integer'
p3556
ag18
aS':='
p3557
aS'integer'
p3558
ag233
aS'id'
p3559
ag16
aS'integer'
p3560
ag18
ag90
aS'id'
p3561
aS':='
p3562
aS'string'
p3563
ag233
aS'id'
p3564
ag16
aS'integer'
p3565
ag18
ag90
aS'id'
p3566
aS':='
p3567
aS'integer'
p3568
ag233
aS'id'
p3569
ag16
aS'integer'
p3570
ag18
aS':='
p3571
aS'string'
p3572
ag233
aS'id'
p3573
ag90
aS'id'
p3574
aS':='
p3575
aS'string'
p3576
ag233
aS'id'
p3577
ag90
aS'id'
p3578
ag16
aS'integer'
p3579
ag18
aS':='
p3580
aS'integer'
p3581
ag233
ag905
aS'id'
p3582
ag90
aS'id'
p3583
ag16
aS'integer'
p3584
ag18
aS':='
p3585
aS'integer'
p3586
aS'end'
p3587
aa(lp3588
S'let'
p3589
aS'type'
p3590
aS'id'
p3591
ag5
aS'array'
p3592
aS'of'
p3593
aS'id'
p3594
aS'type'
p3595
aS'id'
p3596
ag5
ag36
aS'id'
p3597
ag11
aS'id'
p3598
ag214
aS'id'
p3599
ag11
aS'id'
p3600
ag214
aS'id'
p3601
ag11
aS'id'
p3602
ag214
aS'id'
p3603
ag11
aS'id'
p3604
ag1332
ag218
aS'type'
p3605
aS'id'
p3606
ag5
aS'array'
p3607
aS'of'
p3608
aS'id'
p3609
aS'type'
p3610
aS'id'
p3611
ag5
ag36
aS'id'
p3612
ag11
aS'id'
p3613
ag214
aS'id'
p3614
ag11
aS'id'
p3615
ag218
aS'type'
p3616
aS'id'
p3617
ag5
aS'array'
p3618
aS'of'
p3619
aS'id'
p3620
aS'var'
p3621
aS'id'
p3622
aS':='
p3623
aS'id'
p3624
ag16
aS'integer'
p3625
ag18
aS'of'
p3626
aS'integer'
p3627
aS'var'
p3628
aS'id'
p3629
aS':='
p3630
aS'id'
p3631
ag16
aS'integer'
p3632
ag18
aS'of'
p3633
aS'id'
p3634
ag36
aS'id'
p3635
ag5
aS'string'
p3636
ag214
aS'id'
p3637
ag5
aS'string'
p3638
ag214
aS'id'
p3639
ag5
aS'integer'
p3640
ag214
aS'id'
p3641
ag5
aS'integer'
p3642
ag218
aS'var'
p3643
aS'id'
p3644
ag11
aS'id'
p3645
aS':='
p3646
aS'id'
p3647
ag16
aS'integer'
p3648
ag18
aS'of'
p3649
aS'string'
p3650
aS'var'
p3651
aS'id'
p3652
aS':='
p3653
aS'id'
p3654
ag36
aS'id'
p3655
ag5
aS'string'
p3656
ag214
aS'id'
p3657
ag5
aS'string'
p3658
ag214
aS'id'
p3659
ag5
aS'integer'
p3660
ag214
aS'id'
p3661
ag5
aS'integer'
p3662
ag218
aS'var'
p3663
aS'id'
p3664
aS':='
p3665
aS'id'
p3666
ag36
aS'id'
p3667
ag5
aS'string'
p3668
ag214
aS'id'
p3669
ag5
aS'id'
p3670
ag16
aS'integer'
p3671
ag18
aS'of'
p3672
aS'integer'
p3673
ag218
aS'in'
p3674
aS'id'
p3675
ag16
aS'integer'
p3676
ag18
aS':='
p3677
aS'integer'
p3678
ag233
aS'id'
p3679
ag16
aS'integer'
p3680
ag18
aS':='
p3681
aS'integer'
p3682
ag233
aS'id'
p3683
ag16
aS'integer'
p3684
ag18
ag90
aS'id'
p3685
aS':='
p3686
aS'string'
p3687
ag233
aS'id'
p3688
ag16
aS'integer'
p3689
ag18
ag90
aS'id'
p3690
aS':='
p3691
aS'integer'
p3692
ag233
aS'id'
p3693
ag16
aS'integer'
p3694
ag18
aS':='
p3695
aS'string'
p3696
ag233
aS'id'
p3697
ag90
aS'id'
p3698
aS':='
p3699
aS'string'
p3700
ag233
aS'id'
p3701
ag90
aS'id'
p3702
ag16
aS'integer'
p3703
ag18
aS':='
p3704
aS'integer'
p3705
ag233
aS'id'
p3706
ag90
aS'id'
p3707
ag16
aS'integer'
p3708
ag18
aS':='
p3709
aS'integer'
p3710
aS'end'
p3711
aa(lp3712
S'let'
p3713
aS'type'
p3714
aS'id'
p3715
ag5
aS'array'
p3716
aS'of'
p3717
aS'id'
p3718
aS'type'
p3719
aS'id'
p3720
ag5
ag36
aS'id'
p3721
ag11
aS'id'
p3722
ag214
aS'id'
p3723
ag11
aS'id'
p3724
ag1010
ag214
aS'id'
p3725
ag11
aS'id'
p3726
ag214
aS'id'
p3727
ag11
aS'id'
p3728
ag218
aS'type'
p3729
aS'id'
p3730
ag5
aS'array'
p3731
aS'of'
p3732
aS'id'
p3733
aS'type'
p3734
aS'id'
p3735
ag5
ag36
aS'id'
p3736
ag11
aS'id'
p3737
ag214
aS'id'
p3738
ag11
aS'id'
p3739
ag218
aS'type'
p3740
aS'id'
p3741
ag5
aS'array'
p3742
aS'of'
p3743
aS'id'
p3744
aS'var'
p3745
aS'id'
p3746
aS':='
p3747
aS'id'
p3748
ag16
aS'integer'
p3749
ag18
aS'of'
p3750
aS'integer'
p3751
aS'var'
p3752
aS'id'
p3753
aS':='
p3754
aS'id'
p3755
ag16
aS'integer'
p3756
ag18
aS'of'
p3757
aS'id'
p3758
ag36
aS'id'
p3759
ag5
aS'string'
p3760
ag214
aS'id'
p3761
ag5
aS'string'
p3762
ag214
aS'id'
p3763
ag5
aS'integer'
p3764
ag214
aS'id'
p3765
ag5
aS'integer'
p3766
ag218
aS'var'
p3767
aS'id'
p3768
ag11
aS'id'
p3769
aS':='
p3770
aS'id'
p3771
ag16
aS'integer'
p3772
ag18
aS'of'
p3773
aS'string'
p3774
aS'var'
p3775
aS'id'
p3776
aS':='
p3777
aS'id'
p3778
ag36
aS'id'
p3779
ag5
aS'string'
p3780
ag214
aS'id'
p3781
ag5
aS'string'
p3782
ag214
aS'id'
p3783
ag5
aS'integer'
p3784
ag214
aS'id'
p3785
ag5
aS'integer'
p3786
ag218
aS'var'
p3787
aS'id'
p3788
aS':='
p3789
aS'id'
p3790
ag36
aS'id'
p3791
ag5
aS'string'
p3792
ag214
aS'id'
p3793
ag5
aS'id'
p3794
ag16
aS'integer'
p3795
ag18
aS'of'
p3796
aS'integer'
p3797
ag218
aS'in'
p3798
aS'id'
p3799
ag16
aS'integer'
p3800
ag18
aS':='
p3801
aS'integer'
p3802
ag233
aS'id'
p3803
ag16
aS'integer'
p3804
ag18
aS':='
p3805
aS'integer'
p3806
ag233
aS'id'
p3807
ag16
aS'integer'
p3808
ag18
ag90
aS'id'
p3809
aS':='
p3810
aS'string'
p3811
ag233
aS'id'
p3812
ag16
aS'integer'
p3813
ag18
ag90
aS'id'
p3814
aS':='
p3815
aS'integer'
p3816
ag233
aS'id'
p3817
ag16
aS'integer'
p3818
ag18
aS':='
p3819
aS'string'
p3820
ag233
aS'id'
p3821
ag90
aS'id'
p3822
aS':='
p3823
aS'string'
p3824
ag233
aS'id'
p3825
ag90
aS'id'
p3826
ag16
aS'integer'
p3827
ag18
aS':='
p3828
aS'integer'
p3829
ag233
aS'id'
p3830
ag90
aS'id'
p3831
ag16
aS'integer'
p3832
ag18
aS':='
p3833
aS'integer'
p3834
aS'end'
p3835
aa(lp3836
S'let'
p3837
aS'type'
p3838
aS'id'
p3839
ag5
aS'array'
p3840
aS'of'
p3841
aS'id'
p3842
aS'type'
p3843
aS'id'
p3844
ag5
ag36
aS'id'
p3845
ag11
aS'id'
p3846
ag214
aS'id'
p3847
ag11
aS'id'
p3848
ag214
aS'id'
p3849
ag11
aS'id'
p3850
ag214
aS'id'
p3851
ag11
aS'id'
p3852
ag218
aS'type'
p3853
aS'id'
p3854
ag5
aS'array'
p3855
aS'of'
p3856
aS'id'
p3857
aS'type'
p3858
aS'id'
p3859
ag5
ag36
aS'id'
p3860
ag11
aS'id'
p3861
ag214
aS'id'
p3862
ag11
aS'id'
p3863
ag218
aS'type'
p3864
aS'id'
p3865
ag5
aS'array'
p3866
aS'of'
p3867
aS'id'
p3868
aS'var'
p3869
aS'id'
p3870
aS':='
p3871
aS'id'
p3872
ag16
aS'integer'
p3873
ag18
aS'of'
p3874
aS'integer'
p3875
aS'var'
p3876
aS'id'
p3877
aS':='
p3878
aS'id'
p3879
ag16
aS'integer'
p3880
ag18
aS'of'
p3881
aS'id'
p3882
ag36
aS'id'
p3883
ag5
aS'string'
p3884
ag214
aS'id'
p3885
ag5
aS'string'
p3886
ag214
aS'id'
p3887
ag5
aS'integer'
p3888
ag214
aS'id'
p3889
ag5
aS'integer'
p3890
ag218
aS'var'
p3891
aS'id'
p3892
ag11
aS'id'
p3893
aS':='
p3894
aS'id'
p3895
ag16
aS'integer'
p3896
ag18
aS'of'
p3897
aS'string'
p3898
aS'var'
p3899
aS'id'
p3900
aS':='
p3901
aS'id'
p3902
ag36
aS'id'
p3903
ag5
aS'string'
p3904
ag214
aS'id'
p3905
ag5
aS'string'
p3906
ag214
aS'id'
p3907
ag5
aS'integer'
p3908
ag214
aS'id'
p3909
ag5
aS'integer'
p3910
ag218
aS'var'
p3911
aS'id'
p3912
aS':='
p3913
aS'id'
p3914
ag36
aS'id'
p3915
ag5
aS'string'
p3916
ag214
aS'id'
p3917
ag5
aS'id'
p3918
ag16
aS'integer'
p3919
ag18
aS'of'
p3920
aS'integer'
p3921
ag218
ag1313
aS'in'
p3922
aS'id'
p3923
ag16
aS'integer'
p3924
ag18
aS':='
p3925
aS'integer'
p3926
ag233
aS'id'
p3927
ag16
aS'integer'
p3928
ag18
aS':='
p3929
aS'integer'
p3930
ag233
aS'id'
p3931
ag16
aS'integer'
p3932
ag18
ag90
aS'id'
p3933
aS':='
p3934
aS'string'
p3935
ag233
aS'id'
p3936
ag16
aS'integer'
p3937
ag18
ag90
aS'id'
p3938
aS':='
p3939
aS'integer'
p3940
ag233
aS'id'
p3941
ag16
aS'integer'
p3942
ag18
aS':='
p3943
aS'string'
p3944
ag233
aS'id'
p3945
ag90
aS'id'
p3946
aS':='
p3947
aS'string'
p3948
ag233
aS'id'
p3949
ag90
aS'id'
p3950
ag16
aS'integer'
p3951
ag18
aS':='
p3952
aS'integer'
p3953
ag233
aS'id'
p3954
ag90
aS'id'
p3955
ag16
aS'integer'
p3956
ag18
aS':='
p3957
aS'integer'
p3958
aS'end'
p3959
aa(lp3960
S'let'
p3961
aS'type'
p3962
aS'id'
p3963
ag5
aS'array'
p3964
aS'of'
p3965
aS'id'
p3966
aS'type'
p3967
aS'id'
p3968
ag5
ag36
aS'id'
p3969
ag11
aS'id'
p3970
ag214
aS'id'
p3971
ag11
aS'id'
p3972
ag214
aS'id'
p3973
ag11
aS'id'
p3974
ag214
aS'id'
p3975
ag11
aS'id'
p3976
ag218
aS'type'
p3977
aS'id'
p3978
ag5
aS'array'
p3979
aS'of'
p3980
aS'id'
p3981
aS'type'
p3982
aS'id'
p3983
ag5
ag36
aS'id'
p3984
ag11
aS'id'
p3985
ag214
aS'id'
p3986
ag11
aS'id'
p3987
ag218
aS'type'
p3988
aS'id'
p3989
ag5
aS'array'
p3990
aS'of'
p3991
ag218
aS'id'
p3992
aS'var'
p3993
aS'id'
p3994
aS':='
p3995
aS'id'
p3996
ag16
aS'integer'
p3997
ag18
aS'of'
p3998
aS'integer'
p3999
aS'var'
p4000
aS'id'
p4001
aS':='
p4002
aS'id'
p4003
ag16
aS'integer'
p4004
ag18
aS'of'
p4005
aS'id'
p4006
ag36
aS'id'
p4007
ag5
aS'string'
p4008
ag214
aS'id'
p4009
ag5
aS'string'
p4010
ag214
aS'id'
p4011
ag5
aS'integer'
p4012
ag214
aS'id'
p4013
ag5
aS'integer'
p4014
ag218
aS'var'
p4015
aS'id'
p4016
ag11
aS'id'
p4017
aS':='
p4018
aS'id'
p4019
ag16
aS'integer'
p4020
ag18
aS'of'
p4021
aS'string'
p4022
aS'var'
p4023
aS'id'
p4024
aS':='
p4025
aS'id'
p4026
ag36
aS'id'
p4027
ag5
aS'string'
p4028
ag214
aS'id'
p4029
ag5
aS'string'
p4030
ag214
aS'id'
p4031
ag5
aS'integer'
p4032
ag214
aS'id'
p4033
ag5
aS'integer'
p4034
ag218
aS'var'
p4035
aS'id'
p4036
aS':='
p4037
aS'id'
p4038
ag36
aS'id'
p4039
ag5
aS'string'
p4040
ag214
aS'id'
p4041
ag5
aS'id'
p4042
ag16
aS'integer'
p4043
ag18
aS'of'
p4044
aS'integer'
p4045
ag218
aS'in'
p4046
aS'id'
p4047
ag16
aS'integer'
p4048
ag18
aS':='
p4049
aS'integer'
p4050
ag233
aS'id'
p4051
ag16
aS'integer'
p4052
ag18
aS':='
p4053
aS'integer'
p4054
ag233
aS'id'
p4055
ag16
aS'integer'
p4056
ag18
ag90
aS'id'
p4057
aS':='
p4058
aS'string'
p4059
ag233
aS'id'
p4060
ag16
aS'integer'
p4061
ag18
ag90
aS'id'
p4062
aS':='
p4063
aS'integer'
p4064
ag233
aS'id'
p4065
ag16
aS'integer'
p4066
ag18
aS':='
p4067
aS'string'
p4068
ag233
aS'id'
p4069
ag90
aS'id'
p4070
aS':='
p4071
aS'string'
p4072
ag233
aS'id'
p4073
ag90
aS'id'
p4074
ag16
aS'integer'
p4075
ag18
aS':='
p4076
aS'integer'
p4077
ag233
aS'id'
p4078
ag90
aS'id'
p4079
ag16
aS'integer'
p4080
ag18
aS':='
p4081
aS'integer'
p4082
aS'end'
p4083
aa(lp4084
S'let'
p4085
aS'var'
p4086
aS'id'
p4087
ag864
aS':='
p4088
ag337
ag340
aS'in'
p4089
aS'id'
p4090
ag617
aS'integer'
p4091
aS'end'
p4092
aa(lp4093
S'let'
p4094
aS'var'
p4095
aS'id'
p4096
aS':='
p4097
ag337
ag340
ag58
aS'in'
p4098
aS'id'
p4099
ag617
aS'integer'
p4100
aS'end'
p4101
aa(lp4102
S'let'
p4103
aS'var'
p4104
aS'id'
p4105
ag569
aS':='
p4106
ag337
ag340
aS'in'
p4107
aS'id'
p4108
ag617
aS'integer'
p4109
aS'end'
p4110
aa(lp4111
S'let'
p4112
aS'var'
p4113
aS'id'
p4114
aS':='
p4115
ag216
ag337
ag340
aS'in'
p4116
aS'id'
p4117
ag617
aS'integer'
p4118
aS'end'
p4119
aa(lp4120
S'let'
p4121
aS'var'
p4122
aS'id'
p4123
aS':='
p4124
ag337
ag1313
ag340
aS'in'
p4125
aS'id'
p4126
ag617
aS'integer'
p4127
aS'end'
p4128
aa(lp4129
S'let'
p4130
aS'type'
p4131
aS'id'
p4132
ag5
ag36
aS'id'
p4133
ag11
aS'id'
p4134
ag214
ag569
aS'id'
p4135
ag11
aS'id'
p4136
ag218
aS'var'
p4137
aS'id'
p4138
ag11
aS'id'
p4139
aS':='
p4140
aS'nil'
p4141
aS'in'
p4142
aS'id'
p4143
aS':='
p4144
aS'nil'
p4145
aS'end'
p4146
aa(lp4147
S'let'
p4148
aS'type'
p4149
aS'id'
p4150
ag5
ag36
aS'id'
p4151
ag11
aS'id'
p4152
ag214
aS'id'
p4153
ag11
aS'id'
p4154
ag218
aS'var'
p4155
aS'id'
p4156
ag11
aS'id'
p4157
ag251
aS':='
p4158
aS'nil'
p4159
aS'in'
p4160
aS'id'
p4161
aS':='
p4162
aS'nil'
p4163
aS'end'
p4164
aa(lp4165
S'let'
p4166
aS'type'
p4167
aS'id'
p4168
ag5
ag36
aS'id'
p4169
ag11
aS'id'
p4170
ag214
aS'id'
p4171
ag11
aS'id'
p4172
ag218
aS'var'
p4173
aS'id'
p4174
ag11
ag148
aS'id'
p4175
aS':='
p4176
aS'nil'
p4177
aS'in'
p4178
aS'id'
p4179
aS':='
p4180
aS'nil'
p4181
aS'end'
p4182
aa(lp4183
S'let'
p4184
aS'type'
p4185
aS'id'
p4186
ag5
ag36
aS'id'
p4187
ag11
aS'id'
p4188
ag214
aS'id'
p4189
ag11
aS'id'
p4190
ag218
aS'var'
p4191
aS'id'
p4192
ag11
ag214
aS'id'
p4193
aS':='
p4194
aS'nil'
p4195
aS'in'
p4196
aS'id'
p4197
aS':='
p4198
aS'nil'
p4199
aS'end'
p4200
aa(lp4201
S'let'
p4202
aS'type'
p4203
aS'id'
p4204
ag5
ag1483
ag36
aS'id'
p4205
ag11
aS'id'
p4206
ag214
aS'id'
p4207
ag11
aS'id'
p4208
ag218
aS'var'
p4209
aS'id'
p4210
ag11
aS'id'
p4211
aS':='
p4212
aS'nil'
p4213
aS'in'
p4214
aS'id'
p4215
aS':='
p4216
aS'nil'
p4217
aS'end'
p4218
aa(lp4219
S'let'
p4220
aS'type'
p4221
aS'id'
p4222
ag5
ag36
aS'id'
p4223
ag11
aS'id'
p4224
ag214
aS'id'
p4225
ag11
aS'id'
p4226
ag218
aS'var'
p4227
aS'id'
p4228
aS':='
p4229
aS'nil'
p4230
ag11
aS'in'
p4231
aS'id'
p4232
aS'end'
p4233
aa(lp4234
S'let'
p4235
aS'type'
p4236
aS'id'
p4237
ag5
ag36
ag1018
aS'id'
p4238
ag11
aS'id'
p4239
ag214
aS'id'
p4240
ag11
aS'id'
p4241
ag218
aS'var'
p4242
aS'id'
p4243
aS':='
p4244
aS'nil'
p4245
aS'in'
p4246
aS'id'
p4247
aS'end'
p4248
aa(lp4249
S'let'
p4250
aS'type'
p4251
aS'id'
p4252
ag5
ag36
aS'id'
p4253
ag11
ag5
aS'id'
p4254
ag214
aS'id'
p4255
ag11
aS'id'
p4256
ag218
aS'var'
p4257
aS'id'
p4258
aS':='
p4259
aS'nil'
p4260
aS'in'
p4261
aS'id'
p4262
aS'end'
p4263
aa(lp4264
S'let'
p4265
aS'type'
p4266
aS'id'
p4267
ag5
ag36
aS'id'
p4268
ag11
aS'id'
p4269
ag214
aS'id'
p4270
ag11
aS'id'
p4271
ag218
aS'var'
p4272
aS'id'
p4273
aS':='
p4274
aS'nil'
p4275
ag1313
aS'in'
p4276
aS'id'
p4277
aS'end'
p4278
aa(lp4279
S'let'
p4280
aS'type'
p4281
aS'id'
p4282
ag5
ag36
aS'id'
p4283
ag11
aS'id'
p4284
ag214
aS'id'
p4285
ag11
aS'id'
p4286
ag218
ag1332
aS'var'
p4287
aS'id'
p4288
aS':='
p4289
aS'nil'
p4290
aS'in'
p4291
aS'id'
p4292
aS'end'
p4293
aa(lp4294
S'let'
p4295
aS'type'
p4296
aS'id'
p4297
ag5
ag36
aS'id'
p4298
ag11
aS'id'
p4299
ag214
aS'id'
p4300
ag11
aS'id'
p4301
ag218
aS'var'
p4302
aS'id'
p4303
ag11
aS'id'
p4304
aS':='
p4305
aS'nil'
p4306
aS'in'
p4307
aS'id'
p4308
ag5
aS'nil'
p4309
ag58
ag233
aS'id'
p4310
aS'<>'
p4311
aS'nil'
p4312
aS'end'
p4313
aa(lp4314
S'let'
p4315
aS'type'
p4316
aS'id'
p4317
ag5
ag36
aS'id'
p4318
ag11
aS'id'
p4319
ag214
aS'id'
p4320
ag11
aS'id'
p4321
ag218
aS'var'
p4322
aS'id'
p4323
ag11
aS'id'
p4324
aS':='
p4325
aS'nil'
p4326
aS'in'
p4327
aS'id'
p4328
ag5
aS'nil'
p4329
ag218
ag233
aS'id'
p4330
aS'<>'
p4331
aS'nil'
p4332
aS'end'
p4333
aa(lp4334
S'let'
p4335
aS'type'
p4336
aS'id'
p4337
ag5
ag36
aS'id'
p4338
ag11
aS'id'
p4339
ag2264
ag214
aS'id'
p4340
ag11
aS'id'
p4341
ag218
aS'var'
p4342
aS'id'
p4343
ag11
aS'id'
p4344
aS':='
p4345
aS'nil'
p4346
aS'in'
p4347
aS'id'
p4348
ag5
aS'nil'
p4349
ag233
aS'id'
p4350
aS'<>'
p4351
aS'nil'
p4352
aS'end'
p4353
aa(lp4354
S'let'
p4355
aS'type'
p4356
aS'id'
p4357
ag5
ag36
aS'id'
p4358
ag11
aS'id'
p4359
ag214
aS'id'
p4360
ag11
aS'id'
p4361
ag218
aS'var'
p4362
aS'id'
p4363
ag11
aS'id'
p4364
aS':='
p4365
aS'nil'
p4366
aS'in'
p4367
aS'id'
p4368
ag349
ag5
aS'nil'
p4369
ag233
aS'id'
p4370
aS'<>'
p4371
aS'nil'
p4372
aS'end'
p4373
aa(lp4374
S'let'
p4375
aS'type'
p4376
aS'id'
p4377
ag5
ag36
aS'id'
p4378
ag11
aS'id'
p4379
ag214
ag1332
aS'id'
p4380
ag11
aS'id'
p4381
ag218
aS'var'
p4382
aS'id'
p4383
ag11
aS'id'
p4384
aS':='
p4385
aS'nil'
p4386
aS'in'
p4387
aS'id'
p4388
ag5
aS'nil'
p4389
ag233
aS'id'
p4390
aS'<>'
p4391
aS'nil'
p4392
aS'end'
p4393
aa(lp4394
S'let'
p4395
aS'type'
p4396
aS'id'
p4397
ag5
aS'id'
p4398
ag90
aS'var'
p4399
aS'id'
p4400
aS':='
p4401
aS'integer'
p4402
aS'type'
p4403
aS'id'
p4404
ag5
aS'id'
p4405
aS'in'
p4406
aS'integer'
p4407
aS'end'
p4408
aa(lp4409
S'let'
p4410
aS'type'
p4411
aS'id'
p4412
ag5
aS'id'
p4413
aS'var'
p4414
aS'id'
p4415
aS':='
p4416
aS'integer'
p4417
aS'type'
p4418
aS'id'
p4419
ag11
ag5
aS'id'
p4420
aS'in'
p4421
aS'integer'
p4422
aS'end'
p4423
aa(lp4424
S'let'
p4425
aS'type'
p4426
aS'id'
p4427
ag5
aS'id'
p4428
ag251
aS'var'
p4429
aS'id'
p4430
aS':='
p4431
aS'integer'
p4432
aS'type'
p4433
aS'id'
p4434
ag5
aS'id'
p4435
aS'in'
p4436
aS'integer'
p4437
aS'end'
p4438
aa(lp4439
S'let'
p4440
aS'type'
p4441
aS'id'
p4442
ag5
aS'id'
p4443
aS'var'
p4444
ag2370
aS'id'
p4445
aS':='
p4446
aS'integer'
p4447
aS'type'
p4448
aS'id'
p4449
ag5
aS'id'
p4450
aS'in'
p4451
aS'integer'
p4452
aS'end'
p4453
aa(lp4454
S'let'
p4455
aS'type'
p4456
aS'id'
p4457
ag5
aS'id'
p4458
aS'var'
p4459
aS'id'
p4460
ag214
aS':='
p4461
aS'integer'
p4462
aS'type'
p4463
aS'id'
p4464
ag5
aS'id'
p4465
aS'in'
p4466
aS'integer'
p4467
aS'end'
p4468
aa(lp4469
S'let'
p4470
aS'function'
p4471
aS'id'
p4472
ag337
aS'id'
p4473
ag11
aS'id'
p4474
ag340
ag18
ag11
aS'id'
p4475
ag5
aS'id'
p4476
aS'type'
p4477
aS'id'
p4478
ag5
aS'id'
p4479
aS'function'
p4480
aS'id'
p4481
ag337
aS'id'
p4482
ag11
aS'id'
p4483
ag340
ag11
aS'id'
p4484
ag5
aS'id'
p4485
aS'in'
p4486
aS'integer'
p4487
aS'end'
p4488
aa(lp4489
S'let'
p4490
aS'function'
p4491
aS'id'
p4492
ag337
aS'id'
p4493
ag11
ag1313
aS'id'
p4494
ag340
ag11
aS'id'
p4495
ag5
aS'id'
p4496
aS'type'
p4497
aS'id'
p4498
ag5
aS'id'
p4499
aS'function'
p4500
aS'id'
p4501
ag337
aS'id'
p4502
ag11
aS'id'
p4503
ag340
ag11
aS'id'
p4504
ag5
aS'id'
p4505
aS'in'
p4506
aS'integer'
p4507
aS'end'
p4508
aa(lp4509
S'let'
p4510
aS'function'
p4511
aS'id'
p4512
ag337
ag75
aS'id'
p4513
ag11
aS'id'
p4514
ag340
ag11
aS'id'
p4515
ag5
aS'id'
p4516
aS'type'
p4517
aS'id'
p4518
ag5
aS'id'
p4519
aS'function'
p4520
aS'id'
p4521
ag337
aS'id'
p4522
ag11
aS'id'
p4523
ag340
ag11
aS'id'
p4524
ag5
aS'id'
p4525
aS'in'
p4526
aS'integer'
p4527
aS'end'
p4528
aa(lp4529
S'let'
p4530
aS'function'
p4531
aS'id'
p4532
ag337
aS'id'
p4533
ag11
aS'id'
p4534
ag340
ag11
aS'id'
p4535
ag5
aS'id'
p4536
aS'type'
p4537
aS'id'
p4538
ag5
aS'id'
p4539
aS'function'
p4540
aS'id'
p4541
ag337
aS'id'
p4542
ag11
aS'id'
p4543
ag340
ag11
aS'id'
p4544
ag106
ag5
aS'id'
p4545
aS'in'
p4546
aS'integer'
p4547
aS'end'
p4548
aa(lp4549
S'let'
p4550
aS'function'
p4551
aS'id'
p4552
ag337
aS'id'
p4553
ag11
aS'id'
p4554
ag340
ag11
aS'id'
p4555
ag5
aS'id'
p4556
aS'type'
p4557
aS'id'
p4558
ag5
aS'id'
p4559
aS'function'
p4560
aS'id'
p4561
ag337
aS'id'
p4562
ag11
aS'id'
p4563
ag340
ag340
ag11
aS'id'
p4564
ag5
aS'id'
p4565
aS'in'
p4566
aS'integer'
p4567
aS'end'
p4568
aa(lp4569
S'let'
p4570
aS'type'
p4571
aS'id'
p4572
ag5
ag36
aS'id'
p4573
ag11
aS'id'
p4574
ag16
ag214
aS'id'
p4575
ag11
aS'id'
p4576
ag218
aS'var'
p4577
aS'id'
p4578
aS':='
p4579
aS'id'
p4580
aS'nil'
p4581
aS'in'
p4582
aS'id'
p4583
aS'end'
p4584
aa(lp4585
S'let'
p4586
aS'type'
p4587
aS'id'
p4588
ag5
ag36
aS'id'
p4589
ag11
aS'id'
p4590
ag214
aS'id'
p4591
ag11
aS'id'
p4592
ag218
aS'var'
p4593
aS'id'
p4594
aS':='
p4595
aS'id'
p4596
aS'nil'
p4597
ag1010
aS'in'
p4598
aS'id'
p4599
aS'end'
p4600
aa(lp4601
S'let'
p4602
aS'type'
p4603
ag1533
aS'id'
p4604
ag5
ag36
aS'id'
p4605
ag11
aS'id'
p4606
ag214
aS'id'
p4607
ag11
aS'id'
p4608
ag218
aS'var'
p4609
aS'id'
p4610
aS':='
p4611
aS'id'
p4612
aS'nil'
p4613
aS'in'
p4614
aS'id'
p4615
aS'end'
p4616
aa(lp4617
S'let'
p4618
aS'type'
p4619
aS'id'
p4620
ag5
ag36
aS'id'
p4621
ag11
aS'id'
p4622
ag214
ag1940
aS'id'
p4623
ag11
aS'id'
p4624
ag218
aS'var'
p4625
aS'id'
p4626
aS':='
p4627
aS'id'
p4628
aS'nil'
p4629
aS'in'
p4630
aS'id'
p4631
aS'end'
p4632
aa(lp4633
S'let'
p4634
aS'type'
p4635
aS'id'
p4636
ag5
ag36
aS'id'
p4637
ag11
aS'id'
p4638
ag214
aS'id'
p4639
ag11
aS'id'
p4640
ag218
aS'var'
p4641
aS'id'
p4642
aS':='
p4643
ag90
aS'id'
p4644
aS'nil'
p4645
aS'in'
p4646
aS'id'
p4647
aS'end'
p4648
aa.