(dp0
(S'var'
p1
S'id'
p2
tp3
I8131
s(S'in'
p4
S'if'
p5
tp6
I317
s(S'while'
p7
S'integer'
p8
tp9
I2161
s(S')'
p10
S'then'
p11
tp12
I3392
s(S'('
p13
g10
tp14
I31179
s(S'+'
p15
S'for'
p16
tp17
I521
s(S'break'
p18
S'|'
p19
tp20
I1010
s(S'}'
p21
S'function'
p22
tp23
I162
s(S'['
p24
S'break'
p25
tp26
I65
s(S'<='
p27
S'while'
p28
tp29
I505
s(g24
S'nil'
p30
tp31
I82
s(S';'
p32
S'let'
p33
tp34
I31
s(S']'
p35
S'<'
p36
tp37
I42
s(g19
S'-'
p38
tp39
I570
s(S'do'
p40
S'for'
p41
tp42
I3456
s(S'while'
p43
g13
tp44
I2081
s(S'break'
p45
S'/'
p46
tp47
I101
s(S'integer'
p48
g21
tp49
I168
s(S'<='
p50
S'break'
p51
tp52
I594
s(g35
S'='
p53
tp54
I17
s(g36
g13
tp55
I576
s(S'id'
p56
S'type'
p57
tp58
I345
s(S'end'
p59
g38
tp60
I1003
s(S'integer'
p61
S'id'
p62
tp63
I151
s(g19
S'while'
p64
tp65
I535
s(S'if'
p66
g13
tp67
I2197
s(S'id'
p68
g13
tp69
I8959
s(g35
S'in'
p70
tp71
I53
s(g35
g46
tp72
I17
s(g53
S'for'
p73
tp74
I1175
s(g32
S'integer'
p75
tp76
I36
s(g53
S'string'
p77
tp78
I3134
s(S'integer'
p79
S'<='
p80
tp81
I876
s(S'integer'
p82
S'to'
p83
tp84
I2951
s(g46
S'string'
p85
tp86
I276
s(S':'
p87
S'integer'
p88
tp89
I1466
s(S'end'
p90
g46
tp91
I153
s(g32
S'if'
p92
tp93
I26
s(S'else'
p94
g13
tp95
I99
s(S'!='
p96
S'for'
p97
tp98
I503
s(S'in'
p99
S'string'
p100
tp101
I432
s(g10
S'in'
p102
tp103
I1989
s(g13
S'break'
p104
tp105
I219
s(S'integer'
p106
S'else'
p107
tp108
I161
s(g24
S'for'
p109
tp110
I70
s(S'end'
p111
g10
tp112
I303
s(g15
S'break'
p113
tp114
I708
s(g10
S'*'
p115
tp116
I70
s(S']'
p117
S'}'
p118
tp119
I2
s(S'>'
p120
S'break'
p121
tp122
I630
s(S':='
p123
g38
tp124
I2632
s(g13
g43
tp125
I223
s(S'end'
p126
g120
tp127
I908
s(S'id'
p128
S'$'
p129
tp130
I227
s(S'integer'
p131
S':='
p132
tp133
I515
s(S'break'
p134
g115
tp135
I156
s(g35
g19
tp136
I28
s(S'nil'
p137
g21
tp138
I104
s(g21
S'type'
p139
tp140
I112
s(S'id'
p141
S'>='
p142
tp143
I727
s(S']'
p144
S'else'
p145
tp146
I1
s(S'if'
p147
S'integer'
p148
tp149
I2217
s(S'integer'
p150
g53
tp151
I4363
s(S'end'
p152
g15
tp153
I933
s(S'string'
p154
g15
tp155
I950
s(g35
g115
tp156
I43
s(S'string'
p157
S':='
p158
tp159
I548
s(S'{'
p160
S'id'
p161
tp162
I946
s(S'!='
p163
g13
tp164
I558
s(g35
S'to'
p165
tp166
I73
s(S'then'
p167
S'if'
p168
tp169
I1834
s(g10
S'var'
p170
tp171
I178
s(g35
S':='
p172
tp173
I24
s(g83
S'id'
p174
tp175
I1992
s(S'!='
p176
S'id'
p177
tp178
I561
s(S'&'
p179
S'string'
p180
tp181
I627
s(g10
g36
tp182
I903
s(S'of'
p183
S'if'
p184
tp185
I3
s(S'break'
p186
S'var'
p187
tp188
I164
s(S'string'
p189
g10
tp190
I502
s(S'nil'
p191
g46
tp192
I136
s(S'id'
p193
g35
tp194
I131
s(S'if'
p195
S'id'
p196
tp197
I2018
s(g21
S'<='
p198
tp199
I27
s(g120
g13
tp200
I558
s(g21
g15
tp201
I40
s(S'id'
p202
g15
tp203
I905
s(S'id'
p204
S'function'
p205
tp206
I311
s(S'id'
p207
g50
tp208
I800
s(g118
g117
tp209
I5
s(g32
S'string'
p210
tp211
I30
s(g21
S'var'
p212
tp213
I114
s(S'integer'
p214
g115
tp215
I123
s(S'string'
p216
S'>='
p217
tp218
I941
s(S'if'
p219
S'string'
p220
tp221
I2135
s(S'!='
p222
g38
tp223
I528
s(S'integer'
p224
S'type'
p225
tp226
I402
s(g142
S'if'
p227
tp228
I519
s(g120
S'string'
p229
tp230
I580
s(S'nil'
p231
g120
tp232
I865
s(S'then'
p233
S'nil'
p234
tp235
I2134
s(g10
S'type'
p236
tp237
I268
s(g220
S'then'
p238
tp239
I3126
s(S'else'
p240
S'string'
p241
tp242
I79
s(g10
S'else'
p243
tp244
I162
s(g165
S'string'
p245
tp246
I2074
s(S'type'
p247
S'id'
p248
tp249
I3251
s(S'nil'
p250
g53
tp251
I838
s(S'then'
p252
S'break'
p253
tp254
I1980
s(S'of'
p255
S'('
p256
tp257
I1
s(S'break'
p258
S'type'
p259
tp260
I223
s(S'id'
p261
S'do'
p262
tp263
I4967
s(S'nil'
p264
S'var'
p265
tp266
I116
s(S'break'
p267
S'else'
p268
tp269
I135
s(S'id'
p270
S'.'
p271
tp272
I859
s(g15
g13
tp273
I669
s(S'end'
p274
g179
tp275
I992
s(S'id'
p276
g36
tp277
I818
s(S'let'
p278
g1
tp279
I5
s(g32
S'id'
p280
tp281
I58
s(S'end'
p282
S'in'
p283
tp284
I1741
s(g115
S'let'
p285
tp286
I33
s(S'id'
p287
S'var'
p288
tp289
I327
s(g21
g179
tp290
I26
s(g53
S'integer'
p291
tp292
I3274
s(g10
g87
tp293
I1591
s(g35
S'>='
p294
tp295
I9
s(S'to'
p296
S'for'
p297
tp298
I1562
s(S'id'
p299
S'id'
p300
tp301
I201
s(S'<='
p302
S'string'
p303
tp304
I571
s(g13
g13
tp305
I183
s(g38
S'string'
p306
tp307
I2858
s(S'>='
p308
g106
tp309
I608
s(S'break'
p310
S'function'
p311
tp312
I109
s(g10
g19
tp313
I907
s(S'break'
p314
g32
tp315
I59
s(g38
S'id'
p316
tp317
I3030
s(S'id'
p318
S'end'
p319
tp320
I758
s(g21
S'>='
p321
tp322
I24
s(g38
S'let'
p323
tp324
I2825
s(S'break'
p325
g129
tp326
I155
s(g115
S'id'
p327
tp328
I159
s(g35
S'then'
p329
tp330
I67
s(S'of'
p331
S'while'
p332
tp333
I3
s(g10
g129
tp334
I96
s(g10
g46
tp335
I101
s(S'end'
p336
g35
tp337
I81
s(S'do'
p338
S'integer'
p339
tp340
I4026
s(S'nil'
p341
S'type'
p342
tp343
I254
s(S'id'
p344
g115
tp345
I927
s(S'then'
p346
S'for'
p347
tp348
I1842
s(g179
S'id'
p349
tp350
I731
s(S'of'
p351
S'integer'
p352
tp353
I655
s(S'<='
p354
S'nil'
p355
tp356
I518
s(g24
S'while'
p357
tp358
I60
s(S'else'
p359
g38
tp360
I103
s(S'>='
p361
S'nil'
p362
tp363
I614
s(S'while'
p364
S'string'
p365
tp366
I2100
s(g179
S'while'
p367
tp368
I577
s(S'integer'
p369
g32
tp370
I36
s(S'then'
p371
S'id'
p372
tp373
I2140
s(S'in'
p374
S'for'
p375
tp376
I310
s(g36
S'string'
p377
tp378
I548
s(S'!='
p379
S'string'
p380
tp381
I590
s(S'nil'
p382
S'end'
p383
tp384
I636
s(g10
S'function'
p385
tp386
I113
s(S'of'
p387
S'id'
p388
tp389
I632
s(S'to'
p390
S'integer'
p391
tp392
I2023
s(g10
g35
tp393
I111
s(S'<='
p394
g38
tp395
I537
s(S'if'
p396
S'if'
p397
tp398
I1884
s(S'nil'
p399
g129
tp400
I130
s(g117
g117
tp401
I4
s(S'to'
p402
S'nil'
p403
tp404
I2024
s(g196
g19
tp405
I828
s(g19
g13
tp406
I565
s(g253
S'in'
p407
tp408
I1746
s(S'break'
p409
g35
tp410
I103
s(g35
g24
tp411
I19
s(g21
g38
tp412
I30
s(S'id'
p413
g179
tp414
I900
s(S'to'
p415
g13
tp416
I1906
s(g120
S'while'
p417
tp418
I475
s(g38
S'for'
p419
tp420
I2351
s(g35
g10
tp421
I10
s(g24
S'if'
p422
tp423
I55
s(g46
g38
tp424
I72
s(S'>='
p425
S'let'
p426
tp427
I513
s(S'nil'
p428
S'>='
p429
tp430
I940
s(S'if'
p431
S'let'
p432
tp433
I2036
s(g88
g10
tp434
I622
s(S'<='
p435
S'integer'
p436
tp437
I564
s(S'>='
p438
g270
tp439
I632
s(g15
S'string'
p440
tp441
I653
s(S'for'
p442
S'id'
p443
tp444
I20859
s(g46
S'integer'
p445
tp446
I333
s(S':='
p447
S'if'
p448
tp449
I2422
s(S'end'
p450
S'>='
p451
tp452
I923
s(S'<='
p453
g13
tp454
I578
s(S'to'
p455
S'let'
p456
tp457
I1878
s(g15
S'while'
p458
tp459
I496
s(g271
S'id'
p460
tp461
I874
s(g13
g38
tp462
I173
s(g32
S'break'
p463
tp464
I36
s(S'nil'
p465
g32
tp466
I49
s(S'end'
p467
S'<='
p468
tp469
I945
s(S'type'
p470
S'string'
p471
tp472
I2915
s(S':='
p473
S'while'
p474
tp475
I2619
s(g316
g379
tp476
I750
s(g19
S'let'
p477
tp478
I612
s(S'id'
p479
g38
tp480
I884
s(g118
S';'
p481
tp482
I3
s(S'id'
p483
g32
tp484
I73
s(S'end'
p485
g115
tp486
I161
s(S'do'
p487
S'if'
p488
tp489
I3600
s(S'id'
p490
S'to'
p491
tp492
I2436
s(g32
S'for'
p493
tp494
I33
s(S'integer'
p495
g129
tp496
I225
s(g38
g219
tp497
I2621
s(S'in'
p498
g38
tp499
I382
s(g120
S'for'
p500
tp501
I521
s(S'if'
p502
S'while'
p503
tp504
I1747
s(g115
S'if'
p505
tp506
I47
s(g21
S'!='
p507
tp508
I19
s(S'nil'
p509
S'function'
p510
tp511
I135
s(g21
g120
tp512
I21
s(g21
S'to'
p513
tp514
I108
s(g46
g13
tp515
I59
s(g53
g38
tp516
I1280
s(g13
S'for'
p517
tp518
I192
s(g491
g7
tp519
I1731
s(S'in'
p520
S'let'
p521
tp522
I290
s(S'if'
p523
S'for'
p524
tp525
I1751
s(g21
S'else'
p526
tp527
I3
s(g10
g120
tp528
I893
s(g10
g10
tp529
I339
s(g179
S'if'
p530
tp531
I582
s(S'end'
p532
S'var'
p533
tp534
I125
s(S'nil'
p535
g38
tp536
I947
s(S'of'
p537
S'nil'
p538
tp539
I2
s(S'in'
p540
S'break'
p541
tp542
I408
s(S'break'
p543
g120
tp544
I804
s(S'>='
p545
g38
tp546
I598
s(S'break'
p547
g10
tp548
I327
s(g46
S'for'
p549
tp550
I38
s(S'nil'
p551
S'in'
p552
tp553
I1865
s(S'while'
p554
S'if'
p555
tp556
I1857
s(g238
S'let'
p557
tp558
I2104
s(g118
S'$'
p559
tp560
I4
s(S'break'
p561
S'do'
p562
tp563
I6319
s(g21
g21
tp564
I11
s(S'id'
p565
S'then'
p566
tp567
I2583
s(g36
S'let'
p568
tp569
I576
s(S'break'
p570
g390
tp571
I3259
s(S'break'
p572
g15
tp573
I970
s(g21
g19
tp574
I29
s(S'then'
p575
S'while'
p576
tp577
I1770
s(S'string'
p578
S'else'
p579
tp580
I161
s(g10
S'to'
p581
tp582
I3130
s(S'id'
p583
g160
tp584
I810
s(g10
g32
tp585
I41
s(S'integer'
p586
g35
tp587
I101
s(S'end'
p588
g19
tp589
I1019
s(S'of'
p590
S'let'
p591
tp592
I3
s(g24
g193
tp593
I113
s(S'string'
p594
S'var'
p595
tp596
I270
s(g36
g38
tp597
I582
s(g11
g13
tp598
I2108
s(g38
g18
tp599
I2891
s(S'string'
p600
S'id'
p601
tp602
I106
s(g115
S'for'
p603
tp604
I51
s(S'id'
p605
g87
tp606
I2939
s(S'!='
p607
S'break'
p608
tp609
I645
s(S':='
p610
S'id'
p611
tp612
I2921
s(g35
S'do'
p613
tp614
I144
s(g87
S'string'
p615
tp616
I1415
s(S'string'
p617
g35
tp618
I101
s(S'then'
p619
S'integer'
p620
tp621
I2146
s(g35
S'<='
p622
tp623
I22
s(g53
g261
tp624
I3439
s(S'string'
p625
g115
tp626
I88
s(S'end'
p627
g455
tp628
I2839
s(g10
S'do'
p629
tp630
I6395
s(g53
S'let'
p631
tp632
I1325
s(g46
S'let'
p633
tp634
I47
s(S'nil'
p635
S'to'
p636
tp637
I2913
s(g87
S'id'
p638
tp639
I1649
s(S'nil'
p640
g179
tp641
I911
s(S'integer'
p642
S'end'
p643
tp644
I770
s(g367
g561
tp645
I2110
s(g458
S'for'
p646
tp647
I1708
s(S')'
p648
S'id'
p649
tp650
I5
s(g10
g179
tp651
I990
s(g262
S'id'
p652
tp653
I4194
s(S':='
p654
S'break'
p655
tp656
I2934
s(S'type'
p657
S'integer'
p658
tp659
I3014
s(g32
S'while'
p660
tp661
I24
s(g21
g53
tp662
I23
s(S'break'
p663
S'id'
p664
tp665
I1
s(g179
S'break'
p666
tp667
I627
s(g117
S'function'
p668
tp669
I2
s(g115
S'while'
p670
tp671
I77
s(S'else'
p672
S'break'
p673
tp674
I85
s(S'!='
p675
S'nil'
p676
tp677
I612
s(g21
g36
tp678
I32
s(S'nil'
p679
g35
tp680
I118
s(g144
S'type'
p681
tp682
I2
s(g38
S'while'
p683
tp684
I2619
s(g35
g271
tp685
I15
s(S'array'
p686
g387
tp687
I1838
s(g53
S'nil'
p688
tp689
I1373
s(S'end'
p690
g36
tp691
I922
s(S'else'
p692
S'integer'
p693
tp694
I100
s(S'if'
p695
S'break'
p696
tp697
I2266
s(g10
g425
tp698
I945
s(S'string'
p699
g38
tp700
I920
s(S'if'
p701
S'nil'
p702
tp703
I2034
s(S'nil'
p704
g15
tp705
I1001
s(g474
S'id'
p706
tp707
I2152
s(S'}'
p708
S'/'
p709
tp710
I1
s(g24
S'let'
p711
tp712
I67
s(g19
S'for'
p713
tp714
I475
s(g248
g53
tp715
I5321
s(g35
g15
tp716
I13
s(S'nil'
p717
S'do'
p718
tp719
I6356
s(g53
g13
tp720
I1542
s(S'integer'
p721
g179
tp722
I936
s(g243
S'nil'
p723
tp724
I100
s(S'while'
p725
S'nil'
p726
tp727
I2093
s(S'integer'
p728
g46
tp729
I143
s(g13
g79
tp730
I227
s(g19
S'break'
p731
tp732
I619
s(g10
g152
tp733
I521
s(S'break'
p734
S'<='
p735
tp736
I878
s(g372
g46
tp737
I799
s(g268
S'id'
p738
tp739
I119
s(g120
S'integer'
p740
tp741
I541
s(S'string'
p742
g96
tp743
I934
s(g46
g704
tp744
I324
s(S'integer'
p745
g19
tp746
I922
s(g323
S'in'
p747
tp748
I8
s(S'id'
p749
g10
tp750
I714
s(S'integer'
p751
S'function'
p752
tp753
I318
s(S'to'
p754
g38
tp755
I1847
s(g36
S'break'
p756
tp757
I563
s(g36
S'nil'
p758
tp759
I611
s(S'id'
p760
g120
tp761
I779
s(g46
S'break'
p762
tp763
I203
s(g160
g21
tp764
I1744
s(g557
g657
tp765
I7
s(g576
S'let'
p766
tp767
I2035
s(S'in'
p768
S'while'
p769
tp770
I331
s(g53
g701
tp771
I1182
s(S'end'
p772
S'!='
p773
tp774
I948
s(g21
g115
tp775
I8
s(S'string'
p776
S'to'
p777
tp778
I3150
s(g179
S'for'
p779
tp780
I551
s(S'end'
p781
g126
tp782
I525
s(g24
g13
tp783
I67
s(g562
g717
tp784
I3998
s(g117
S'&'
p785
tp786
I17
s(g752
g68
tp787
I8138
s(g10
g435
tp788
I819
s(S'end'
p789
S'id'
p790
tp791
I6
s(g21
S'end'
p792
tp793
I34
s(S':='
p794
S'for'
p795
tp796
I2289
s(g718
g38
tp797
I3984
s(g115
g154
tp798
I301
s(S'end'
p799
g129
tp800
I1877
s(g21
S'in'
p801
tp802
I1574
s(g38
g38
tp803
I2847
s(S'id'
p804
S'in'
p805
tp806
I3589
s(g391
S'do'
p807
tp808
I6380
s(S'of'
p809
S'string'
p810
tp811
I560
s(S'end'
p812
S'do'
p813
tp814
I5942
s(S'do'
p815
S'let'
p816
tp817
I3881
s(g179
g13
tp818
I604
s(g638
g21
tp819
I196
s(S'string'
p820
g120
tp821
I814
s(S'>='
p822
S'break'
p823
tp824
I579
s(g10
g15
tp825
I994
s(S'do'
p826
g742
tp827
I4165
s(g179
S'let'
p828
tp829
I603
s(g21
S'then'
p830
tp831
I93
s(S'break'
p832
g21
tp833
I91
s(S'end'
p834
g21
tp835
I96
s(S'>='
p836
S'while'
p837
tp838
I510
s(S'do'
p839
S'while'
p840
tp841
I3724
s(g15
S'let'
p842
tp843
I633
s(g120
S'let'
p844
tp845
I578
s(g77
S'in'
p846
tp847
I3709
s(g380
g36
tp848
I863
s(g115
S'nil'
p849
tp850
I369
s(S'integer'
p851
g36
tp852
I872
s(g100
S'end'
p853
tp854
I603
s(g120
g204
tp855
I604
s(g32
g38
tp856
I38
s(g120
g38
tp857
I544
s(S'of'
p858
S'break'
p859
tp860
I7
s(S'do'
p861
g13
tp862
I4087
s(g32
S'nil'
p863
tp864
I39
s(S'in'
p865
S'integer'
p866
tp867
I550
s(g53
S'while'
p868
tp869
I1308
s(S'nil'
p870
S'<='
p871
tp872
I842
s(g38
g551
tp873
I2878
s(g488
g38
tp874
I1908
s(S'!='
p875
S'let'
p876
tp877
I539
s(g10
g53
tp878
I7463
s(g652
S'else'
p879
tp880
I113
s(g19
S'string'
p881
tp882
I649
s(g747
S'end'
p883
tp884
I22515
s(g53
S'break'
p885
tp886
I1376
s(S'string'
p887
g46
tp888
I105
s(g35
S'!='
p889
tp890
I30
s(S'break'
p891
g53
tp892
I910
s(g735
S'let'
p893
tp894
I548
s(g35
g38
tp895
I26
s(S'nil'
p896
g94
tp897
I138
s(S'integer'
p898
S'var'
p899
tp900
I323
s(g885
g179
tp901
I982
s(g46
S'if'
p902
tp903
I40
s(S':='
p904
g13
tp905
I2827
s(g179
g38
tp906
I642
s(S'end'
p907
S'else'
p908
tp909
I165
s(g36
S'if'
p910
tp911
I528
s(S'else'
p912
S'if'
p913
tp914
I78
s(g15
S'integer'
p915
tp916
I625
s(g35
S'var'
p917
tp918
I7
s(g13
S'string'
p919
tp920
I229
s(g115
S'integer'
p921
tp922
I258
s(g15
S'if'
p923
tp924
I526
s(g35
g120
tp925
I17
s(S'>='
p926
S'string'
p927
tp928
I581
s(S'>='
p929
S'for'
p930
tp931
I510
s(g871
S'id'
p932
tp933
I667
s(g24
g617
tp934
I66
s(g13
S'if'
p935
tp936
I212
s(S'end'
p937
g53
tp938
I917
s(g879
S'let'
p939
tp940
I106
s(S'string'
p941
g179
tp942
I1011
s(S'in'
p943
g13
tp944
I334
s(S':='
p945
g776
tp946
I2896
s(g53
g160
tp947
I1880
s(S'string'
p948
g19
tp949
I918
s(g36
S'for'
p950
tp951
I381
s(S'!='
p952
S'while'
p953
tp954
I476
s(g51
g438
tp955
I902
s(g46
S'while'
p956
tp957
I52
s(g766
S'function'
p958
tp959
I13
s(g24
g586
tp960
I59
s(S'integer'
p961
g926
tp962
I925
s(g53
g686
tp963
I1838
s(g2
S':='
p964
tp965
I28753
s(S'!='
p966
S'if'
p967
tp968
I501
s(S'string'
p969
g129
tp970
I120
s(S'in'
p971
S'id'
p972
tp973
I708
s(g117
S'end'
p974
tp975
I19
s(g964
g751
tp976
I2833
s(g10
g21
tp977
I103
s(g115
g38
tp978
I48
s(S'>='
p979
g13
tp980
I672
s(S':='
p981
g870
tp982
I2795
s(S'break'
p983
S'end'
p984
tp985
I588
s(S'nil'
p986
g115
tp987
I78
s(S'nil'
p988
g233
tp989
I3331
s(g179
S'integer'
p990
tp991
I689
s(S'in'
p992
g640
tp993
I392
s(g19
g988
tp994
I729
s(S'end'
p995
S'type'
p996
tp997
I247
s(g863
g10
tp998
I335
s(g234
g19
tp999
I971
s(g306
g394
tp1000
I897
s(g35
g183
tp1001
I30
s(g21
g10
tp1002
I13
s(S'else'
p1003
S'while'
p1004
tp1005
I84
s(g38
g13
tp1006
I3039
s(g120
S'if'
p1007
tp1008
I454
s(S'integer'
p1009
S'!='
p1010
tp1011
I869
s(g471
g53
tp1012
I4274
s(g15
g38
tp1013
I649
s(S'integer'
p1014
g38
tp1015
I952
s(g883
g32
tp1016
I45
s(S'string'
p1017
g32
tp1018
I62
s(g10
S'!='
p1019
tp1020
I860
s(g13
S'nil'
p1021
tp1022
I232
s(S'of'
p1023
S'-'
p1024
tp1025
I2
s(g117
g559
tp1026
I2
s(g115
S'break'
p1027
tp1028
I253
s(g19
g147
tp1029
I582
s(S'string'
p1030
S'function'
p1031
tp1032
I298
s(g436
g15
tp1033
I1045
s(g115
g13
tp1034
I58
s(S'break'
p1035
g36
tp1036
I897
s(S':='
p1037
S'let'
p1038
tp1039
I2672
s(S'break'
p1040
S'!='
p1041
tp1042
I856
s(g15
S'nil'
p1043
tp1044
I646
s(g19
g1009
tp1045
I630
s(S'string'
p1046
S'type'
p1047
tp1048
I414
s(g932
g24
tp1049
I736
s(g46
S'id'
p1050
tp1051
I112
s(g36
S'id'
p1052
tp1053
I690
s(S'then'
p1054
g38
tp1055
I2082
s(g179
S'nil'
p1056
tp1057
I532
s(g32
g13
tp1058
I17
s(S'else'
p1059
S'for'
p1060
tp1061
I86
s(g339
S'then'
p1062
tp1063
I3334
s(g245
g487
tp1064
I6457
s(g15
g804
tp1065
I725
s(S'end'
p1066
S'then'
p1067
tp1068
I3033
s(g80
g442
tp1069
I483
s(S'while'
p1070
g38
tp1071
I2142
s(g13
S'let'
p1072
tp1073
I198
s(g915
g120
tp1074
I918
s(S'<='
p1075
S'if'
p1076
tp1077
I541
s(g813
S'break'
p1078
tp1079
I4019
s(g38
g150
tp1080
I2887
s(g13
g605
tp1081
I1077
s(g21
S'do'
p1082
tp1083
I174
s(S'while'
p1084
g725
tp1085
I1836
s(g36
S'integer'
p1086
tp1087
I591
s(S'string'
p1088
g21
tp1089
I175
s(g773
S'integer'
p1090
tp1091
I612
s(g19
S'id'
p1092
tp1093
I666
s(S'nil'
p1094
g36
tp1095
I790
s(S'nil'
p1096
g222
tp1097
I859
s(g36
S'while'
p1098
tp1099
I493
s(g24
g38
tp1100
I51
s(g291
S'in'
p1101
tp1102
I3724
s(g1062
g1017
tp1103
I2053
s(g120
S'nil'
p1104
tp1105
I534
s(S'nil'
p1106
S'id'
p1107
tp1108
I7
s(g10
g38
tp1109
I965
s(g777
g431
tp1110
I1782
s(g756
S'then'
p1111
tp1112
I3234
s(S'to'
p1113
S'break'
p1114
tp1115
I2040
s(S'end'
p1116
S'function'
p1117
tp1118
I120
s(g1114
g38
tp1119
I878
s.