(dp0
(S'<'
p1
S'id'
p2
S':='
p3
tp4
I8
s(S'break'
p5
S'else'
p6
S'if'
p7
tp8
I3
s(S')'
p9
S'>'
p10
S'integer'
p11
tp12
I19
s(S'if'
p13
S'string'
p14
S'then'
p15
tp16
I2
s(S'!='
p17
S'break'
p18
S'&'
p19
tp20
I3
s(g19
S'id'
p21
S'-'
p22
tp23
I2
s(g10
S'break'
p24
S'!='
p25
tp26
I3
s(S'if'
p27
S'for'
p28
S'id'
p29
tp30
I9
s(S'else'
p31
S'nil'
p32
S'var'
p33
tp34
I1
s(S'+'
p35
S'while'
p36
S'nil'
p37
tp38
I10
s(g9
S'do'
p39
S'('
p40
tp41
I138
s(g9
S'id'
p42
S'='
p43
tp44
I1
s(S'else'
p45
S'id'
p46
S'function'
p47
tp48
I1
s(S'!='
p49
S'nil'
p50
S'type'
p51
tp52
I1
s(g19
g22
S'break'
p53
tp54
I12
s(g35
S'nil'
p55
S'do'
p56
tp57
I23
s(S'|'
p58
S'break'
p59
S'in'
p60
tp61
I6
s(S'nil'
p62
S'!='
p63
S'integer'
p64
tp65
I18
s(S'while'
p66
S'nil'
p67
g58
tp68
I18
s(S':='
p69
S'break'
p70
S'!='
p71
tp72
I25
s(S'end'
p73
g19
S'for'
p74
tp75
I21
s(S'do'
p76
S'nil'
p77
g19
tp78
I41
s(S'*'
p79
S'integer'
p80
S'else'
p81
tp82
I1
s(S'integer'
p83
g10
S'integer'
p84
tp85
I9
s(S'end'
p86
g1
S'integer'
p87
tp88
I24
s(S'string'
p89
g22
S'while'
p90
tp91
I2
s(S'!='
p92
S'id'
p93
g1
tp94
I5
s(S'>='
p95
S'nil'
p96
S'$'
p97
tp98
I8
s(S'}'
p99
S'>='
p100
S'nil'
p101
tp102
I1
s(g10
S'nil'
p103
S'in'
p104
tp105
I10
s(S'<='
p106
S'while'
p107
S'integer'
p108
tp109
I8
s(S'string'
p110
S']'
p111
g106
tp112
I1
s(g43
S'nil'
p113
S'to'
p114
tp115
I23
s(g19
S'nil'
p116
g111
tp117
I1
s(S'end'
p118
S'then'
p119
g40
tp120
I65
s(S'else'
p121
S'while'
p122
g22
tp123
I2
s(S'while'
p124
S'break'
p125
g1
tp126
I15
s(g10
S'nil'
p127
g97
tp128
I10
s(S'then'
p129
S'id'
p130
g79
tp131
I20
s(S'/'
p132
S'nil'
p133
S'else'
p134
tp135
I1
s(S'break'
p136
S'>='
p137
g13
tp138
I16
s(S'integer'
p139
g22
S'let'
p140
tp141
I15
s(S':='
p142
S'integer'
p143
g35
tp144
I20
s(S'string'
p145
S'else'
p146
g22
tp147
I2
s(S'then'
p148
S'nil'
p149
g22
tp150
I21
s(S'['
p151
S'string'
p152
g58
tp153
I1
s(g10
S'break'
p154
g35
tp155
I2
s(S'nil'
p156
S'<='
p157
g40
tp158
I20
s(g9
S'do'
p159
S'if'
p160
tp161
I113
s(S'to'
p162
S'break'
p163
g22
tp164
I19
s(S':='
p165
g22
S'id'
p166
tp167
I60
s(S'do'
p168
S'string'
p169
g45
tp170
I7
s(S'then'
p171
S'nil'
p172
S'!='
p173
tp174
I16
s(S'break'
p175
S'!='
p176
S'id'
p177
tp178
I5
s(g9
g35
g22
tp179
I25
s(g22
S'id'
p180
g22
tp181
I6
s(g99
S'to'
p182
S'nil'
p183
tp184
I1
s(g99
S'then'
p185
S'while'
p186
tp187
I2
s(g35
S'nil'
p188
S'<='
p189
tp190
I10
s(g1
S'if'
p191
S'let'
p192
tp193
I7
s(g58
S'integer'
p194
g99
tp195
I1
s(S'!='
p196
g40
g9
tp197
I122
s(g22
S'id'
p198
S'!='
p199
tp200
I7
s(S'string'
p201
g10
S'let'
p202
tp203
I9
s(S'do'
p204
g175
g176
tp205
I35
s(g99
S'do'
p206
S'if'
p207
tp208
I6
s(S'while'
p209
S'if'
p210
S'nil'
p211
tp212
I2
s(g22
S'id'
p213
g1
tp214
I17
s(S'end'
p215
S'>='
p216
S'while'
p217
tp218
I19
s(g9
g43
S'while'
p219
tp220
I122
s(g132
S'string'
p221
S'then'
p222
tp223
I8
s(S'then'
p224
S'nil'
p225
S'var'
p226
tp227
I1
s(g35
S'while'
p228
S'while'
p229
tp230
I6
s(S'<='
p231
S'string'
p232
g35
tp233
I2
s(S'nil'
p234
S'in'
p235
S'end'
p236
tp237
I356
s(g111
g22
S'let'
p238
tp239
I1
s(S'integer'
p240
g99
S'to'
p241
tp242
I6
s(g19
S'integer'
p243
g35
tp244
I5
s(g40
g9
g10
tp245
I55
s(S'end'
p246
g31
g32
tp247
I2
s(S'<='
p248
S'break'
p249
g35
tp250
I4
s(S'else'
p251
S'integer'
p252
g1
tp253
I1
s(g19
S'string'
p254
g35
tp255
I9
s(g99
g10
S'if'
p256
tp257
I1
s(S'!='
p258
S'nil'
p259
g43
tp260
I2
s(S':='
p261
S'integer'
p262
S'to'
p263
tp264
I286
s(S'string'
p265
S'do'
p266
S'while'
p267
tp268
I133
s(S'to'
p269
S'integer'
p270
g10
tp271
I18
s(g79
S'break'
p272
S'then'
p273
tp274
I4
s(S'string'
p275
S'else'
p276
S'let'
p277
tp278
I4
s(g43
S'integer'
p279
g97
tp280
I10
s(S'!='
p281
S'break'
p282
S'function'
p283
tp284
I3
s(g9
S'to'
p285
S'while'
p286
tp287
I57
s(S'end'
p288
S'to'
p289
g40
tp290
I69
s(g22
S'id'
p291
g97
tp292
I6
s(S'integer'
p293
S'then'
p294
S'while'
p295
tp296
I53
s(g9
S'>='
p297
g22
tp298
I23
s(g19
S'integer'
p299
S'then'
p300
tp301
I22
s(S'integer'
p302
g111
g79
tp303
I1
s(S'<='
p304
S'nil'
p305
g22
tp306
I6
s(S'do'
p307
S'id'
p308
S'var'
p309
tp310
I3
s(g58
S'nil'
p311
g22
tp312
I4
s(S'nil'
p313
g58
S'let'
p314
tp315
I10
s(S'id'
p316
S'{'
p317
S'id'
p318
tp319
I171
s(g111
S'.'
p320
S'id'
p321
tp322
I7
s(S'while'
p323
S'id'
p324
g22
tp325
I14
s(S'if'
p326
S'break'
p327
S'then'
p328
tp329
I37
s(S'>='
p330
g22
S'nil'
p331
tp332
I13
s(g58
S'id'
p333
g317
tp334
I2
s(g189
S'id'
p335
S'do'
p336
tp337
I34
s(g22
S'string'
p338
S'then'
p339
tp340
I82
s(S'id'
p341
g19
S'while'
p342
tp343
I18
s(S'!='
p344
S'break'
p345
S'in'
p346
tp347
I10
s(S'break'
p348
g58
g22
tp349
I10
s(S'break'
p350
g10
S'break'
p351
tp352
I20
s(S'>='
p353
g22
S'integer'
p354
tp355
I11
s(g19
S'integer'
p356
g19
tp357
I5
s(g58
S'if'
p358
S'let'
p359
tp360
I10
s(g1
g22
S'break'
p361
tp362
I13
s(g9
g35
S'string'
p363
tp364
I25
s(g22
S'integer'
p365
S'>='
p366
tp367
I12
s(S'id'
p368
g151
g22
tp369
I6
s(S':='
p370
S'if'
p371
S'string'
p372
tp373
I56
s(S'then'
p374
S'integer'
p375
g22
tp376
I14
s(S'string'
p377
g99
S'in'
p378
tp379
I3
s(S'integer'
p380
S'var'
p381
S'id'
p382
tp383
I22
s(g111
g106
g107
tp384
I1
s(g151
S'string'
p385
g22
tp386
I1
s(g19
S'let'
p387
S'function'
p388
tp389
I32
s(S'id'
p390
g10
S'integer'
p391
tp392
I19
s(g79
S'break'
p393
S'>='
p394
tp395
I3
s(g58
S'integer'
p396
g19
tp397
I7
s(g10
S'let'
p398
S'function'
p399
tp400
I28
s(S'<='
p401
S'while'
p402
S'id'
p403
tp404
I11
s(g1
S'while'
p405
S'for'
p406
tp407
I12
s(S'<='
p408
S'integer'
p409
g19
tp410
I11
s(g35
S'break'
p411
g35
tp412
I8
s(S'id'
p413
S'<='
p414
g40
tp415
I1
s(g132
S'break'
p416
S'do'
p417
tp418
I13
s(S'nil'
p419
S'>='
p420
S'integer'
p421
tp422
I3
s(g43
S'break'
p423
g97
tp424
I12
s(S'>='
p425
S'if'
p426
S'for'
p427
tp428
I8
s(S'integer'
p429
g22
S'for'
p430
tp431
I7
s(S'nil'
p432
g1
S'break'
p433
tp434
I2
s(S'nil'
p435
g111
S'then'
p436
tp437
I2
s(g22
S'let'
p438
S'type'
p439
tp440
I33
s(g35
S'nil'
p441
g58
tp442
I11
s(S'integer'
p443
S'else'
p444
S'string'
p445
tp446
I5
s(S'string'
p447
g58
g22
tp448
I18
s(g99
S'do'
p449
S'for'
p450
tp451
I3
s(S':='
p452
S'break'
p453
S'<='
p454
tp455
I18
s(S'string'
p456
g43
S'string'
p457
tp458
I58
s(g9
g22
S'nil'
p459
tp460
I19
s(g99
g10
S'let'
p461
tp462
I1
s(g35
S'string'
p463
g99
tp464
I1
s(S'break'
p465
g58
S'id'
p466
tp467
I7
s(S'then'
p468
S'let'
p469
S'function'
p470
tp471
I97
s(g58
S'break'
p472
g35
tp473
I3
s(S'then'
p474
S'integer'
p475
g58
tp476
I18
s(S'id'
p477
g151
g110
tp478
I15
s(S'break'
p479
g1
S'if'
p480
tp481
I2
s(S'integer'
p482
S'<='
p483
S'integer'
p484
tp485
I9
s(S'id'
p486
S'do'
p487
S'while'
p488
tp489
I110
s(S'>='
p490
S'while'
p491
g22
tp492
I9
s(S'then'
p493
g22
g198
tp494
I37
s(S'while'
p495
S'break'
p496
g10
tp497
I6
s(S'nil'
p498
g58
S'nil'
p499
tp500
I4
s(S'<='
p501
S'string'
p502
g19
tp503
I8
s(S':='
p504
S'nil'
p505
g1
tp506
I26
s(S'>='
p507
S'break'
p508
S'function'
p509
tp510
I1
s(g58
S'break'
p511
g10
tp512
I2
s(g19
S'break'
p513
g43
tp514
I3
s(g58
S'while'
p515
S'string'
p516
tp517
I13
s(S'string'
p518
g58
S'integer'
p519
tp520
I21
s(S'do'
p521
g22
S'string'
p522
tp523
I90
s(S':='
p524
S'string'
p525
g19
tp526
I25
s(S'break'
p527
S'type'
p528
S'id'
p529
tp530
I7
s(g111
g79
S'break'
p531
tp532
I1
s(S'id'
p533
g43
S'if'
p534
tp535
I10
s(S'>='
p536
S'id'
p537
S'do'
p538
tp539
I14
s(g43
S'break'
p540
g22
tp541
I12
s(g58
S'string'
p542
g19
tp543
I2
s(g79
S'string'
p544
g1
tp545
I4
s(g35
S'string'
p546
g1
tp547
I7
s(S'nil'
p548
g58
S'while'
p549
tp550
I4
s(S'<='
p551
S'integer'
p552
g1
tp553
I3
s(S'nil'
p554
g111
g320
tp555
I1
s(S'>='
p556
S'let'
p557
S'in'
p558
tp559
I41
s(S'while'
p560
S'if'
p561
g22
tp562
I7
s(S'else'
p563
S'break'
p564
g43
tp565
I1
s(g22
S'id'
p566
S'else'
p567
tp568
I1
s(S'!='
p569
S'integer'
p570
g99
tp571
I1
s(S'!='
p572
S'let'
p573
S'in'
p574
tp575
I33
s(g79
S'nil'
p576
S'then'
p577
tp578
I10
s(g99
S'do'
p579
g40
tp580
I5
s(g22
S'integer'
p581
S'var'
p582
tp583
I2
s(g35
S'break'
p584
S'else'
p585
tp586
I1
s(S'end'
p587
S'<='
p588
S'for'
p589
tp590
I19
s(g132
S'break'
p591
S'in'
p592
tp593
I5
s(g132
S'nil'
p594
g43
tp595
I2
s(g111
S':='
p596
g40
tp597
I1
s(g9
S'<='
p598
S'id'
p599
tp600
I20
s(S'do'
p601
S'id'
p602
S'<='
p603
tp604
I26
s(S'then'
p605
S'id'
p606
S'function'
p607
tp608
I1
s(S'then'
p609
S'string'
p610
S'then'
p611
tp612
I59
s(S'break'
p613
g19
S'id'
p614
tp615
I21
s(g43
S'while'
p616
g22
tp617
I23
s(g43
g22
g40
tp618
I28
s(g99
S'do'
p619
S'let'
p620
tp621
I3
s(S'break'
p622
g111
S'var'
p623
tp624
I1
s(S'nil'
p625
S'>='
p626
g22
tp627
I16
s(g9
g111
g111
tp628
I1
s(g10
S'nil'
p629
g111
tp630
I1
s(S'<='
p631
S'if'
p632
S'integer'
p633
tp634
I10
s(S'id'
p635
S'function'
p636
S'id'
p637
tp638
I20
s(S'string'
p639
g111
g22
tp640
I1
s(g111
g35
S'break'
p641
tp642
I1
s(g19
S'integer'
p643
g22
tp644
I2
s(S'string'
p645
g58
S'id'
p646
tp647
I21
s(g22
S'if'
p648
S'if'
p649
tp650
I39
s(S'<='
p651
S'nil'
p652
g43
tp653
I2
s(g9
S'to'
p654
S'integer'
p655
tp656
I58
s(S'integer'
p657
S'then'
p658
S'nil'
p659
tp660
I75
s(g19
S'id'
p661
g132
tp662
I5
s(S'break'
p663
g22
S'id'
p664
tp665
I4
s(S'if'
p666
g22
S'break'
p667
tp668
I11
s(S'break'
p669
S'<='
p670
S'if'
p671
tp672
I8
s(g9
S'then'
p673
S'let'
p674
tp675
I62
s(S'nil'
p676
S'then'
p677
S'if'
p678
tp679
I43
s(g35
S'integer'
p680
g19
tp681
I12
s(g22
S'break'
p682
g97
tp683
I2
s(S'id'
p684
g111
g132
tp685
I1
s(S'integer'
p686
g43
S'let'
p687
tp688
I2
s(g58
S'id'
p689
g19
tp690
I4
s(S'while'
p691
S'if'
p692
S'id'
p693
tp694
I39
s(g43
S'integer'
p695
S'do'
p696
tp697
I36
s(S'nil'
p698
g43
S'if'
p699
tp700
I7
s(S'id'
p701
S'<='
p702
S'while'
p703
tp704
I17
s(g10
S'nil'
p705
S'then'
p706
tp707
I8
s(S'!='
p708
S'id'
p709
g58
tp710
I5
s(S'end'
p711
g35
S'integer'
p712
tp713
I20
s(S'<='
p714
S'nil'
p715
g97
tp716
I9
s(S'do'
p717
S'let'
p718
S'in'
p719
tp720
I216
s(g22
S'id'
p721
S'function'
p722
tp723
I1
s(S'let'
p724
S'type'
p725
S'integer'
p726
tp727
I10
s(S'else'
p728
S'break'
p729
S'to'
p730
tp731
I1
s(S'break'
p732
g43
S'if'
p733
tp734
I2
s(g1
S'if'
p735
S'nil'
p736
tp737
I7
s(g132
S'string'
p738
g22
tp739
I1
s(S'integer'
p740
g162
g163
tp741
I71
s(g1
S'while'
p742
S'if'
p743
tp744
I9
s(g99
g58
S'break'
p745
tp746
I2
s(S'id'
p747
S'then'
p748
S'for'
p749
tp750
I54
s(S'id'
p751
g35
S'id'
p752
tp753
I24
s(S'while'
p754
S'break'
p755
g58
tp756
I7
s(S'do'
p757
S'id'
p758
S'then'
p759
tp760
I76
s(S'break'
p761
S'do'
p762
S'let'
p763
tp764
I137
s(S'<='
p765
S'integer'
p766
S'in'
p767
tp768
I12
s(g1
S'if'
p769
S'break'
p770
tp771
I7
s(S'string'
p772
g19
g299
tp773
I19
s(S':='
p774
S'break'
p775
S'var'
p776
tp777
I6
s(S'else'
p778
S'if'
p779
S'integer'
p780
tp781
I1
s(S'integer'
p782
S'function'
p783
S'id'
p784
tp785
I31
s(S'do'
p786
S'integer'
p787
g10
tp788
I30
s(S'do'
p789
S'id'
p790
g22
tp791
I23
s(S'break'
p792
g22
S'string'
p793
tp794
I4
s(g29
S':='
p795
S'while'
p796
tp797
I538
s(g58
S'id'
p798
S'in'
p799
tp800
I1
s(S'do'
p801
S'break'
p802
S'var'
p803
tp804
I7
s(g99
g19
g40
tp805
I1
s(S'then'
p806
S'id'
p807
g320
tp808
I17
s(g19
S'if'
p809
S'break'
p810
tp811
I9
s(S'then'
p812
g22
S'integer'
p813
tp814
I39
s(S'to'
p815
S'break'
p816
S'!='
p817
tp818
I17
s(S'!='
p819
S'id'
p820
S'<='
p821
tp822
I2
s(S'string'
p823
g19
S'nil'
p824
tp825
I18
s(g1
S'string'
p826
g19
tp827
I7
s(S'integer'
p828
g19
S'if'
p829
tp830
I9
s(S':='
p831
S'id'
p832
g320
tp833
I20
s(S'else'
p834
g22
S'break'
p835
tp836
I1
s(S'!='
p837
g22
S'break'
p838
tp839
I11
s(S'else'
p840
S'nil'
p841
g35
tp842
I1
s(S'do'
p843
S'integer'
p844
S'do'
p845
tp846
I217
s(g99
S'in'
p847
S'end'
p848
tp849
I310
s(g43
S'id'
p850
S'type'
p851
tp852
I5
s(g111
S':='
p853
S'for'
p854
tp855
I1
s(S'while'
p856
S'let'
p857
S'var'
p858
tp859
I15
s(g1
S'integer'
p860
g58
tp861
I8
s(S'end'
p862
g99
S'to'
p863
tp864
I4
s(g9
S'>='
p865
S'integer'
p866
tp867
I21
s(S'break'
p868
g111
S':='
p869
tp870
I1
s(g43
S'string'
p871
g10
tp872
I7
s(g19
S'id'
p873
g317
tp874
I6
s(g9
g1
S'break'
p875
tp876
I20
s(g22
S'break'
p877
S'do'
p878
tp879
I159
s(g35
S'let'
p880
S'function'
p881
tp882
I27
s(S'nil'
p883
S'type'
p884
S'id'
p885
tp886
I12
s(g743
S'string'
p887
S'!='
p888
tp889
I12
s(g1
S'id'
p890
S'in'
p891
tp892
I9
s(S'id'
p893
g111
g320
tp894
I1
s(S'then'
p895
S'string'
p896
S'else'
p897
tp898
I21
s(S'if'
p899
S'nil'
p900
S'<='
p901
tp902
I18
s(S':='
p903
S'id'
p904
S'do'
p905
tp906
I2
s(g43
g40
g9
tp907
I336
s(S'string'
p908
S'else'
p909
S'for'
p910
tp911
I1
s(S'in'
p912
S'end'
p913
S'function'
p914
tp915
I29
s(S'nil'
p916
g1
g40
tp917
I1
s(S'end'
p918
S'>='
p919
S'nil'
p920
tp921
I11
s(S'if'
p922
S'nil'
p923
g10
tp924
I14
s(S'end'
p925
g1
g22
tp926
I22
s(g9
S'>='
p927
S'let'
p928
tp929
I26
s(S'nil'
p930
g43
S'while'
p931
tp932
I12
s(S'!='
p933
S'string'
p934
S'then'
p935
tp936
I22
s(g151
S'id'
p937
g43
tp938
I2
s(S'end'
p939
g19
S'break'
p940
tp941
I18
s(S'if'
p942
S'if'
p943
S'integer'
p944
tp945
I41
s(g43
S'break'
p946
S'type'
p947
tp948
I4
s(S'string'
p949
g35
g40
tp950
I6
s(g43
g380
g381
tp951
I7
s(S'integer'
p952
S'do'
p953
S'break'
p954
tp955
I134
s(g22
S'nil'
p956
S'!='
p957
tp958
I20
s(g99
S'<='
p959
S'nil'
p960
tp961
I2
s(g22
S'break'
p962
g43
tp963
I22
s(S'string'
p964
g10
S'for'
p965
tp966
I5
s(S'do'
p967
g22
g40
tp968
I80
s(g1
S'id'
p969
S'do'
p970
tp971
I14
s(S'then'
p972
S'integer'
p973
S'type'
p974
tp975
I1
s(g10
S'while'
p976
S'if'
p977
tp978
I10
s(S'do'
p979
S'nil'
p980
S'<='
p981
tp982
I41
s(S'!='
p983
S'nil'
p984
S'in'
p985
tp986
I10
s(S':='
p987
g22
S'while'
p988
tp989
I48
s(S'!='
p990
S'if'
p991
g22
tp992
I12
s(S'else'
p993
S'id'
p994
g97
tp995
I1
s(S':='
p996
S'id'
p997
g22
tp998
I21
s(g35
S'id'
p999
g97
tp1000
I2
s(S'end'
p1001
S'else'
p1002
S'if'
p1003
tp1004
I1
s(g132
S'nil'
p1005
g97
tp1006
I3
s(S'do'
p1007
S'string'
p1008
S'<='
p1009
tp1010
I36
s(S'while'
p1011
S'id'
p1012
g10
tp1013
I8
s(g9
g10
g22
tp1014
I13
s(g111
g35
S'nil'
p1015
tp1016
I1
s(g40
g9
S'function'
p1017
tp1018
I24
s(S'do'
p1019
S'for'
p1020
S'id'
p1021
tp1022
I750
s(S'id'
p1023
g43
S'array'
p1024
tp1025
I112
s(S'in'
p1026
S'end'
p1027
S'in'
p1028
tp1029
I326
s(g1021
S':='
p1030
S'nil'
p1031
tp1032
I249
s(g981
g761
g762
tp1033
I42
s(S'nil'
p1034
S'do'
p1035
S'for'
p1036
tp1037
I110
s(S'id'
p1038
S'else'
p1039
S'string'
p1040
tp1041
I1
s(g19
g275
g276
tp1042
I2
s(S'string'
p1043
g58
S'nil'
p1044
tp1045
I10
s(g10
S'id'
p1046
g317
tp1047
I4
s(g1
S'id'
p1048
g43
tp1049
I2
s(S'in'
p1050
S'end'
p1051
g35
tp1052
I197
s(S'while'
p1053
g40
g9
tp1054
I3
s(S'end'
p1055
g10
S'for'
p1056
tp1057
I12
s(S'do'
p1058
g22
S'break'
p1059
tp1060
I71
s(S'end'
p1061
S'>='
p1062
S'id'
p1063
tp1064
I17
s(g1
g875
g97
tp1065
I4
s(g151
S'let'
p1066
S'var'
p1067
tp1068
I5
s(g22
S'break'
p1069
S'!='
p1070
tp1071
I1
s(g602
g603
S'nil'
p1072
tp1073
I12
s(S'string'
p1074
g22
S'for'
p1075
tp1076
I10
s(S'end'
p1077
g10
S'integer'
p1078
tp1079
I22
s(g9
g99
S'then'
p1080
tp1081
I6
s(S'else'
p1082
g1038
g1039
tp1083
I1
s(S'then'
p1084
g22
S'while'
p1085
tp1086
I28
s(g525
g19
S'while'
p1087
tp1088
I6
s(g9
g22
S'integer'
p1089
tp1090
I20
s(S'string'
p1091
g43
S'array'
p1092
tp1093
I101
s(S'break'
p1094
g22
S'nil'
p1095
tp1096
I27
s(S'then'
p1097
S'integer'
p1098
g1
tp1099
I31
s(S'while'
p1100
S'string'
p1101
S'<='
p1102
tp1103
I6
s(S'end'
p1104
S'!='
p1105
g22
tp1106
I13
s(g35
S'id'
p1107
g320
tp1108
I1
s(S'!='
p1109
g22
S'id'
p1110
tp1111
I10
s(S'string'
p1112
g111
g35
tp1113
I1
s(S'<='
p1114
S'string'
p1115
S'function'
p1116
tp1117
I1
s(g9
g10
S'id'
p1118
tp1119
I15
s(S':='
p1120
S'nil'
p1121
g58
tp1122
I19
s(S'integer'
p1123
S'!='
p1124
S'nil'
p1125
tp1126
I17
s(S'break'
p1127
g111
g97
tp1128
I3
s(S'id'
p1129
S'then'
p1130
S'break'
p1131
tp1132
I55
s(S'!='
p1133
g27
g28
tp1134
I12
s(S'nil'
p1135
g22
S'nil'
p1136
tp1137
I19
s(g58
S'if'
p1138
S'if'
p1139
tp1140
I15
s(S'>='
p1141
S'let'
p1142
S'type'
p1143
tp1144
I25
s(g10
S'id'
p1145
g79
tp1146
I3
s(g10
S'break'
p1147
g97
tp1148
I6
s(S'<='
p1149
S'nil'
p1150
S'do'
p1151
tp1152
I47
s(g22
S'break'
p1153
S'else'
p1154
tp1155
I4
s(g58
S'string'
p1156
g43
tp1157
I1
s(g317
g99
g847
tp1158
I297
s(S'else'
p1159
S'integer'
p1160
S'in'
p1161
tp1162
I1
s(S'then'
p1163
S'id'
p1164
g40
tp1165
I14
s(S'while'
p1166
S'nil'
p1167
S'<='
p1168
tp1169
I1
s(g1
S'id'
p1170
g40
tp1171
I3
s(S'id'
p1172
g1
S'while'
p1173
tp1174
I2
s(g22
g22
g40
tp1175
I47
s(g99
g35
S'string'
p1176
tp1177
I1
s(g43
S'if'
p1178
S'for'
p1179
tp1180
I20
s(S'else'
p1181
S'id'
p1182
g35
tp1183
I3
s(S'<='
p1184
S'id'
p1185
S'then'
p1186
tp1187
I17
s(g111
g43
S'if'
p1188
tp1189
I1
s(g22
S'id'
p1190
S'<='
p1191
tp1192
I21
s(g9
S'type'
p1193
S'id'
p1194
tp1195
I7
s(g173
S'break'
p1196
g10
tp1197
I4
s(g58
S'id'
p1198
S'to'
p1199
tp1200
I11
s(g285
g286
S'nil'
p1201
tp1202
I38
s(S'if'
p1203
S'integer'
p1204
S'then'
p1205
tp1206
I30
s(S'string'
p1207
g35
S'id'
p1208
tp1209
I26
s(g111
S'do'
p1210
S'let'
p1211
tp1212
I2
s(g9
g22
S'id'
p1213
tp1214
I30
s(g22
S'while'
p1215
S'for'
p1216
tp1217
I15
s(S'nil'
p1218
g10
g127
tp1219
I12
s(g40
g9
g35
tp1220
I8
s(S'integer'
p1221
S'else'
p1222
g22
tp1223
I2
s(g151
S'nil'
p1224
g35
tp1225
I1
s(S'if'
p1226
g22
S'let'
p1227
tp1228
I43
s(g1
S'string'
p1229
g35
tp1230
I4
s(g22
S'nil'
p1231
S'else'
p1232
tp1233
I5
s(S'end'
p1234
S'then'
p1235
S'for'
p1236
tp1237
I57
s(g19
S'id'
p1238
g99
tp1239
I2
s(S'if'
p1240
S'break'
p1241
S'<='
p1242
tp1243
I15
s(g22
S'string'
p1244
g1
tp1245
I26
s(g79
S'integer'
p1246
S'<='
p1247
tp1248
I2
s(S'nil'
p1249
g22
S'let'
p1250
tp1251
I22
s(S'if'
p1252
S'let'
p1253
S'var'
p1254
tp1255
I12
s(S'if'
p1256
S'nil'
p1257
g1
tp1258
I3
s(g813
S'to'
p1259
S'string'
p1260
tp1261
I49
s(S'to'
p1262
g22
S'id'
p1263
tp1264
I41
s(g35
S'while'
p1265
S'for'
p1266
tp1267
I11
s(S'id'
p1268
S'do'
p1269
S'let'
p1270
tp1271
I111
s(S'<='
p1272
g377
g99
tp1273
I2
s(S'else'
p1274
S'string'
p1275
S'then'
p1276
tp1277
I2
s(S'<='
p1278
S'integer'
p1279
g35
tp1280
I4
s(S'id'
p1281
g58
S'id'
p1282
tp1283
I17
s(S'to'
p1284
S'nil'
p1285
g10
tp1286
I12
s(S'end'
p1287
g22
S'if'
p1288
tp1289
I11
s(S'nil'
p1290
g10
S'while'
p1291
tp1292
I5
s(g1
S'integer'
p1293
g1
tp1294
I1
s(g19
S'string'
p1295
g22
tp1296
I2
s(g9
g58
S'string'
p1297
tp1298
I20
s(S'integer'
p1299
g35
S'for'
p1300
tp1301
I2
s(g320
S'id'
p1302
g97
tp1303
I3
s(g99
S'!='
p1304
S'break'
p1305
tp1306
I1
s(S'string'
p1307
g111
g151
tp1308
I1
s(S':='
p1309
S'if'
p1310
g22
tp1311
I50
s(g22
S'id'
p1312
g58
tp1313
I12
s(S'do'
p1314
S'id'
p1315
S'do'
p1316
tp1317
I191
s(g43
g724
g725
tp1318
I75
s(g35
S'nil'
p1319
g97
tp1320
I6
s(S'do'
p1321
S'nil'
p1322
g111
tp1323
I1
s(g111
S'in'
p1324
S'end'
p1325
tp1326
I6
s(S'<='
p1327
S'while'
p1328
S'for'
p1329
tp1330
I8
s(S'break'
p1331
g1
g22
tp1332
I7
s(S'string'
p1333
g22
S'string'
p1334
tp1335
I20
s(S'if'
p1336
S'while'
p1337
S'break'
p1338
tp1339
I9
s(S'to'
p1340
S'integer'
p1341
S'do'
p1342
tp1343
I240
s(S'string'
p1344
g43
S'id'
p1345
tp1346
I127
s(g22
S'integer'
p1347
g35
tp1348
I22
s(S'>='
p1349
S'string'
p1350
g10
tp1351
I1
s(g43
S'integer'
p1352
g19
tp1353
I13
s(S'then'
p1354
S'while'
p1355
S'while'
p1356
tp1357
I25
s(S'integer'
p1358
g111
g1
tp1359
I1
s(S'id'
p1360
g111
S'of'
p1361
tp1362
I2
s(g22
S'while'
p1363
S'break'
p1364
tp1365
I43
s(g1
S'integer'
p1366
S'do'
p1367
tp1368
I35
s(S'string'
p1369
S'then'
p1370
S'string'
p1371
tp1372
I60
s(g19
S'if'
p1373
S'let'
p1374
tp1375
I16
s(S'end'
p1376
g111
S'in'
p1377
tp1378
I1
s(S'to'
p1379
S'id'
p1380
g10
tp1381
I12
s(g19
S'string'
p1382
S'then'
p1383
tp1384
I18
s(S'integer'
p1385
g58
S'integer'
p1386
tp1387
I10
s(S'break'
p1388
g43
S'nil'
p1389
tp1390
I4
s(g1
S'nil'
p1391
S'then'
p1392
tp1393
I20
s(g132
S'break'
p1394
S'to'
p1395
tp1396
I9
s(g22
S'integer'
p1397
S'do'
p1398
tp1399
I149
s(S'else'
p1400
g22
S'let'
p1401
tp1402
I1
s(g496
g10
S'if'
p1403
tp1404
I5
s(S'id'
p1405
g22
g22
tp1406
I3
s(g1
S'if'
p1407
S'while'
p1408
tp1409
I11
s(g1263
S'do'
p1410
S'integer'
p1411
tp1412
I114
s(S'end'
p1413
S'to'
p1414
S'for'
p1415
tp1416
I48
s(S'string'
p1417
g1
S'break'
p1418
tp1419
I6
s(S'string'
p1420
g35
g22
tp1421
I19
s(g58
g22
S'string'
p1422
tp1423
I17
s(S'to'
p1424
S'if'
p1425
S'id'
p1426
tp1427
I31
s(S'!='
p1428
S'nil'
p1429
g1
tp1430
I1
s(g10
S'string'
p1431
S'var'
p1432
tp1433
I1
s(S'then'
p1434
S'integer'
p1435
g35
tp1436
I19
s(g35
S'break'
p1437
g22
tp1438
I8
s(g99
S'do'
p1439
g22
tp1440
I5
s(g35
S'break'
p1441
S'<='
p1442
tp1443
I1
s(S'string'
p1444
g1
g22
tp1445
I5
s(g320
S'id'
p1446
S'<='
p1447
tp1448
I5
s(S'nil'
p1449
S'then'
p1450
S'break'
p1451
tp1452
I71
s(S'id'
p1453
g58
S'break'
p1454
tp1455
I16
s(g58
S'nil'
p1456
S'in'
p1457
tp1458
I11
s(S'!='
p1459
S'while'
p1460
S'id'
p1461
tp1462
I10
s(S'id'
p1463
S'else'
p1464
S'let'
p1465
tp1466
I3
s(g19
S'id'
p1467
g1
tp1468
I4
s(S'break'
p1469
g1
S'id'
p1470
tp1471
I2
s(S'id'
p1472
S'>='
p1473
S'for'
p1474
tp1475
I10
s(S'string'
p1476
g1133
g27
tp1477
I7
s(S':='
p1478
S'string'
p1479
S'to'
p1480
tp1481
I271
s(S'to'
p1482
S'while'
p1483
S'while'
p1484
tp1485
I28
s(S'else'
p1486
S'break'
p1487
S'type'
p1488
tp1489
I1
s(S'do'
p1490
S'nil'
p1491
S'then'
p1492
tp1493
I121
s(S'id'
p1494
S'to'
p1495
S'for'
p1496
tp1497
I58
s(g39
g40
g9
tp1498
I910
s(S'integer'
p1499
g43
g40
tp1500
I7
s(g9
g58
S'nil'
p1501
tp1502
I23
s(S'to'
p1503
S'while'
p1504
S'break'
p1505
tp1506
I37
s(S'else'
p1507
g22
S'integer'
p1508
tp1509
I3
s(S'do'
p1510
S'string'
p1511
g1
tp1512
I37
s(g9
S'!='
p1513
S'if'
p1514
tp1515
I13
s(S'id'
p1516
g99
g10
tp1517
I2
s(S'id'
p1518
g35
S'nil'
p1519
tp1520
I15
s(g1380
g10
S'if'
p1521
tp1522
I14
s(g19
S'for'
p1523
S'id'
p1524
tp1525
I133
s(S'integer'
p1526
S'!='
p1527
S'while'
p1528
tp1529
I4
s(g22
S'break'
p1530
S'to'
p1531
tp1532
I62
s(g1
S'break'
p1533
S'do'
p1534
tp1535
I26
s(g19
g22
S'for'
p1536
tp1537
I14
s(g1
S'break'
p1538
g10
tp1539
I2
s(S'end'
p1540
S'!='
p1541
S'while'
p1542
tp1543
I16
s(g43
g317
g99
tp1544
I297
s(S'if'
p1545
S'id'
p1546
g317
tp1547
I12
s(g35
S'while'
p1548
S'if'
p1549
tp1550
I11
s(S'string'
p1551
g22
g40
tp1552
I17
s(g10
S'integer'
p1553
S'do'
p1554
tp1555
I23
s(S'string'
p1556
g19
g22
tp1557
I19
s(S'string'
p1558
g58
S'let'
p1559
tp1560
I3
s(S'!='
p1561
S'id'
p1562
g35
tp1563
I3
s(g43
g22
S'let'
p1564
tp1565
I31
s(S':='
p1566
S'nil'
p1567
g22
tp1568
I22
s(S'break'
p1569
g35
g747
tp1570
I24
s(g1
S'string'
p1571
S'!='
p1572
tp1573
I3
s(S'>='
p1574
S'integer'
p1575
S'!='
p1576
tp1577
I4
s(g9
g43
g724
tp1578
I171
s(S'then'
p1579
S'integer'
p1580
g19
tp1581
I25
s(g132
S'nil'
p1582
S'var'
p1583
tp1584
I2
s(S':='
p1585
S'id'
p1586
g19
tp1587
I14
s(S'end'
p1588
g19
S'while'
p1589
tp1590
I23
s(g22
S'break'
p1591
g99
tp1592
I2
s(S'nil'
p1593
S'>='
p1594
S'break'
p1595
tp1596
I20
s(S'integer'
p1597
g19
S'nil'
p1598
tp1599
I3
s(S'id'
p1600
S'<='
p1601
S'if'
p1602
tp1603
I4
s(S'do'
p1604
g1218
g10
tp1605
I30
s(g1
S'while'
p1606
S'while'
p1607
tp1608
I8
s(S'else'
p1609
S'id'
p1610
S'to'
p1611
tp1612
I3
s(S'do'
p1613
S'break'
p1614
S'to'
p1615
tp1616
I94
s(g35
S'string'
p1617
S'<='
p1618
tp1619
I11
s(S'id'
p1620
g22
S'while'
p1621
tp1622
I9
s(S'<='
p1623
S'string'
p1624
g97
tp1625
I5
s(g151
S'id'
p1626
g320
tp1627
I2
s(S'if'
p1628
S'if'
p1629
S'string'
p1630
tp1631
I6
s(S'integer'
p1632
S'type'
p1633
S'id'
p1634
tp1635
I10
s(g1285
g10
g22
tp1636
I2
s(g35
S'string'
p1637
g10
tp1638
I3
s(S'integer'
p1639
g43
S'array'
p1640
tp1641
I128
s(S'<='
p1642
S'integer'
p1643
g10
tp1644
I2
s(S'break'
p1645
S'!='
p1646
S'let'
p1647
tp1648
I19
s(g1063
g79
S'break'
p1649
tp1650
I11
s(g43
S'id'
p1651
g317
tp1652
I16
s(g132
S'integer'
p1653
g43
tp1654
I2
s(S'break'
p1655
g22
S'break'
p1656
tp1657
I16
s(S'>='
p1658
S'id'
p1659
S'else'
p1660
tp1661
I2
s(S'string'
p1662
g1
S'id'
p1663
tp1664
I4
s(S'id'
p1665
S'>='
p1666
S'let'
p1667
tp1668
I3
s(S':='
p1669
S'id'
p1670
S'!='
p1671
tp1672
I16
s(g43
S'integer'
p1673
g35
tp1674
I12
s(g43
S'id'
p1675
g97
tp1676
I3
s(S'string'
p1677
S'!='
p1678
S'nil'
p1679
tp1680
I6
s(g10
S'id'
p1681
g1
tp1682
I1
s(g40
g9
g22
tp1683
I7
s(S'do'
p1684
S'id'
p1685
S'to'
p1686
tp1687
I86
s(g99
S'<='
p1688
S'id'
p1689
tp1690
I1
s(g22
g1136
S'<='
p1691
tp1692
I27
s(S'end'
p1693
g35
S'let'
p1694
tp1695
I16
s(g1
S'nil'
p1696
g10
tp1697
I2
s(S'string'
p1698
S'do'
p1699
g22
tp1700
I123
s(g19
S'nil'
p1701
g22
tp1702
I4
s(S'end'
p1703
S'do'
p1704
g22
tp1705
I113
s(g10
g965
S'id'
p1706
tp1707
I113
s(g43
g22
S'integer'
p1708
tp1709
I24
s(S'break'
p1710
g35
g22
tp1711
I10
s(S'>='
p1712
S'integer'
p1713
S'else'
p1714
tp1715
I1
s(S'break'
p1716
S'>='
p1717
S'string'
p1718
tp1719
I2
s(g19
S'integer'
p1720
g1
tp1721
I5
s(S':='
p1722
S'while'
p1723
S'id'
p1724
tp1725
I41
s(g43
S'integer'
p1726
S'in'
p1727
tp1728
I389
s(S'while'
p1729
S'id'
p1730
S'>='
p1731
tp1732
I15
s(S'>='
p1733
S'id'
p1734
S'in'
p1735
tp1736
I8
s(S'integer'
p1737
S'do'
p1738
g40
tp1739
I126
s(g19
S'nil'
p1740
S'>='
p1741
tp1742
I7
s(S'to'
p1743
S'integer'
p1744
g22
tp1745
I16
s(g9
S'to'
p1746
g40
tp1747
I54
s(S'string'
p1748
S'>='
p1749
S'let'
p1750
tp1751
I3
s(g1
S'break'
p1752
g43
tp1753
I3
s(g43
S'string'
p1754
S'then'
p1755
tp1756
I11
s(g1
S'id'
p1757
g79
tp1758
I1
s(S'then'
p1759
S'string'
p1760
g22
tp1761
I21
s(S'break'
p1762
g10
S'string'
p1763
tp1764
I4
s(S'then'
p1765
S'string'
p1766
g551
tp1767
I19
s(S'to'
p1768
S'integer'
p1769
g19
tp1770
I17
s(S':='
p1771
S'string'
p1772
g10
tp1773
I17
s(S'nil'
p1774
g10
S'id'
p1775
tp1776
I1
s(g962
g43
S'let'
p1777
tp1778
I17
s(g22
S'break'
p1779
g19
tp1780
I8
s(g320
S'id'
p1781
g10
tp1782
I6
s(g10
g22
S'break'
p1783
tp1784
I10
s(g9
g1
g40
tp1785
I13
s(g22
g22
S'for'
p1786
tp1787
I45
s(g6
g7
S'string'
p1788
tp1789
I2
s(S'end'
p1790
g1
g40
tp1791
I19
s(g99
g58
S'while'
p1792
tp1793
I1
s(S'!='
p1794
g22
S'for'
p1795
tp1796
I5
s(S'<='
p1797
S'string'
p1798
S'!='
p1799
tp1800
I1
s(S'nil'
p1801
S'!='
p1802
S'break'
p1803
tp1804
I18
s(g1521
g701
g702
tp1805
I12
s(g9
S'else'
p1806
S'while'
p1807
tp1808
I2
s(S'nil'
p1809
S'else'
p1810
S'string'
p1811
tp1812
I5
s(S'nil'
p1813
S'<='
p1814
S'string'
p1815
tp1816
I14
s(g19
S'string'
p1817
S'>='
p1818
tp1819
I5
s(S'string'
p1820
S'then'
p1821
g40
tp1822
I69
s(S'then'
p1823
g22
g22
tp1824
I43
s(g35
S'nil'
p1825
S'in'
p1826
tp1827
I2
s(S'do'
p1828
S'break'
p1829
g99
tp1830
I3
s(S'integer'
p1831
g99
S'<='
p1832
tp1833
I3
s(S'break'
p1834
S'<='
p1835
S'integer'
p1836
tp1837
I21
s(S'>='
p1838
S'while'
p1839
S'for'
p1840
tp1841
I11
s(S'then'
p1842
S'integer'
p1843
S'<='
p1844
tp1845
I18
s(S'to'
p1846
S'if'
p1847
S'while'
p1848
tp1849
I32
s(S'if'
p1850
S'integer'
p1851
g1
tp1852
I21
s(S'then'
p1853
S'break'
p1854
S'in'
p1855
tp1856
I27
s(S':='
p1857
S'nil'
p1858
g19
tp1859
I24
s(S'!='
p1860
S'if'
p1861
S'string'
p1862
tp1863
I7
s(S'to'
p1864
S'if'
p1865
g40
tp1866
I34
s(S'string'
p1867
g10
g1553
tp1868
I10
s(g130
g79
S'string'
p1869
tp1870
I7
s(g35
S'id'
p1871
g151
tp1872
I3
s(g1
S'string'
p1873
g58
tp1874
I8
s(g111
g132
S'break'
p1875
tp1876
I3
s(S'integer'
p1877
S'to'
p1878
g1737
tp1879
I70
s(g58
S'let'
p1880
S'in'
p1881
tp1882
I28
s(g111
S'then'
p1883
S'id'
p1884
tp1885
I3
s(S'string'
p1886
g19
S'id'
p1887
tp1888
I8
s(g22
S'string'
p1889
g58
tp1890
I6
s(g9
g1
S'string'
p1891
tp1892
I16
s(S'string'
p1893
g1794
g22
tp1894
I4
s(S'integer'
p1895
S'>='
p1896
S'id'
p1897
tp1898
I15
s(S'<='
p1899
S'if'
p1900
S'for'
p1901
tp1902
I5
s(S'do'
p1903
S'let'
p1904
S'var'
p1905
tp1906
I215
s(S'do'
p1907
S'integer'
p1908
g97
tp1909
I49
s(g927
g928
S'function'
p1910
tp1911
I47
s(S'<='
p1912
S'string'
p1913
g43
tp1914
I2
s(S'string'
p1915
S'<='
p1916
g40
tp1917
I12
s(g151
S'while'
p1918
S'if'
p1919
tp1920
I2
s(S'<='
p1921
S'nil'
p1922
g1
tp1923
I1
s(S'while'
p1924
S'integer'
p1925
S'!='
p1926
tp1927
I16
s(S'then'
p1928
S'nil'
p1929
g1
tp1930
I18
s(S'string'
p1931
S'>='
p1932
g952
tp1933
I4
s(S'string'
p1934
S'function'
p1935
S'id'
p1936
tp1937
I33
s(S'while'
p1938
S'string'
p1939
g22
tp1940
I13
s(g58
g40
g9
tp1941
I123
s(S'do'
p1942
g22
S'let'
p1943
tp1944
I68
s(S'id'
p1945
S':='
p1946
S'let'
p1947
tp1948
I534
s(S'!='
p1949
g1655
g22
tp1950
I8
s(g151
S'if'
p1951
S'id'
p1952
tp1953
I3
s(g351
S'then'
p1954
S'while'
p1955
tp1956
I58
s(g19
S'if'
p1957
S'integer'
p1958
tp1959
I11
s(S'end'
p1960
S'do'
p1961
S'while'
p1962
tp1963
I114
s(S'id'
p1964
g132
g416
tp1965
I14
s(S'nil'
p1966
g10
S'break'
p1967
tp1968
I12
s(S'id'
p1969
S'var'
p1970
S'id'
p1971
tp1972
I21
s(S'else'
p1973
g419
g420
tp1974
I1
s(g79
S'string'
p1975
S'>='
p1976
tp1977
I2
s(g151
S'integer'
p1978
g58
tp1979
I1
s(S'>='
p1980
S'break'
p1981
S'in'
p1982
tp1983
I13
s(S'break'
p1984
g1853
g1854
tp1985
I55
s(S':='
p1986
S'nil'
p1987
g35
tp1988
I32
s(g1614
g1615
S'string'
p1989
tp1990
I61
s(S'<='
p1991
S'id'
p1992
g19
tp1993
I1
s(g9
g43
S'integer'
p1994
tp1995
I168
s(S'string'
p1996
g10
g40
tp1997
I10
s(S'<='
p1998
S'string'
p1999
S'var'
p2000
tp2001
I1
s(S'then'
p2002
S'if'
p2003
S'while'
p2004
tp2005
I28
s(S'while'
p2006
g22
S'while'
p2007
tp2008
I34
s(S'do'
p2009
S'nil'
p2010
g35
tp2011
I30
s(S':='
p2012
S'integer'
p2013
g43
tp2014
I27
s(S'<='
p2015
S'let'
p2016
S'var'
p2017
tp2018
I33
s(g43
S'id'
p2019
S'in'
p2020
tp2021
I401
s(S'break'
p2022
g1928
g1929
tp2023
I65
s(S'integer'
p2024
S'to'
p2025
S'id'
p2026
tp2027
I72
s(S'!='
p2028
S'string'
p2029
S'in'
p2030
tp2031
I14
s(S'integer'
p2032
S'!='
p2033
g22
tp2034
I18
s(S'id'
p2035
S'!='
p2036
S'while'
p2037
tp2038
I10
s(g1
g22
S'id'
p2039
tp2040
I7
s(S'do'
p2041
S'nil'
p2042
g99
tp2043
I4
s(S'id'
p2044
g58
S'let'
p2045
tp2046
I9
s(S':='
p2047
S'integer'
p2048
S'var'
p2049
tp2050
I5
s(S'id'
p2051
g19
S'for'
p2052
tp2053
I12
s(S'end'
p2054
S'!='
p2055
S'if'
p2056
tp2057
I16
s(S'!='
p2058
S'let'
p2059
S'var'
p2060
tp2061
I31
s(g35
g22
S'if'
p2062
tp2063
I13
s(g9
S'to'
p2064
S'id'
p2065
tp2066
I74
s(S'while'
p2067
S'while'
p2068
S'while'
p2069
tp2070
I11
s(S'then'
p2071
S'while'
p2072
S'nil'
p2073
tp2074
I35
s(S'to'
p2075
S'nil'
p2076
g58
tp2077
I13
s(g58
S'string'
p2078
S'do'
p2079
tp2080
I36
s(g9
g35
S'for'
p2081
tp2082
I15
s(g58
S'string'
p2083
g10
tp2084
I7
s(S'string'
p2085
g43
S'for'
p2086
tp2087
I12
s(S'<='
p2088
g22
g1453
tp2089
I17
s(g99
S'var'
p2090
S'id'
p2091
tp2092
I1
s(S'end'
p2093
S'>='
p2094
S'integer'
p2095
tp2096
I21
s(g151
S'let'
p2097
S'in'
p2098
tp2099
I2
s(g320
S'id'
p2100
S'to'
p2101
tp2102
I23
s(g19
S'id'
p2103
g58
tp2104
I4
s(g22
S'id'
p2105
g19
tp2106
I13
s(g111
S'do'
p2107
S'integer'
p2108
tp2109
I3
s(g111
S'to'
p2110
S'while'
p2111
tp2112
I1
s(S'>='
p2113
S'while'
p2114
g40
tp2115
I8
s(S'if'
p2116
S'id'
p2117
S'!='
p2118
tp2119
I11
s(g9
g1017
S'id'
p2120
tp2121
I24
s(S'!='
p2122
S'integer'
p2123
g1
tp2124
I2
s(S'end'
p2125
g22
S'while'
p2126
tp2127
I11
s(S'else'
p2128
S'break'
p2129
S'>='
p2130
tp2131
I3
s(g9
g22
S'let'
p2132
tp2133
I14
s(S':='
p2134
g1526
g1527
tp2135
I36
s(g1717
g1718
S'>='
p2136
tp2137
I5
s(g1
S'while'
p2138
S'id'
p2139
tp2140
I6
s(g99
S'to'
p2141
S'string'
p2142
tp2143
I1
s(g43
S'nil'
p2144
g99
tp2145
I15
s(S'string'
p2146
g35
S'break'
p2147
tp2148
I1
s(g1201
S'!='
p2149
S'nil'
p2150
tp2151
I19
s(g79
S'nil'
p2152
g58
tp2153
I1
s(g35
S'if'
p2154
S'integer'
p2155
tp2156
I5
s(g10
S'id'
p2157
S'else'
p2158
tp2159
I2
s(S'string'
p2160
g111
g19
tp2161
I2
s(g43
S'break'
p2162
S'function'
p2163
tp2164
I4
s(S'id'
p2165
g43
S'while'
p2166
tp2167
I34
s(S'!='
p2168
S'nil'
p2169
S'!='
p2170
tp2171
I4
s(g35
S'nil'
p2172
S'then'
p2173
tp2174
I20
s(g9
S'else'
p2175
S'integer'
p2176
tp2177
I3
s(g43
S'id'
p2178
S'to'
p2179
tp2180
I13
s(g1559
S'var'
p2181
S'id'
p2182
tp2183
I17
s(S'integer'
p2184
g10
S'nil'
p2185
tp2186
I8
s(g132
S'integer'
p2187
S'to'
p2188
tp2189
I4
s(g35
S'integer'
p2190
g10
tp2191
I5
s(g22
S'break'
p2192
g1
tp2193
I17
s(g99
S'then'
p2194
S'let'
p2195
tp2196
I2
s(g1
g22
S'nil'
p2197
tp2198
I9
s(g9
S'else'
p2199
g22
tp2200
I2
s(g1821
g40
g9
tp2201
I447
s(S'while'
p2202
g2051
g19
tp2203
I4
s(g1854
g1855
S'end'
p2204
tp2205
I337
s(g151
S'integer'
p2206
g10
tp2207
I1
s(S'then'
p2208
S'break'
p2209
g111
tp2210
I2
s(g43
S'string'
p2211
S'!='
p2212
tp2213
I9
s(S'else'
p2214
S'id'
p2215
g317
tp2216
I1
s(S'break'
p2217
g1
S'nil'
p2218
tp2219
I19
s(g43
S'nil'
p2220
g35
tp2221
I9
s(g132
S'break'
p2222
S'<='
p2223
tp2224
I2
s(S'break'
p2225
g111
g79
tp2226
I1
s(g40
g9
g2175
tp2227
I36
s(S'break'
p2228
g19
g22
tp2229
I13
s(g111
g58
S'let'
p2230
tp2231
I1
s(g10
g1078
S'<='
p2232
tp2233
I3
s(g79
S'break'
p2234
g10
tp2235
I3
s(g19
S'if'
p2236
S'id'
p2237
tp2238
I3
s(S'>='
p2239
S'integer'
p2240
g19
tp2241
I6
s(g58
S'string'
p2242
g35
tp2243
I3
s(S'do'
p2244
S'integer'
p2245
S'in'
p2246
tp2247
I45
s(g151
S'nil'
p2248
g10
tp2249
I2
s(g111
S'to'
p2250
S'for'
p2251
tp2252
I1
s(S'of'
p2253
S'break'
p2254
g97
tp2255
I1
s(S'nil'
p2256
g111
S'to'
p2257
tp2258
I1
s(S'id'
p2259
g1
S'id'
p2260
tp2261
I18
s(g10
S'while'
p2262
S'string'
p2263
tp2264
I7
s(g10
S'id'
p2265
g58
tp2266
I1
s(g19
S'id'
p2267
S'to'
p2268
tp2269
I7
s(g2192
g1
S'while'
p2270
tp2271
I1
s(S'<='
p2272
S'break'
p2273
g97
tp2274
I10
s(S'id'
p2275
g22
S'for'
p2276
tp2277
I3
s(g43
S'integer'
p2278
S'to'
p2279
tp2280
I24
s(S'end'
p2281
g1980
g1981
tp2282
I20
s(S'to'
p2283
S'while'
p2284
g942
tp2285
I30
s(g35
S'integer'
p2286
S'function'
p2287
tp2288
I1
s(S':='
p2289
S'if'
p2290
S'for'
p2291
tp2292
I35
s(g35
S'id'
p2293
g79
tp2294
I3
s(S'in'
p2295
S'end'
p2296
g43
tp2297
I175
s(g1
S'id'
p2298
S'then'
p2299
tp2300
I17
s(S'while'
p2301
S'while'
p2302
g22
tp2303
I8
s(g19
S'integer'
p2304
g58
tp2305
I6
s(S'string'
p2306
g1949
g1655
tp2307
I23
s(S'end'
p2308
g58
S'integer'
p2309
tp2310
I18
s(g10
S'id'
p2311
S'to'
p2312
tp2313
I15
s(g58
S'nil'
p2314
S'>='
p2315
tp2316
I10
s(g1
S'integer'
p2317
g2283
tp2318
I15
s(S'integer'
p2319
g43
g22
tp2320
I7
s(g9
S'do'
p2321
S'integer'
p2322
tp2323
I129
s(S'string'
p2324
S'>='
p2325
S'nil'
p2326
tp2327
I9
s(S'string'
p2328
g43
g40
tp2329
I14
s(S'<='
p2330
S'integer'
p2331
g22
tp2332
I8
s(S'nil'
p2333
g58
g22
tp2334
I2
s(S'!='
p2335
S'string'
p2336
g111
tp2337
I3
s(g35
g747
g748
tp2338
I18
s(S'>='
p2339
S'string'
p2340
S'do'
p2341
tp2342
I46
s(g22
S'string'
p2343
g22
tp2344
I25
s(S'if'
p2345
S'string'
p2346
g22
tp2347
I14
s(g79
S'string'
p2348
S'then'
p2349
tp2350
I6
s(g9
g99
S'<='
p2351
tp2352
I2
s(g10
S'break'
p2353
S'else'
p2354
tp2355
I2
s(S'string'
p2356
S'>='
p2357
S'for'
p2358
tp2359
I11
s(g22
S'break'
p2360
S'in'
p2361
tp2362
I36
s(S':='
p2363
S'id'
p2364
g35
tp2365
I20
s(S'if'
p2366
g22
S'integer'
p2367
tp2368
I46
s(S'string'
p2369
g43
S'while'
p2370
tp2371
I16
s(g1347
g35
g22
tp2372
I11
s(S'integer'
p2373
S'else'
p2374
S'while'
p2375
tp2376
I1
s(g1
S'break'
p2377
S'var'
p2378
tp2379
I1
s(g151
S'if'
p2380
S'for'
p2381
tp2382
I3
s(S'id'
p2383
g43
S'break'
p2384
tp2385
I30
s(g58
S'nil'
p2386
S'<='
p2387
tp2388
I5
s(g58
S'id'
p2389
g1149
tp2390
I7
s(S'if'
p2391
S'nil'
p2392
g22
tp2393
I22
s(S'>='
p2394
S'id'
p2395
S':='
p2396
tp2397
I3
s(S'while'
p2398
S'integer'
p2399
g58
tp2400
I18
s(g22
g691
g692
tp2401
I13
s(g1151
g1877
g1878
tp2402
I124
s(g58
S'id'
p2403
g10
tp2404
I1
s(g10
S'string'
p2405
g35
tp2406
I3
s(S'do'
p2407
g1333
g22
tp2408
I30
s(S'id'
p2409
g111
S'<='
p2410
tp2411
I1
s(S'do'
p2412
S'break'
p2413
g43
tp2414
I36
s(g10
S'if'
p2415
S'let'
p2416
tp2417
I5
s(S'id'
p2418
g1
S'string'
p2419
tp2420
I7
s(g2166
S'while'
p2421
g40
tp2422
I4
s(S'!='
p2423
S'string'
p2424
S'to'
p2425
tp2426
I13
s(g1
g22
S'while'
p2427
tp2428
I12
s(g99
g10
S'string'
p2429
tp2430
I2
s(S'end'
p2431
g22
g40
tp2432
I20
s(S'end'
p2433
g58
g2389
tp2434
I20
s(S'then'
p2435
g1809
g1810
tp2436
I20
s(g9
S'<='
p2437
S'if'
p2438
tp2439
I15
s(S'if'
p2440
S'integer'
p2441
g58
tp2442
I15
s(g9
g43
g234
tp2443
I142
s(g19
S'if'
p2444
g2356
tp2445
I12
s(g1501
g58
g1198
tp2446
I13
s(S'nil'
p2447
g1
g2317
tp2448
I22
s(g22
S'nil'
p2449
S'type'
p2450
tp2451
I5
s(S'!='
p2452
S'nil'
p2453
S'>='
p2454
tp2455
I5
s(g1
S'string'
p2456
g10
tp2457
I1
s(S'while'
p2458
S'nil'
p2459
g35
tp2460
I14
s(g79
S'nil'
p2461
g35
tp2462
I1
s(S'then'
p2463
S'id'
p2464
S'in'
p2465
tp2466
I24
s(S'do'
p2467
S'string'
p2468
S'type'
p2469
tp2470
I4
s(S'<='
p2471
S'integer'
p2472
S'do'
p2473
tp2474
I31
s(S'if'
p2475
S'string'
p2476
S'<='
p2477
tp2478
I24
s(g1
S'id'
p2479
S'<='
p2480
tp2481
I1
s(S'end'
p2482
g99
g1
tp2483
I1
s(S'do'
p2484
S'break'
p2485
g97
tp2486
I50
s(S'while'
p2487
S'string'
p2488
g19
tp2489
I13
s(S'<='
p2490
S'if'
p2491
S'string'
p2492
tp2493
I14
s(S'in'
p2494
S'end'
p2495
g10
tp2496
I180
s(g43
S'nil'
p2497
g19
tp2498
I11
s(S'nil'
p2499
S'then'
p2500
S'nil'
p2501
tp2502
I65
s(S'nil'
p2503
S'<='
p2504
S'integer'
p2505
tp2506
I14
s(g19
S'nil'
p2507
S'!='
p2508
tp2509
I7
s(S'integer'
p2510
g58
S'id'
p2511
tp2512
I17
s(g787
g10
S'break'
p2513
tp2514
I23
s(S'integer'
p2515
g111
S'!='
p2516
tp2517
I1
s(S'id'
p2518
S'then'
p2519
S'id'
p2520
tp2521
I54
s(S'>='
p2522
S'break'
p2523
S'type'
p2524
tp2525
I1
s(S'then'
p2526
S'nil'
p2527
g58
tp2528
I20
s(S'break'
p2529
g58
S'while'
p2530
tp2531
I5
s(S'nil'
p2532
S'<='
p2533
g1938
tp2534
I23
s(g43
g931
S'id'
p2535
tp2536
I25
s(g22
S'id'
p2537
g99
tp2538
I2
s(g9
g58
S'if'
p2539
tp2540
I16
s(g43
S'string'
p2541
S'var'
p2542
tp2543
I7
s(g99
g10
S'for'
p2544
tp2545
I1
s(g35
S'if'
p2546
S'string'
p2547
tp2548
I5
s(S'to'
p2549
S'id'
p2550
g19
tp2551
I12
s(g58
S'break'
p2552
g19
tp2553
I5
s(S'else'
p2554
S'break'
p2555
g35
tp2556
I1
s(S'>='
p2557
g40
g9
tp2558
I124
s(g9
g99
g19
tp2559
I1
s(g151
S'integer'
p2560
g1
tp2561
I1
s(g2419
S'to'
p2562
S'if'
p2563
tp2564
I47
s(g35
S'integer'
p2565
g35
tp2566
I3
s(S'do'
p2567
S'nil'
p2568
S'in'
p2569
tp2570
I59
s(S'then'
p2571
S'id'
p2572
g10
tp2573
I12
s(S'string'
p2574
g19
S'for'
p2575
tp2576
I4
s(g58
S'integer'
p2577
S'in'
p2578
tp2579
I6
s(g132
S'integer'
p2580
S'function'
p2581
tp2582
I1
s(S'do'
p2583
g1385
g58
tp2584
I47
s(S'nil'
p2585
S'>='
p2586
S'id'
p2587
tp2588
I3
s(S'nil'
p2589
S'!='
p2590
S'if'
p2591
tp2592
I14
s(S'nil'
p2593
S'!='
p2594
S'let'
p2595
tp2596
I17
s(g58
S'if'
p2597
S'break'
p2598
tp2599
I14
s(g111
g43
S'for'
p2600
tp2601
I1
s(S'to'
p2602
g1801
g1802
tp2603
I16
s(S'<='
p2604
S'id'
p2605
S'type'
p2606
tp2607
I1
s(g9
g43
S'string'
p2608
tp2609
I149
s(g320
S'id'
p2610
g79
tp2611
I6
s(g35
S'string'
p2612
S'var'
p2613
tp2614
I1
s(S':='
p2615
S'integer'
p2616
S'function'
p2617
tp2618
I4
s(g43
S'integer'
p2619
g22
tp2620
I5
s(S'integer'
p2621
g111
g43
tp2622
I1
s(S'break'
p2623
g43
g40
tp2624
I22
s(S'to'
p2625
S'nil'
p2626
g22
tp2627
I20
s(S'of'
p2628
S'break'
p2629
g43
tp2630
I1
s(S'then'
p2631
S'if'
p2632
S'nil'
p2633
tp2634
I38
s(S'break'
p2635
g22
S'while'
p2636
tp2637
I19
s(g1663
S'>='
p2638
S'if'
p2639
tp2640
I14
s(S'while'
p2641
g22
g40
tp2642
I18
s(g22
S'string'
p2643
S'type'
p2644
tp2645
I4
s(g22
S'if'
p2646
S'integer'
p2647
tp2648
I38
s(g43
S'if'
p2649
S'while'
p2650
tp2651
I31
s(S'string'
p2652
S'id'
p2653
g43
tp2654
I1
s(S'if'
p2655
g22
S'id'
p2656
tp2657
I4
s(S'end'
p2658
S'>='
p2659
g22
tp2660
I12
s(g35
g883
g884
tp2661
I1
s(g9
g58
S'let'
p2662
tp2663
I19
s(g111
g151
g22
tp2664
I1
s(S'break'
p2665
S'then'
p2666
g22
tp2667
I64
s(g1
S'nil'
p2668
g35
tp2669
I4
s(g19
S'id'
p2670
S'<='
p2671
tp2672
I4
s(g19
S'id'
p2673
g43
tp2674
I4
s(S'end'
p2675
g111
g58
tp2676
I1
s(g320
S'id'
p2677
S'type'
p2678
tp2679
I3
s(g19
S'string'
p2680
S'do'
p2681
tp2682
I36
s(g1483
g1484
S'for'
p2683
tp2684
I28
s(S'else'
p2685
g22
g22
tp2686
I4
s(S'if'
p2687
g350
g10
tp2688
I10
s(g58
S'nil'
p2689
S'do'
p2690
tp2691
I26
s(S'else'
p2692
S'integer'
p2693
g22
tp2694
I2
s(S'nil'
p2695
S'do'
p2696
S'let'
p2697
tp2698
I122
s(S'do'
p2699
S'id'
p2700
g40
tp2701
I23
s(S'to'
p2702
g2035
g2036
tp2703
I18
s(g1
S'integer'
p2704
g10
tp2705
I3
s(g111
g43
S'integer'
p2706
tp2707
I2
s(S'>='
p2708
S'break'
p2709
S'then'
p2710
tp2711
I14
s(S'!='
p2712
g22
S'let'
p2713
tp2714
I8
s(S':='
p2715
g22
S'for'
p2716
tp2717
I42
s(g43
S'nil'
p2718
g43
tp2719
I8
s(S':='
p2720
S'string'
p2721
g43
tp2722
I24
s(g1757
g79
S'integer'
p2723
tp2724
I2
s(g111
S'do'
p2725
S'break'
p2726
tp2727
I3
s(S'then'
p2728
S'integer'
p2729
g111
tp2730
I2
s(g2476
g2477
S'if'
p2731
tp2732
I13
s(g111
g58
S'string'
p2733
tp2734
I1
s(S'!='
p2735
S'string'
p2736
S'do'
p2737
tp2738
I50
s(g2710
g22
S'for'
p2739
tp2740
I36
s(S'string'
p2741
g1
S'for'
p2742
tp2743
I1
s(S'end'
p2744
g1
S'for'
p2745
tp2746
I10
s(S'!='
p2747
S'integer'
p2748
S'to'
p2749
tp2750
I18
s(S'do'
p2751
S'id'
p2752
g10
tp2753
I22
s(S'end'
p2754
S'!='
p2755
S'nil'
p2756
tp2757
I19
s(g9
S'to'
p2758
S'nil'
p2759
tp2760
I70
s(S':='
p2761
g1969
g1970
tp2762
I4
s(S'break'
p2763
g58
S'for'
p2764
tp2765
I15
s(g1601
g1602
S'if'
p2766
tp2767
I10
s(g9
g35
g40
tp2768
I23
s(S'then'
p2769
S'while'
p2770
S'if'
p2771
tp2772
I38
s(S'end'
p2773
g22
S'nil'
p2774
tp2775
I17
s(S'while'
p2776
S'string'
p2777
S'!='
p2778
tp2779
I1
s(g19
S'nil'
p2780
S'<='
p2781
tp2782
I7
s(g10
g1291
S'break'
p2783
tp2784
I7
s(g79
S'break'
p2785
g35
tp2786
I3
s(g10
S'string'
p2787
g58
tp2788
I1
s(g43
g156
g157
tp2789
I7
s(S'break'
p2790
g10
S'nil'
p2791
tp2792
I18
s(S'break'
p2793
g19
g40
tp2794
I5
s(S'<='
p2795
S'integer'
p2796
S'to'
p2797
tp2798
I19
s(S'id'
p2799
S'<='
p2800
S'break'
p2801
tp2802
I11
s(g9
g111
S'then'
p2803
tp2804
I5
s(S'nil'
p2805
g22
S'for'
p2806
tp2807
I12
s(S'nil'
p2808
S'else'
p2809
g40
tp2810
I4
s(S'end'
p2811
g111
S'<='
p2812
tp2813
I1
s(g1
g1173
S'string'
p2814
tp2815
I14
s(g10
S'id'
p2816
g97
tp2817
I6
s(g43
S'break'
p2818
S'to'
p2819
tp2820
I21
s(g9
S'!='
p2821
g22
tp2822
I14
s(S'then'
p2823
S'if'
p2824
S'if'
p2825
tp2826
I40
s(g919
g920
S'then'
p2827
tp2828
I13
s(g43
S'if'
p2829
g40
tp2830
I20
s(g1660
S'id'
p2831
S'do'
p2832
tp2833
I7
s(g1
S'let'
p2834
S'in'
p2835
tp2836
I38
s(S'integer'
p2837
g99
g97
tp2838
I1
s(g9
S'type'
p2839
S'integer'
p2840
tp2841
I10
s(g43
S'let'
p2842
g1026
tp2843
I92
s(S'!='
p2844
S'id'
p2845
S'!='
p2846
tp2847
I1
s(g35
S'id'
p2848
S'<='
p2849
tp2850
I1
s(S'integer'
p2851
g2490
g2491
tp2852
I3
s(g1310
g22
g22
tp2853
I42
s(S'id'
p2854
g22
g40
tp2855
I21
s(S'integer'
p2856
g22
g22
tp2857
I28
s(S'do'
p2858
S'nil'
p2859
S'function'
p2860
tp2861
I4
s(g1802
g1803
S'do'
p2862
tp2863
I36
s(g1
S'id'
p2864
S'!='
p2865
tp2866
I1
s(g9
g35
S'id'
p2867
tp2868
I18
s(S'while'
p2869
g265
g266
tp2870
I8
s(g43
S'break'
p2871
g19
tp2872
I8
s(g151
S'if'
p2873
S'while'
p2874
tp2875
I1
s(S'>='
p2876
S'while'
p2877
S'string'
p2878
tp2879
I8
s(S'id'
p2880
S'<='
p2881
g22
tp2882
I13
s(S'to'
p2883
g22
S'break'
p2884
tp2885
I42
s(g132
S'integer'
p2886
g35
tp2887
I2
s(S'in'
p2888
S'end'
p2889
g99
tp2890
I22
s(S'id'
p2891
S'then'
p2892
S'nil'
p2893
tp2894
I39
s(g692
g693
g2708
tp2895
I14
s(S':='
p2896
S'nil'
p2897
S'>='
p2898
tp2899
I20
s(S'integer'
p2900
g111
g151
tp2901
I1
s(S'!='
p2902
S'break'
p2903
g35
tp2904
I5
s(g1848
S'break'
p2905
S'>='
p2906
tp2907
I23
s(S'integer'
p2908
g1
S'for'
p2909
tp2910
I23
s(g132
S'break'
p2911
S'>='
p2912
tp2913
I3
s(g320
S'id'
p2914
S'>='
p2915
tp2916
I7
s(g9
S'<='
p2917
S'nil'
p2918
tp2919
I14
s(g35
S'nil'
p2920
S'function'
p2921
tp2922
I1
s(g2437
g2438
g22
tp2923
I8
s(g10
g22
S'integer'
p2924
tp2925
I11
s(g2136
S'if'
p2926
S'id'
p2927
tp2928
I12
s(S'integer'
p2929
S'>='
p2930
S'string'
p2931
tp2932
I16
s(g43
S'while'
p2933
g40
tp2934
I28
s(g111
g869
S'nil'
p2935
tp2936
I1
s(S'then'
p2937
S'integer'
p2938
g1903
tp2939
I110
s(S'id'
p2940
S'!='
p2941
S'string'
p2942
tp2943
I19
s(g151
S'while'
p2944
S'nil'
p2945
tp2946
I2
s(S'then'
p2947
S'string'
p2948
S'type'
p2949
tp2950
I1
s(S'!='
p2951
S'nil'
p2952
S'then'
p2953
tp2954
I15
s(g35
S'id'
p2955
S'else'
p2956
tp2957
I2
s(g111
g79
g80
tp2958
I1
s(g99
g111
S'do'
p2959
tp2960
I1
s(g43
g1092
S'of'
p2961
tp2962
I341
s(g99
S'then'
p2963
S'if'
p2964
tp2965
I1
s(g957
S'id'
p2966
g317
tp2967
I3
s(g111
g132
S'integer'
p2968
tp2969
I1
s(g43
g2166
g2421
tp2970
I17
s(g321
S'else'
p2971
S'integer'
p2972
tp2973
I4
s(g58
S'integer'
p2974
g97
tp2975
I6
s(g1
g2589
g2590
tp2976
I5
s(S'break'
p2977
S'var'
p2978
S'id'
p2979
tp2980
I37
s(g1
S'if'
p2981
S'if'
p2982
tp2983
I7
s(g58
S'while'
p2984
g40
tp2985
I19
s(S':='
p2986
S'nil'
p2987
g10
tp2988
I19
s(g19
S'break'
p2989
g58
tp2990
I7
s(g43
S'integer'
p2991
S'type'
p2992
tp2993
I5
s(S'else'
p2994
S'for'
p2995
S'id'
p2996
tp2997
I10
s(S'while'
p2998
S'integer'
p2999
g1
tp3000
I7
s(S'end'
p3001
S'<='
p3002
g22
tp3003
I14
s(g847
g848
g2435
tp3004
I706
s(g1078
g2232
S'break'
p3005
tp3006
I24
s(g99
S'to'
p3007
S'while'
p3008
tp3009
I3
s(g35
S'id'
p3010
S'function'
p3011
tp3012
I1
s(S'end'
p3013
g35
g518
tp3014
I17
s(g99
S'!='
p3015
g40
tp3016
I1
s(g22
S'nil'
p3017
S'function'
p3018
tp3019
I2
s(S'do'
p3020
g2529
g58
tp3021
I39
s(S'integer'
p3022
g10
S'string'
p3023
tp3024
I3
s(S'in'
p3025
S'end'
p3026
S'id'
p3027
tp3028
I3
s(g43
S'nil'
p3029
S'var'
p3030
tp3031
I2
s(S'to'
p3032
S'nil'
p3033
g35
tp3034
I20
s(S'id'
p3035
S'!='
p3036
g40
tp3037
I8
s(S'break'
p3038
g99
g35
tp3039
I1
s(g829
S'while'
p3040
S'nil'
p3041
tp3042
I1
s(S'do'
p3043
S'if'
p3044
g1597
tp3045
I82
s(g1
S'break'
p3046
S'to'
p3047
tp3048
I15
s(S'<='
p3049
g22
g40
tp3050
I13
s(S'else'
p3051
S'integer'
p3052
S'else'
p3053
tp3054
I1
s(g58
g466
S'do'
p3055
tp3056
I33
s(g99
S'then'
p3057
S'integer'
p3058
tp3059
I2
s(S'id'
p3060
g10
S'let'
p3061
tp3062
I7
s(g2881
g22
S'nil'
p3063
tp3064
I14
s(g132
S'nil'
p3065
S'to'
p3066
tp3067
I6
s(g19
S'string'
p3068
S'var'
p3069
tp3070
I1
s(g58
g22
g22
tp3071
I11
s(S'string'
p3072
g111
g1
tp3073
I1
s(S'while'
p3074
S'integer'
p3075
g19
tp3076
I12
s(g99
g35
S'nil'
p3077
tp3078
I1
s(g2237
g151
g1951
tp3079
I4
s(S'break'
p3080
g99
g2194
tp3081
I3
s(g611
S'nil'
p3082
g43
tp3083
I11
s(g1391
g1392
S'integer'
p3084
tp3085
I61
s(S'<='
p3086
S'nil'
p3087
S'function'
p3088
tp3089
I3
s(S'then'
p3090
S'for'
p3091
S'id'
p3092
tp3093
I414
s(S'string'
p3094
S'do'
p3095
S'id'
p3096
tp3097
I134
s(S'to'
p3098
S'break'
p3099
g43
tp3100
I20
s(S'break'
p3101
g601
g602
tp3102
I146
s(g1124
g1125
g19
tp3103
I5
s(g22
S'id'
p3104
g43
tp3105
I20
s(S'!='
p3106
S'id'
p3107
g43
tp3108
I1
s(g99
S'then'
p3109
S'nil'
p3110
tp3111
I4
s(g22
S'integer'
p3112
g304
tp3113
I16
s(S'break'
p3114
g58
S'break'
p3115
tp3116
I8
s(g111
S'then'
p3117
S'for'
p3118
tp3119
I1
s(g19
S'nil'
p3120
g35
tp3121
I7
s(g35
S'id'
p3122
g10
tp3123
I1
s(S'<='
p3124
S'while'
p3125
g40
tp3126
I13
s(g58
S'while'
p3127
S'nil'
p3128
tp3129
I19
s(S'to'
p3130
S'while'
p3131
S'integer'
p3132
tp3133
I44
s(g22
S'nil'
p3134
S'to'
p3135
tp3136
I70
s(S':='
p3137
S'id'
p3138
g151
tp3139
I14
s(S'>='
p3140
S'nil'
p3141
S'>='
p3142
tp3143
I4
s(g10
S'integer'
p3144
g97
tp3145
I6
s(S'end'
p3146
g1
S'let'
p3147
tp3148
I29
s(S'break'
p3149
S'else'
p3150
S'string'
p3151
tp3152
I4
s(g19
S'integer'
p3153
S'>='
p3154
tp3155
I9
s(g99
S'>='
p3156
S'break'
p3157
tp3158
I1
s(g9
g2471
g2472
tp3159
I19
s(g22
g1059
g10
tp3160
I20
s(S'<='
p3161
S'break'
p3162
S'in'
p3163
tp3164
I5
s(S'else'
p3165
S'while'
p3166
S'nil'
p3167
tp3168
I3
s(S'break'
p3169
g35
S'for'
p3170
tp3171
I2
s(S'do'
p3172
S'integer'
p3173
g1
tp3174
I30
s(g1
S'let'
p3175
S'function'
p3176
tp3177
I28
s(S'end'
p3178
g3161
g3162
tp3179
I18
s(g896
g897
S'if'
p3180
tp3181
I7
s(S'to'
p3182
g3101
g601
tp3183
I282
s(g58
S'id'
p3184
g111
tp3185
I1
s(g43
S'while'
p3186
S'nil'
p3187
tp3188
I20
s(g35
S'integer'
p3189
g22
tp3190
I5
s(S'!='
p3191
g22
S'if'
p3192
tp3193
I11
s(S'string'
p3194
g22
S'nil'
p3195
tp3196
I15
s(S'nil'
p3197
g19
S'id'
p3198
tp3199
I5
s(g35
S'if'
p3200
S'break'
p3201
tp3202
I8
s(S'string'
p3203
g2423
g2424
tp3204
I15
s(g43
S'break'
p3205
S'id'
p3206
tp3207
I1
s(S'then'
p3208
S'integer'
p3209
g99
tp3210
I3
s(g22
S'while'
p3211
S'let'
p3212
tp3213
I21
s(S'>='
p3214
S'id'
p3215
g22
tp3216
I3
s(S'!='
p3217
S'id'
p3218
g132
tp3219
I3
s(g79
S'break'
p3220
g1
tp3221
I5
s(g1464
g1465
S'type'
p3222
tp3223
I6
s(g1260
g35
S'for'
p3224
tp3225
I20
s(g1
S'nil'
p3226
S'in'
p3227
tp3228
I13
s(g22
g22
S'nil'
p3229
tp3230
I61
s(S'nil'
p3231
g58
S'for'
p3232
tp3233
I10
s(g10
S'nil'
p3234
S'>='
p3235
tp3236
I1
s(g10
g1967
S'do'
p3237
tp3238
I46
s(S'to'
p3239
S'if'
p3240
S'if'
p3241
tp3242
I36
s(S'end'
p3243
S'to'
p3244
g456
tp3245
I62
s(S'id'
p3246
S':='
p3247
S'string'
p3248
tp3249
I265
s(g58
g22
S'if'
p3250
tp3251
I10
s(g19
S'nil'
p3252
S'type'
p3253
tp3254
I2
s(S'do'
p3255
g22
S'if'
p3256
tp3257
I69
s(g1
S'string'
p3258
S'in'
p3259
tp3260
I12
s(S'do'
p3261
S'if'
p3262
S'for'
p3263
tp3264
I67
s(g1811
g2602
g1801
tp3265
I79
s(S'then'
p3266
S'string'
p3267
S'in'
p3268
tp3269
I22
s(S'to'
p3270
S'string'
p3271
g22
tp3272
I18
s(g22
S'while'
p3273
S'string'
p3274
tp3275
I12
s(g19
g1598
S'then'
p3276
tp3277
I19
s(S'nil'
p3278
g111
S'in'
p3279
tp3280
I2
s(S':='
p3281
S'nil'
p3282
S'type'
p3283
tp3284
I4
s(g3115
S'to'
p3285
S'let'
p3286
tp3287
I56
s(g10
S'break'
p3288
S'in'
p3289
tp3290
I8
s(S':='
p3291
S'string'
p3292
S'in'
p3293
tp3294
I60
s(g10
g22
S'for'
p3295
tp3296
I13
s(S'integer'
p3297
g58
g40
tp3298
I21
s(g1
S'string'
p3299
S'type'
p3300
tp3301
I1
s(g58
S'string'
p3302
S'in'
p3303
tp3304
I9
s(g10
S'if'
p3305
S'nil'
p3306
tp3307
I6
s(g9
S'then'
p3308
S'for'
p3309
tp3310
I74
s(g132
S'integer'
p3311
S'in'
p3312
tp3313
I3
s(g35
S'integer'
p3314
g983
tp3315
I4
s(S'if'
p3316
S'if'
p3317
g40
tp3318
I44
s(S'to'
p3319
S'id'
p3320
g79
tp3321
I14
s(g111
S'do'
p3322
S'if'
p3323
tp3324
I3
s(g132
S'integer'
p3325
g19
tp3326
I2
s(S'id'
p3327
g58
S'string'
p3328
tp3329
I15
s(S'>='
p3330
S'string'
p3331
S'function'
p3332
tp3333
I1
s(S'!='
p3334
S'integer'
p3335
g717
tp3336
I57
s(S'>='
p3337
S'nil'
p3338
S'!='
p3339
tp3340
I3
s(S'else'
p3341
S'string'
p3342
S'function'
p3343
tp3344
I1
s(S'!='
p3345
S'id'
p3346
g79
tp3347
I3
s(g10
g1662
g1
tp3348
I2
s(g111
g58
S'integer'
p3349
tp3350
I2
s(S'string'
p3351
g58
g40
tp3352
I12
s(g499
g35
g1437
tp3353
I5
s(g913
g914
S'id'
p3354
tp3355
I29
s(S'else'
p3356
S'nil'
p3357
S'to'
p3358
tp3359
I4
s(g282
g283
S'id'
p3360
tp3361
I23
s(g320
S'id'
p3362
S'then'
p3363
tp3364
I18
s(S'function'
p3365
S'id'
p3366
g40
tp3367
I1476
s(S'>='
p3368
S'while'
p3369
S'break'
p3370
tp3371
I5
s(g1024
S'of'
p3372
S'string'
p3373
tp3374
I106
s(S'end'
p3375
S'to'
p3376
S'id'
p3377
tp3378
I62
s(g2472
g2473
S'if'
p3379
tp3380
I127
s(g58
S'id'
p3381
g1
tp3382
I2
s(S'<='
p3383
S'string'
p3384
S'then'
p3385
tp3386
I14
s(S':='
p3387
S'string'
p3388
g22
tp3389
I21
s(S'do'
p3390
g1934
g1935
tp3391
I4
s(S'integer'
p3392
g1
S'nil'
p3393
tp3394
I31
s(g9
S'else'
p3395
g40
tp3396
I3
s(S'integer'
p3397
S'!='
p3398
S'let'
p3399
tp3400
I12
s(S'nil'
p3401
g58
S'break'
p3402
tp3403
I7
s(g111
g1
S'if'
p3404
tp3405
I1
s(S'<='
p3406
g22
S'while'
p3407
tp3408
I15
s(S'integer'
p3409
S'else'
p3410
g40
tp3411
I3
s(S'in'
p3412
S'end'
p3413
S'var'
p3414
tp3415
I26
s(g35
S'nil'
p3416
S'var'
p3417
tp3418
I4
s(g9
g22
S'string'
p3419
tp3420
I16
s(g19
S'let'
p3421
S'type'
p3422
tp3423
I41
s(S'<='
p3424
S'for'
p3425
S'id'
p3426
tp3427
I109
s(g3358
g22
g22
tp3428
I25
s(S'<='
p3429
S'nil'
p3430
S'var'
p3431
tp3432
I1
s(S'nil'
p3433
S'do'
p3434
S'while'
p3435
tp3436
I112
s(S'string'
p3437
g111
S'do'
p3438
tp3439
I4
s(g9
g43
S'id'
p3440
tp3441
I155
s(g22
S'integer'
p3442
S'function'
p3443
tp3444
I3
s(S'string'
p3445
g1
S'while'
p3446
tp3447
I20
s(g79
S'nil'
p3448
g22
tp3449
I1
s(g43
S'string'
p3450
S'in'
p3451
tp3452
I393
s(g9
S'type'
p3453
S'string'
p3454
tp3455
I15
s(S':='
p3456
S'string'
p3457
S'then'
p3458
tp3459
I2
s(g9
g1
S'if'
p3460
tp3461
I18
s(S'end'
p3462
g631
g632
tp3463
I16
s(g99
S'<='
p3464
g40
tp3465
I1
s(g132
S'nil'
p3466
S'>='
p3467
tp3468
I2
s(S'while'
p3469
S'if'
p3470
S'let'
p3471
tp3472
I41
s(S'else'
p3473
S'if'
p3474
g40
tp3475
I1
s(S'<='
p3476
S'if'
p3477
g40
tp3478
I8
s(g1232
S'string'
p3479
S'type'
p3480
tp3481
I1
s(g43
S'break'
p3482
S'then'
p3483
tp3484
I12
s(S'!='
p3485
S'nil'
p3486
S'var'
p3487
tp3488
I1
s(S'end'
p3489
g58
S'break'
p3490
tp3491
I18
s(S'else'
p3492
S'if'
p3493
S'id'
p3494
tp3495
I1
s(S'<='
p3496
g465
g58
tp3497
I6
s(g35
S'id'
p3498
g1
tp3499
I5
s(g35
S'if'
p3500
S'for'
p3501
tp3502
I10
s(g111
S'do'
p3503
S'nil'
p3504
tp3505
I6
s(S'else'
p3506
g663
g22
tp3507
I4
s(g79
S'break'
p3508
S'<='
p3509
tp3510
I3
s(g22
S'string'
p3511
S'var'
p3512
tp3513
I5
s(S'>='
p3514
S'string'
p3515
g97
tp3516
I6
s(S'>='
p3517
S'break'
p3518
g10
tp3519
I3
s(g22
S'if'
p3520
S'while'
p3521
tp3522
I48
s(g43
S'nil'
p3523
S'>='
p3524
tp3525
I6
s(g99
S'do'
p3526
S'id'
p3527
tp3528
I6
s(g22
S'id'
p3529
g317
tp3530
I7
s(S'!='
p3531
S'integer'
p3532
g97
tp3533
I11
s(S'then'
p3534
S'nil'
p3535
S'then'
p3536
tp3537
I54
s(g43
S'id'
p3538
S'<='
p3539
tp3540
I6
s(g151
S'integer'
p3541
g22
tp3542
I1
s(S'end'
p3543
S'then'
p3544
S'id'
p3545
tp3546
I57
s(S'nil'
p3547
g22
S'integer'
p3548
tp3549
I20
s(g111
S'then'
p3550
S'break'
p3551
tp3552
I3
s(S'integer'
p3553
g714
g715
tp3554
I4
s(S'end'
p3555
g111
g1883
tp3556
I4
s(S'else'
p3557
S'while'
p3558
S'id'
p3559
tp3560
I2
s(S':='
p3561
S'string'
p3562
S'<='
p3563
tp3564
I22
s(g19
S'let'
p3565
S'var'
p3566
tp3567
I37
s(g2647
g22
g40
tp3568
I19
s(S'id'
p3569
S'then'
p3570
g40
tp3571
I51
s(g132
S'break'
p3572
g1
tp3573
I3
s(g151
S'if'
p3574
S'integer'
p3575
tp3576
I2
s(g946
g947
S'integer'
p3577
tp3578
I7
s(g19
S'break'
p3579
g1
tp3580
I1
s(S'if'
p3581
S'string'
p3582
g19
tp3583
I21
s(g40
g9
g297
tp3584
I3
s(g58
g745
g97
tp3585
I10
s(g10
S'while'
p3586
S'let'
p3587
tp3588
I12
s(S'id'
p3589
g151
g1066
tp3590
I9
s(S'integer'
p3591
S'!='
p3592
g40
tp3593
I2
s(g10
S'id'
p3594
g40
tp3595
I3
s(S'<='
p3596
S'id'
p3597
g320
tp3598
I4
s(S'string'
p3599
g3090
g3091
tp3600
I51
s(g2649
g2650
g22
tp3601
I40
s(S'break'
p3602
S'then'
p3603
S'integer'
p3604
tp3605
I79
s(g10
S'break'
p3606
g111
tp3607
I2
s(S'while'
p3608
S'integer'
p3609
S'>='
p3610
tp3611
I12
s(g22
S'string'
p3612
S'>='
p3613
tp3614
I25
s(S':='
p3615
S'nil'
p3616
S'then'
p3617
tp3618
I1
s(S'<='
p3619
S'id'
p3620
g317
tp3621
I4
s(S'do'
p3622
S'break'
p3623
g1
tp3624
I37
s(S'do'
p3625
S'id'
p3626
g79
tp3627
I26
s(S'integer'
p3628
g1327
g1328
tp3629
I1
s(g2693
g22
S'if'
p3630
tp3631
I14
s(g2144
g99
S'do'
p3632
tp3633
I3
s(S'integer'
p3634
S'<='
p3635
g40
tp3636
I17
s(g111
S':='
p3637
S'if'
p3638
tp3639
I1
s(S'nil'
p3640
g22
g40
tp3641
I17
s(g9
g1
S'nil'
p3642
tp3643
I20
s(S'integer'
p3644
g22
g180
tp3645
I25
s(g35
S'id'
p3646
g317
tp3647
I4
s(S'break'
p3648
S'do'
p3649
g22
tp3650
I135
s(g15
S'break'
p3651
S'to'
p3652
tp3653
I54
s(S'do'
p3654
S'nil'
p3655
S'!='
p3656
tp3657
I44
s(g71
g527
g528
tp3658
I1
s(g58
S'string'
p3659
g97
tp3660
I3
s(g9
g19
g22
tp3661
I14
s(S'else'
p3662
S'integer'
p3663
g35
tp3664
I1
s(g132
S'nil'
p3665
S'type'
p3666
tp3667
I2
s(S'end'
p3668
g2244
g2245
tp3669
I126
s(S'id'
p3670
g43
g40
tp3671
I32
s(S'>='
p3672
S'integer'
p3673
g10
tp3674
I4
s(S'!='
p3675
S'id'
p3676
g97
tp3677
I4
s(S':='
p3678
S'nil'
p3679
S'!='
p3680
tp3681
I29
s(g1259
g1260
g35
tp3682
I19
s(g14
g15
g3651
tp3683
I66
s(g1
S'if'
p3684
S'string'
p3685
tp3686
I11
s(S'break'
p3687
S'to'
p3688
g40
tp3689
I66
s(S'>='
p3690
S'integer'
p3691
S'<='
p3692
tp3693
I5
s(g151
g22
g684
tp3694
I1
s(S'string'
p3695
g10
S'string'
p3696
tp3697
I3
s(g132
S'string'
p3698
S'do'
p3699
tp3700
I17
s(g9
g1
g742
tp3701
I14
s(S'nil'
p3702
S'!='
p3703
g40
tp3704
I18
s(S'else'
p3705
S'nil'
p3706
S'do'
p3707
tp3708
I5
s(S'else'
p3709
S'string'
p3710
g97
tp3711
I2
s(S'end'
p3712
S'then'
p3713
S'string'
p3714
tp3715
I70
s(g19
S'id'
p3716
g40
tp3717
I2
s(g58
S'nil'
p3718
g97
tp3719
I7
s(S'if'
p3720
S'while'
p3721
S'id'
p3722
tp3723
I23
s(S'nil'
p3724
g1
S'let'
p3725
tp3726
I15
s(S'while'
p3727
S'id'
p3728
S'<='
p3729
tp3730
I13
s(g35
S'string'
p3731
g2844
tp3732
I4
s(g19
S'string'
p3733
S'<='
p3734
tp3735
I6
s(g9
g493
g22
tp3736
I60
s(S'end'
p3737
g19
S'if'
p3738
tp3739
I20
s(g35
S'break'
p3740
g99
tp3741
I1
s(g276
g277
S'in'
p3742
tp3743
I10
s(S'while'
p3744
S'id'
p3745
S'!='
p3746
tp3747
I11
s(g99
S'do'
p3748
S'integer'
p3749
tp3750
I4
s(S':='
p3751
S'id'
p3752
g10
tp3753
I25
s(S'integer'
p3754
S'then'
p3755
g40
tp3756
I71
s(S'integer'
p3757
S'!='
p3758
S'if'
p3759
tp3760
I14
s(g1
S'string'
p3761
g43
tp3762
I1
s(S'do'
p3763
S'id'
p3764
S'type'
p3765
tp3766
I6
s(S'if'
p3767
g498
g58
tp3768
I17
s(S'string'
p3769
g35
g3409
tp3770
I7
s(S'integer'
p3771
S'do'
p3772
S'while'
p3773
tp3774
I120
s(S'id'
p3775
g3255
g22
tp3776
I111
s(g2643
g2644
S'string'
p3777
tp3778
I11
s(g35
S'break'
p3779
S'>='
p3780
tp3781
I4
s(g132
S'nil'
p3782
g35
tp3783
I1
s(g19
S'integer'
p3784
S'do'
p3785
tp3786
I31
s(S'end'
p3787
g19
S'string'
p3788
tp3789
I16
s(g43
S'break'
p3790
g99
tp3791
I8
s(S'to'
p3792
S'id'
p3793
S':='
p3794
tp3795
I11
s(S'do'
p3796
S'integer'
p3797
S'<='
p3798
tp3799
I34
s(g1744
g22
S'nil'
p3800
tp3801
I12
s(S'end'
p3802
S'>='
p3803
g40
tp3804
I14
s(S'to'
p3805
S'while'
p3806
S'string'
p3807
tp3808
I43
s(g726
g43
g317
tp3809
I97
s(g9
g3531
g3532
tp3810
I17
s(S'id'
p3811
g10
S'for'
p3812
tp3813
I10
s(S':='
p3814
g1420
g35
tp3815
I19
s(S'id'
p3816
g3424
g3425
tp3817
I14
s(g10
S'nil'
p3818
g35
tp3819
I1
s(S'<='
p3820
S'nil'
p3821
S'>='
p3822
tp3823
I3
s(g22
S'string'
p3824
S'function'
p3825
tp3826
I4
s(g151
g40
g9
tp3827
I6
s(S'id'
p3828
g19
g22
tp3829
I17
s(g2971
g2972
g111
tp3830
I2
s(g151
S'if'
p3831
g40
tp3832
I1
s(S'>='
p3833
S'nil'
p3834
g43
tp3835
I2
s(S'if'
p3836
S'break'
p3837
g19
tp3838
I18
s(S'>='
p3839
S'integer'
p3840
g43
tp3841
I1
s(S'while'
p3842
g1931
g1932
tp3843
I22
s(g151
S'id'
p3844
g22
tp3845
I1
s(g35
S'id'
p3846
S'type'
p3847
tp3848
I2
s(g2859
g2860
S'id'
p3849
tp3850
I26
s(g10
S'id'
p3851
g111
tp3852
I1
s(S'nil'
p3853
g35
S'id'
p3854
tp3855
I19
s(S'nil'
p3856
g99
S'in'
p3857
tp3858
I3
s(g19
S'id'
p3859
g10
tp3860
I1
s(g3764
g3765
S'string'
p3861
tp3862
I6
s(g10
g1118
S'do'
p3863
tp3864
I22
s(g35
S'string'
p3865
S'then'
p3866
tp3867
I16
s(S'string'
p3868
g10
g2695
tp3869
I5
s(g43
S'string'
p3870
g99
tp3871
I7
s(g132
g2499
g2500
tp3872
I11
s(S'nil'
p3873
g1
S'if'
p3874
tp3875
I4
s(S'!='
p3876
S'break'
p3877
g97
tp3878
I9
s(g1
g2742
S'id'
p3879
tp3880
I115
s(g796
S'break'
p3881
S'do'
p3882
tp3883
I29
s(S'id'
p3884
S'<='
p3885
g782
tp3886
I16
s(S'else'
p3887
S'let'
p3888
S'var'
p3889
tp3890
I8
s(g19
S'integer'
p3891
g111
tp3892
I1
s(S'id'
p3893
S'do'
p3894
S'if'
p3895
tp3896
I105
s(S'do'
p3897
S'nil'
p3898
g97
tp3899
I50
s(g58
S'break'
p3900
S'>='
p3901
tp3902
I5
s(S'then'
p3903
g3842
g1931
tp3904
I43
s(g19
S'string'
p3905
g43
tp3906
I8
s(S':='
p3907
S'id'
p3908
g43
tp3909
I18
s(g2646
g2647
g22
tp3910
I17
s(S'integer'
p3911
g10
S'let'
p3912
tp3913
I5
s(g1
S'id'
p3914
g58
tp3915
I3
s(g99
g1
S'if'
p3916
tp3917
I1
s(g43
S'id'
p3918
g35
tp3919
I12
s(S'do'
p3920
g1834
g1835
tp3921
I30
s(g43
g1389
S'then'
p3922
tp3923
I10
s(g43
g1290
g10
tp3924
I3
s(S'if'
p3925
S'if'
p3926
S'id'
p3927
tp3928
I11
s(S':='
p3929
S'break'
p3930
g43
tp3931
I29
s(g35
S'id'
p3932
g1585
tp3933
I3
s(g3544
g3545
g43
tp3934
I17
s(g9
S'then'
p3935
S'break'
p3936
tp3937
I64
s(g1479
g1480
g1053
tp3938
I51
s(S'string'
p3939
g22
S'if'
p3940
tp3941
I10
s(S'string'
p3942
g3334
g3335
tp3943
I1
s(S'do'
p3944
g3589
g151
tp3945
I28
s(g43
S'break'
p3946
g1
tp3947
I10
s(S'end'
p3948
S'<='
p3949
S'nil'
p3950
tp3951
I25
s(g3729
g2275
g22
tp3952
I8
s(S'then'
p3953
S'let'
p3954
S'var'
p3955
tp3956
I101
s(S'nil'
p3957
g10
S'for'
p3958
tp3959
I3
s(g19
S'break'
p3960
S'<='
p3961
tp3962
I4
s(g9
g58
g3469
tp3963
I17
s(g10
g11
g2549
tp3964
I13
s(S'integer'
p3965
g1823
g22
tp3966
I50
s(g3082
g43
g22
tp3967
I16
s(g111
g22
S'if'
p3968
tp3969
I1
s(S'to'
p3970
S'if'
p3971
S'nil'
p3972
tp3973
I34
s(S'!='
p3974
S'string'
p3975
S'var'
p3976
tp3977
I1
s(S'if'
p3978
S'break'
p3979
g1
tp3980
I12
s(g2025
g2026
g320
tp3981
I16
s(S'<='
p3982
S'break'
p3983
g19
tp3984
I4
s(S'>='
p3985
S'string'
p3986
S'then'
p3987
tp3988
I28
s(S'while'
p3989
g916
g1
tp3990
I7
s(S'<='
p3991
S'let'
p3992
S'type'
p3993
tp3994
I34
s(g19
S'id'
p3995
S'then'
p3996
tp3997
I12
s(g58
g3327
g58
tp3998
I4
s(g1342
g1820
g1821
tp3999
I122
s(S'id'
p4000
g19
g3995
tp4001
I8
s(S'then'
p4002
S'string'
p4003
g99
tp4004
I2
s(g58
g2530
S'let'
p4005
tp4006
I8
s(S'id'
p4007
S':='
p4008
S'for'
p4009
tp4010
I475
s(g9
S'else'
p4011
S'for'
p4012
tp4013
I2
s(S'!='
p4014
S'while'
p4015
S'nil'
p4016
tp4017
I8
s(g2010
g35
S'nil'
p4018
tp4019
I14
s(g2626
g22
S'if'
p4020
tp4021
I25
s(g58
g519
S'do'
p4022
tp4023
I23
s(S'to'
p4024
S'nil'
p4025
g1942
tp4026
I271
s(g2889
g99
S'in'
p4027
tp4028
I2
s(S'integer'
p4029
S'then'
p4030
g2977
tp4031
I58
s(S'!='
p4032
g22
S'string'
p4033
tp4034
I8
s(g58
S'nil'
p4035
S'function'
p4036
tp4037
I1
s(S'nil'
p4038
S'then'
p4039
S'string'
p4040
tp4041
I64
s(S'to'
p4042
S'string'
p4043
S'<='
p4044
tp4045
I13
s(g3652
S'id'
p4046
g1019
tp4047
I245
s(S'string'
p4048
S'else'
p4049
S'string'
p4050
tp4051
I2
s(S'break'
p4052
S'<='
p4053
S'while'
p4054
tp4055
I14
s(g9
g99
g1304
tp4056
I1
s(g99
S'then'
p4057
g40
tp4058
I2
s(S'end'
p4059
g43
S'let'
p4060
tp4061
I10
s(g9
S'else'
p4062
S'nil'
p4063
tp4064
I7
s(S'end'
p4065
S'!='
p4066
S'let'
p4067
tp4068
I14
s(g1027
g1028
S'end'
p4069
tp4070
I326
s(S'else'
p4071
S'nil'
p4072
g58
tp4073
I2
s(S'end'
p4074
g99
g10
tp4075
I1
s(g667
S'then'
p4076
S'for'
p4077
tp4078
I56
s(S'do'
p4079
g635
g636
tp4080
I4
s(g22
g22
g22
tp4081
I4
s(S':='
p4082
g2067
g2068
tp4083
I55
s(S'integer'
p4084
g22
S'break'
p4085
tp4086
I24
s(g19
g2851
g2490
tp4087
I3
s(g79
S'nil'
p4088
g97
tp4089
I1
s(S':='
p4090
S'id'
p4091
S'then'
p4092
tp4093
I3
s(g43
S'id'
p4094
g79
tp4095
I7
s(g58
S'string'
p4096
S'function'
p4097
tp4098
I2
s(S'if'
p4099
S'let'
p4100
S'function'
p4101
tp4102
I22
s(g35
S'id'
p4103
g58
tp4104
I4
s(S'break'
p4105
g19
S'break'
p4106
tp4107
I21
s(g266
g267
g3893
tp4108
I79
s(g9
g1
S'let'
p4109
tp4110
I11
s(S'!='
p4111
g3401
g58
tp4112
I3
s(S'end'
p4113
S'to'
p4114
S'nil'
p4115
tp4116
I46
s(g58
S'while'
p4117
S'while'
p4118
tp4119
I6
s(S'integer'
p4120
S'do'
p4121
g3873
tp4122
I143
s(S'while'
p4123
S'id'
p4124
g132
tp4125
I18
s(S'integer'
p4126
S'>='
p4127
S'for'
p4128
tp4129
I18
s(g9
g19
S'if'
p4130
tp4131
I17
s(S':='
p4132
S'nil'
p4133
g43
tp4134
I32
s(S'break'
p4135
g22
g22
tp4136
I3
s(S'else'
p4137
S'id'
p4138
g10
tp4139
I3
s(S'<='
p4140
S'id'
p4141
g35
tp4142
I4
s(S'>='
p4143
g22
g1530
tp4144
I11
s(S'integer'
p4145
g43
g3720
tp4146
I2
s(S'if'
p4147
g3811
g10
tp4148
I4
s(g58
g3115
g3285
tp4149
I16
s(S'to'
p4150
S'id'
p4151
g132
tp4152
I10
s(S'>='
p4153
S'nil'
p4154
S'function'
p4155
tp4156
I1
s(g19
g3231
g58
tp4157
I9
s(g10
g3696
S'to'
p4158
tp4159
I21
s(g35
g22
g22
tp4160
I17
s(g865
g866
S'then'
p4161
tp4162
I20
s(S'while'
p4163
S'integer'
p4164
g43
tp4165
I5
s(S'break'
p4166
S'!='
p4167
S'while'
p4168
tp4169
I11
s(g1
g3874
g40
tp4170
I10
s(S'break'
p4171
S'else'
p4172
g40
tp4173
I3
s(g111
g2812
S'integer'
p4174
tp4175
I1
s(S'id'
p4176
S':='
p4177
g136
tp4178
I397
s(g3604
g58
g2689
tp4179
I19
s(S'<='
p4180
S'id'
p4181
S':='
p4182
tp4183
I1
s(g58
S'integer'
p4184
g58
tp4185
I9
s(g35
S'string'
p4186
g43
tp4187
I4
s(S'string'
p4188
g58
g89
tp4189
I20
s(g9
g58
S'for'
p4190
tp4191
I22
s(S'<='
p4192
S'id'
p4193
S'>='
p4194
tp4195
I1
s(g58
S'break'
p4196
g58
tp4197
I6
s(g35
S'id'
p4198
g22
tp4199
I9
s(g58
S'id'
p4200
g151
tp4201
I2
s(S'break'
p4202
g3887
g3888
tp4203
I6
s(S'do'
p4204
S'string'
p4205
S'in'
p4206
tp4207
I63
s(S'>='
p4208
S'while'
p4209
S'let'
p4210
tp4211
I17
s(S'nil'
p4212
g22
S'while'
p4213
tp4214
I2
s(S':='
p4215
S'integer'
p4216
g10
tp4217
I26
s(S'id'
p4218
g99
g3007
tp4219
I2
s(S'string'
p4220
g3705
g3706
tp4221
I4
s(g2055
g2056
S'if'
p4222
tp4223
I9
s(g9
g22
g40
tp4224
I11
s(S'string'
p4225
S'>='
p4226
S'break'
p4227
tp4228
I19
s(S'if'
p4229
g40
g9
tp4230
I26
s(S'integer'
p4231
g19
g40
tp4232
I18
s(S'end'
p4233
g43
S'nil'
p4234
tp4235
I22
s(g79
S'integer'
p4236
S'do'
p4237
tp4238
I9
s(g40
g9
g43
tp4239
I119
s(g132
S'break'
p4240
S'!='
p4241
tp4242
I2
s(S'end'
p4243
g35
S'if'
p4244
tp4245
I15
s(g10
S'if'
p4246
S'break'
p4247
tp4248
I9
s(g19
S'id'
p4249
S'var'
p4250
tp4251
I1
s(S'string'
p4252
g43
S'let'
p4253
tp4254
I18
s(g1594
g1595
g35
tp4255
I6
s(S'if'
p4256
S'break'
p4257
S'>='
p4258
tp4259
I20
s(S'while'
p4260
S'id'
p4261
g151
tp4262
I14
s(g79
S'nil'
p4263
S'else'
p4264
tp4265
I1
s(g35
g4018
g19
tp4266
I10
s(S'end'
p4267
S'else'
p4268
S'string'
p4269
tp4270
I4
s(S'end'
p4271
g58
g22
tp4272
I21
s(g3866
g3648
g3649
tp4273
I103
s(g22
g22
S'id'
p4274
tp4275
I10
s(g79
S'integer'
p4276
g43
tp4277
I1
s(g4161
S'integer'
p4278
S'in'
p4279
tp4280
I23
s(g79
S'break'
p4281
S'!='
p4282
tp4283
I4
s(g35
S'let'
p4284
S'type'
p4285
tp4286
I22
s(S'integer'
p4287
g43
g1726
tp4288
I47
s(S'id'
p4289
g19
S'integer'
p4290
tp4291
I10
s(S'end'
p4292
g43
S'while'
p4293
tp4294
I13
s(S'then'
p4295
S'string'
p4296
g111
tp4297
I2
s(S'>='
p4298
S'integer'
p4299
g99
tp4300
I3
s(S':='
p4301
S'while'
p4302
g22
tp4303
I43
s(S'end'
p4304
g43
g40
tp4305
I24
s(g9
g58
g40
tp4306
I11
s(S'string'
p4307
g10
g2415
tp4308
I3
s(g43
g313
g58
tp4309
I9
s(S'>='
p4310
S'nil'
p4311
g58
tp4312
I3
s(g19
g22
S'while'
p4313
tp4314
I12
s(g35
S'break'
p4315
g43
tp4316
I3
s(g99
g10
g22
tp4317
I1
s(S'<='
p4318
S'string'
p4319
g10
tp4320
I1
s(g43
S'break'
p4321
S'var'
p4322
tp4323
I8
s(S'to'
p4324
S'if'
p4325
S'integer'
p4326
tp4327
I34
s(g3440
g1
g3644
tp4328
I4
s(S'break'
p4329
g19
S'for'
p4330
tp4331
I7
s(S'id'
p4332
g22
S'nil'
p4333
tp4334
I15
s(S'else'
p4335
S'break'
p4336
S'else'
p4337
tp4338
I1
s(S'<='
p4339
S'if'
p4340
S'while'
p4341
tp4342
I11
s(g58
S'while'
p4343
S'break'
p4344
tp4345
I10
s(S'id'
p4346
g111
S'do'
p4347
tp4348
I4
s(S'!='
p4349
S'break'
p4350
S'to'
p4351
tp4352
I21
s(g22
g4333
S'do'
p4353
tp4354
I154
s(S'id'
p4355
S'else'
p4356
g22
tp4357
I2
s(g40
g9
S'!='
p4358
tp4359
I18
s(g9
S'>='
p4360
S'if'
p4361
tp4362
I21
s(S'to'
p4363
g22
S'for'
p4364
tp4365
I37
s(S'while'
p4366
S'break'
p4367
g35
tp4368
I4
s(S'!='
p4369
S'string'
p4370
g99
tp4371
I1
s(g1
S'nil'
p4372
g19
tp4373
I3
s(g35
S'nil'
p4374
g22
tp4375
I6
s(g19
S'id'
p4376
S'>='
p4377
tp4378
I3
s(g132
S'integer'
p4379
g97
tp4380
I1
s(g19
g22
S'nil'
p4381
tp4382
I7
s(g1089
g3506
g663
tp4383
I6
s(S'if'
p4384
S'nil'
p4385
S'!='
p4386
tp4387
I16
s(g2042
g99
g111
tp4388
I1
s(g58
S'if'
p4389
S'integer'
p4390
tp4391
I11
s(S'!='
p4392
S'break'
p4393
g58
tp4394
I4
s(S'nil'
p4395
g22
g1244
tp4396
I22
s(g79
S'break'
p4397
g43
tp4398
I1
s(S'integer'
p4399
S'<='
p4400
S'string'
p4401
tp4402
I12
s(g9
g1
S'for'
p4403
tp4404
I8
s(S'then'
p4405
S'nil'
p4406
S'<='
p4407
tp4408
I18
s(g243
g35
S'id'
p4409
tp4410
I22
s(g1185
g1186
g22
tp4411
I45
s(g58
S'break'
p4412
S'function'
p4413
tp4414
I1
s(S'string'
p4415
S'to'
p4416
S'let'
p4417
tp4418
I66
s(S'id'
p4419
g43
g317
tp4420
I99
s(g1
g22
S'string'
p4421
tp4422
I10
s(g35
S'if'
p4423
g22
tp4424
I7
s(S'string'
p4425
g99
S'to'
p4426
tp4427
I3
s(S'then'
p4428
S'integer'
p4429
S'to'
p4430
tp4431
I62
s(S'id'
p4432
g58
S'for'
p4433
tp4434
I5
s(S'else'
p4435
S'id'
p4436
g58
tp4437
I1
s(g58
S'string'
p4438
S'to'
p4439
tp4440
I19
s(g9
g19
S'integer'
p4441
tp4442
I20
s(g664
S'!='
p4443
S'nil'
p4444
tp4445
I13
s(S'>='
p4446
S'if'
p4447
g22
tp4448
I11
s(g19
g22
g40
tp4449
I13
s(S'end'
p4450
S'<='
p4451
g40
tp4452
I21
s(g22
S'nil'
p4453
g22
tp4454
I22
s(S'id'
p4455
S'to'
p4456
g22
tp4457
I47
s(g1
S'if'
p4458
S'integer'
p4459
tp4460
I10
s(g3258
g3259
S'end'
p4461
tp4462
I770
s(g10
S'string'
p4463
S'do'
p4464
tp4465
I37
s(g22
S'id'
p4466
S'>='
p4467
tp4468
I5
s(g9
S'do'
p4469
S'for'
p4470
tp4471
I120
s(S'break'
p4472
g111
g22
tp4473
I1
s(g320
S'id'
p4474
S':='
p4475
tp4476
I7
s(g35
S'integer'
p4477
g97
tp4478
I5
s(g58
S'nil'
p4479
S'to'
p4480
tp4481
I17
s(S'string'
p4482
g43
g317
tp4483
I101
s(g22
S'if'
p4484
S'string'
p4485
tp4486
I45
s(S'!='
p4487
S'integer'
p4488
g35
tp4489
I7
s(g1
S'id'
p4490
g1
tp4491
I4
s(S'break'
p4492
g3805
g3806
tp4493
I68
s(g2689
g2690
g40
tp4494
I156
s(S'then'
p4495
g22
S'break'
p4496
tp4497
I29
s(g58
S'integer'
p4498
S'!='
p4499
tp4500
I4
s(S':='
p4501
S'nil'
p4502
S'function'
p4503
tp4504
I4
s(g702
g703
S'string'
p4505
tp4506
I17
s(g3007
g3008
S'for'
p4507
tp4508
I33
s(g3063
g19
S'integer'
p4509
tp4510
I2
s(g43
S'break'
p4511
g35
tp4512
I14
s(g3895
S'nil'
p4513
S'then'
p4514
tp4515
I34
s(g40
g9
g3453
tp4516
I32
s(g2399
g58
g4343
tp4517
I16
s(S':='
p4518
g22
g3169
tp4519
I56
s(S'break'
p4520
g895
g896
tp4521
I60
s(S'in'
p4522
S'end'
p4523
S'!='
p4524
tp4525
I199
s(S':='
p4526
S'integer'
p4527
S'then'
p4528
tp4529
I2
s(S'to'
p4530
S'nil'
p4531
g2557
tp4532
I17
s(S'<='
p4533
S'while'
p4534
S'let'
p4535
tp4536
I13
s(g58
g1501
g58
tp4537
I5
s(S'>='
p4538
S'string'
p4539
g19
tp4540
I6
s(S':='
p4541
g2856
g22
tp4542
I23
s(g9
S'>='
p4543
S'break'
p4544
tp4545
I15
s(g848
g2435
g1809
tp4546
I77
s(S'<='
p4547
S'nil'
p4548
S'!='
p4549
tp4550
I2
s(S'nil'
p4551
S'!='
p4552
g3074
tp4553
I23
s(g1598
g3276
S'for'
p4554
tp4555
I64
s(g10
S'integer'
p4556
g35
tp4557
I9
s(g10
S'break'
p4558
g1
tp4559
I1
s(S'end'
p4560
S'to'
p4561
S'let'
p4562
tp4563
I61
s(g320
S'id'
p4564
g43
tp4565
I4
s(g3335
g717
g718
tp4566
I131
s(S'end'
p4567
g22
S'let'
p4568
tp4569
I26
s(S'if'
p4570
S'id'
p4571
g58
tp4572
I5
s(S'then'
p4573
S'string'
p4574
g43
tp4575
I26
s(g1836
g99
S'do'
p4576
tp4577
I11
s(g1
S'nil'
p4578
g353
tp4579
I3
s(g35
S'while'
p4580
g22
tp4581
I6
s(S'>='
p4582
S'nil'
p4583
g10
tp4584
I4
s(g151
S'id'
p4585
g111
tp4586
I7
s(S'integer'
p4587
g43
g113
tp4588
I17
s(S'else'
p4589
S'id'
p4590
S':='
p4591
tp4592
I1
s(S':='
p4593
S'break'
p4594
S'then'
p4595
tp4596
I2
s(g43
S'string'
p4597
g35
tp4598
I5
s(S'if'
p4599
g22
S'for'
p4600
tp4601
I34
s(S'else'
p4602
g22
S'for'
p4603
tp4604
I1
s(g954
g10
g3594
tp4605
I12
s(g40
g9
S'var'
p4606
tp4607
I30
s(g4360
g4361
g40
tp4608
I13
s(S'else'
p4609
S'break'
p4610
g1
tp4611
I2
s(g10
S'string'
p4612
g97
tp4613
I11
s(g2650
g22
g877
tp4614
I19
s(g3479
g3480
S'integer'
p4615
tp4616
I8
s(S'nil'
p4617
g35
S'while'
p4618
tp4619
I20
s(g9
g35
S'while'
p4620
tp4621
I15
s(S'break'
p4622
S'else'
p4623
S'nil'
p4624
tp4625
I2
s(S'do'
p4626
g326
g327
tp4627
I84
s(S'do'
p4628
S'string'
p4629
g99
tp4630
I3
s(S'do'
p4631
S'id'
p4632
S':='
p4633
tp4634
I31
s(g58
S'integer'
p4635
S'function'
p4636
tp4637
I2
s(S'nil'
p4638
S'else'
p4639
S'nil'
p4640
tp4641
I1
s(S'while'
p4642
g22
S'nil'
p4643
tp4644
I51
s(S'string'
p4645
S'else'
p4646
S'integer'
p4647
tp4648
I4
s(g58
S'if'
p4649
S'nil'
p4650
tp4651
I11
s(S'while'
p4652
S'string'
p4653
g43
tp4654
I13
s(S'break'
p4655
g19
S'nil'
p4656
tp4657
I25
s(S'!='
p4658
g772
g19
tp4659
I4
s(g897
g3180
g2869
tp4660
I2
s(g151
S'string'
p4661
g2335
tp4662
I2
s(S'break'
p4663
g111
S'in'
p4664
tp4665
I1
s(S'if'
p4666
S'id'
p4667
g79
tp4668
I13
s(S'nil'
p4669
S'to'
p4670
g40
tp4671
I60
s(S'id'
p4672
S'do'
p4673
S'string'
p4674
tp4675
I95
s(g9
g35
S'nil'
p4676
tp4677
I25
s(g3040
g3041
S'do'
p4678
tp4679
I51
s(g22
S'string'
p4680
S'to'
p4681
tp4682
I65
s(S'end'
p4683
S'then'
p4684
S'let'
p4685
tp4686
I68
s(S'integer'
p4687
S'then'
p4688
S'id'
p4689
tp4690
I73
s(g3068
g3069
S'id'
p4691
tp4692
I30
s(g2591
S'break'
p4693
S'!='
p4694
tp4695
I22
s(g19
S'nil'
p4696
g43
tp4697
I4
s(g2209
g111
g3550
tp4698
I6
s(g19
g4106
g10
tp4699
I6
s(S'!='
p4700
S'break'
p4701
g43
tp4702
I3
s(S'string'
p4703
S'then'
p4704
S'integer'
p4705
tp4706
I73
s(S'>='
p4707
S'break'
p4708
S'else'
p4709
tp4710
I1
s(g58
S'id'
p4711
g132
tp4712
I5
s(S'if'
p4713
S'id'
p4714
S':='
p4715
tp4716
I3
s(S'while'
p4717
S'while'
p4718
S'nil'
p4719
tp4720
I5
s(S'string'
p4721
g22
S'let'
p4722
tp4723
I14
s(S'id'
p4724
S'in'
p4725
g3543
tp4726
I747
s(g9
S'else'
p4727
S'if'
p4728
tp4729
I2
s(g43
S'let'
p4730
S'var'
p4731
tp4732
I53
s(g3026
g3027
g43
tp4733
I3
s(S'end'
p4734
g43
g22
tp4735
I15
s(S'id'
p4736
S'!='
p4737
S'break'
p4738
tp4739
I10
s(S':='
p4740
g22
g22
tp4741
I52
s(g19
S'while'
p4742
S'break'
p4743
tp4744
I15
s(g9
g3991
g3992
tp4745
I20
s(g35
S'integer'
p4746
g99
tp4747
I2
s(g1
S'id'
p4748
g35
tp4749
I7
s(S'id'
p4750
g151
S'for'
p4751
tp4752
I4
s(g3885
g782
g783
tp4753
I2
s(g22
S'integer'
p4754
g1097
tp4755
I78
s(g99
S'do'
p4756
S'break'
p4757
tp4758
I2
s(g132
S'break'
p4759
S'then'
p4760
tp4761
I10
s(S'end'
p4762
S'!='
p4763
S'for'
p4764
tp4765
I17
s(g22
g2621
g111
tp4766
I2
s(S'id'
p4767
S'!='
p4768
S'id'
p4769
tp4770
I14
s(g40
g9
g99
tp4771
I30
s(S'then'
p4772
S'break'
p4773
g19
tp4774
I24
s(g58
S'id'
p4775
g97
tp4776
I7
s(g151
g4751
S'id'
p4777
tp4778
I15
s(g151
S'string'
p4779
g43
tp4780
I1
s(S'end'
p4781
S'>='
p4782
S'let'
p4783
tp4784
I11
s(g43
S'nil'
p4785
S'!='
p4786
tp4787
I11
s(S'id'
p4788
g58
S'while'
p4789
tp4790
I7
s(g35
S'id'
p4791
g111
tp4792
I1
s(g79
S'integer'
p4793
S'then'
p4794
tp4795
I3
s(g3413
g3414
S'id'
p4796
tp4797
I26
s(g22
S'string'
p4798
g43
tp4799
I21
s(S'if'
p4800
S'if'
p4801
S'while'
p4802
tp4803
I27
s(g19
S'break'
p4804
g97
tp4805
I4
s(S'<='
p4806
S'nil'
p4807
S'to'
p4808
tp4809
I19
s(S'break'
p4810
S'to'
p4811
S'nil'
p4812
tp4813
I60
s(S'else'
p4814
S'id'
p4815
g79
tp4816
I1
s(g4458
g4459
g35
tp4817
I1
s(S'if'
p4818
S'break'
p4819
g43
tp4820
I8
s(g43
S'if'
p4821
S'id'
p4822
tp4823
I27
s(S'>='
p4824
S'string'
p4825
S'in'
p4826
tp4827
I10
s(S':='
p4828
S'break'
p4829
S'in'
p4830
tp4831
I74
s(g2563
S'id'
p4832
g151
tp4833
I11
s(g9
S'then'
p4834
g40
tp4835
I53
s(S'do'
p4836
S'break'
p4837
g35
tp4838
I32
s(S'then'
p4839
S'if'
p4840
S'let'
p4841
tp4842
I39
s(g40
g9
S'<='
p4843
tp4844
I11
s(g9
g10
S'nil'
p4845
tp4846
I17
s(S'do'
p4847
S'nil'
p4848
S'do'
p4849
tp4850
I245
s(S'break'
p4851
S'!='
p4852
S'nil'
p4853
tp4854
I2
s(g111
g3438
S'string'
p4855
tp4856
I1
s(S'nil'
p4857
g99
g22
tp4858
I2
s(S':='
p4859
g1710
g35
tp4860
I18
s(S'string'
p4861
g10
S'break'
p4862
tp4863
I11
s(g43
g22
g22
tp4864
I32
s(g320
g2044
g58
tp4865
I7
s(g35
S'break'
p4866
g58
tp4867
I8
s(S'do'
p4868
S'id'
p4869
g317
tp4870
I33
s(g4069
S'do'
p4871
g4099
tp4872
I117
s(S'break'
p4873
g22
S'let'
p4874
tp4875
I24
s(g43
g22
S'id'
p4876
tp4877
I25
s(S'then'
p4878
S'while'
p4879
S'let'
p4880
tp4881
I33
s(g99
S'to'
p4882
S'id'
p4883
tp4884
I4
s(S'break'
p4885
g10
S'integer'
p4886
tp4887
I5
s(g40
g9
S'in'
p4888
tp4889
I345
s(g1
g22
S'integer'
p4890
tp4891
I11
s(g4719
S'do'
p4892
g1813
tp4893
I138
s(S'id'
p4894
g132
S'string'
p4895
tp4896
I3
s(S'nil'
p4897
g35
g40
tp4898
I27
s(g2608
S'<='
p4899
S'let'
p4900
tp4901
I5
s(S'string'
p4902
g19
g40
tp4903
I17
s(S'nil'
p4904
g111
g132
tp4905
I1
s(S'end'
p4906
S'!='
p4907
S'id'
p4908
tp4909
I23
s(S'end'
p4910
S'<='
p4911
S'integer'
p4912
tp4913
I17
s(g99
g19
S'nil'
p4914
tp4915
I1
s(g770
g22
g40
tp4916
I23
s(S'do'
p4917
S'integer'
p4918
g19
tp4919
I39
s(S'nil'
p4920
S'<='
p4921
S'id'
p4922
tp4923
I8
s(g19
S'integer'
p4924
g1482
tp4925
I14
s(S':='
p4926
g22
g3520
tp4927
I44
s(g22
S'while'
p4928
S'while'
p4929
tp4930
I4
s(g35
S'if'
p4931
S'nil'
p4932
tp4933
I9
s(S'!='
p4934
S'break'
p4935
S'>='
p4936
tp4937
I2
s(g4281
g4282
S'if'
p4938
tp4939
I11
s(g35
g62
g63
tp4940
I6
s(g4513
g4514
g40
tp4941
I66
s(S'!='
p4942
S'break'
p4943
g1
tp4944
I4
s(g111
g1
S'id'
p4945
tp4946
I1
s(S'string'
p4947
S'<='
p4948
S'integer'
p4949
tp4950
I20
s(g151
S'while'
p4951
S'for'
p4952
tp4953
I2
s(g43
S'id'
p4954
g111
tp4955
I1
s(S'string'
p4956
g111
S'of'
p4957
tp4958
I1
s(S'break'
p4959
g35
g3189
tp4960
I19
s(S'>='
p4961
S'string'
p4962
g35
tp4963
I5
s(S'>='
p4964
S'nil'
p4965
g1
tp4966
I4
s(g4629
g99
g2090
tp4967
I1
s(S'nil'
p4968
g111
g97
tp4969
I1
s(g35
S'integer'
p4970
S'then'
p4971
tp4972
I14
s(g1
S'string'
p4973
g22
tp4974
I4
s(S'string'
p4975
S'to'
p4976
S'integer'
p4977
tp4978
I55
s(g22
S'string'
p4979
S'<='
p4980
tp4981
I23
s(S'else'
p4982
S'id'
p4983
g1
tp4984
I1
s(S'else'
p4985
S'integer'
p4986
g58
tp4987
I1
s(S'break'
p4988
g2028
g2029
tp4989
I23
s(g43
g22
S'if'
p4990
tp4991
I17
s(g22
S'while'
p4992
S'integer'
p4993
tp4994
I8
s(g22
g964
g10
tp4995
I15
s(S'end'
p4996
S'type'
p4997
g1023
tp4998
I13
s(S'do'
p4999
S'if'
p5000
g22
tp5001
I81
s(g2519
g2520
S'to'
p5002
tp5003
I40
s(S':='
p5004
g22
S'let'
p5005
tp5006
I53
s(g1726
g1727
S'end'
p5007
tp5008
I776
s(g3205
g3206
g43
tp5009
I1
s(S'then'
p5010
S'if'
p5011
S'integer'
p5012
tp5013
I45
s(g19
S'while'
p5014
S'string'
p5015
tp5016
I11
s(g19
g22
S'id'
p5017
tp5018
I13
s(S'end'
p5019
g43
S'string'
p5020
tp5021
I14
s(S'string'
p5022
g1
g860
tp5023
I1
s(g4931
g4932
g19
tp5024
I1
s(g1422
S'!='
p5025
S'for'
p5026
tp5027
I14
s(S':='
p5028
S'string'
p5029
S'type'
p5030
tp5031
I6
s(g1
S'while'
p5032
S'let'
p5033
tp5034
I11
s(S'integer'
p5035
g1973
g419
tp5036
I5
s(g132
S'nil'
p5037
g19
tp5038
I4
s(g22
g22
S'let'
p5039
tp5040
I16
s(S'integer'
p5041
g22
S'integer'
p5042
tp5043
I1
s(g111
S':='
p5044
S'while'
p5045
tp5046
I1
s(S'to'
p5047
S'while'
p5048
S'let'
p5049
tp5050
I31
s(g19
S'while'
p5051
S'id'
p5052
tp5053
I12
s(g199
S'let'
p5054
S'function'
p5055
tp5056
I24
s(S'break'
p5057
S'to'
p5058
S'break'
p5059
tp5060
I61
s(S'end'
p5061
S'to'
p5062
S'break'
p5063
tp5064
I66
s(S'end'
p5065
g111
S'>='
p5066
tp5067
I1
s(g4561
g4562
S'in'
p5068
tp5069
I102
s(g2178
g2179
g645
tp5070
I55
s(g10
g4845
S'to'
p5071
tp5072
I17
s(g3002
g22
S'if'
p5073
tp5074
I6
s(g58
g22
S'let'
p5075
tp5076
I12
s(g4263
g4264
S'integer'
p5077
tp5078
I1
s(g1
S'while'
p5079
g22
tp5080
I7
s(g40
g9
g3903
tp5081
I709
s(S':='
p5082
S'id'
p5083
S'in'
p5084
tp5085
I59
s(S'integer'
p5086
g99
g43
tp5087
I1
s(g111
g436
g22
tp5088
I4
s(g99
g43
S'break'
p5089
tp5090
I1
s(g58
S'while'
p5091
S'integer'
p5092
tp5093
I8
s(g99
g4576
S'nil'
p5094
tp5095
I5
s(g43
S'id'
p5096
S':='
p5097
tp5098
I14
s(g3551
S'else'
p5099
S'integer'
p5100
tp5101
I5
s(g9
g99
S'in'
p5102
tp5103
I1
s(g937
g43
g313
tp5104
I14
s(g132
S'string'
p5105
g10
tp5106
I3
s(g151
S'while'
p5107
S'let'
p5108
tp5109
I1
s(g35
S'break'
p5110
g609
tp5111
I23
s(S'nil'
p5112
g19
S'for'
p5113
tp5114
I4
s(S'end'
p5115
g22
S'for'
p5116
tp5117
I14
s(S':='
p5118
g613
g19
tp5119
I27
s(g35
g1208
g132
tp5120
I10
s(S'id'
p5121
g35
g22
tp5122
I14
s(S'nil'
p5123
g2712
g22
tp5124
I16
s(S'if'
p5125
g2328
g43
tp5126
I22
s(g10
S'nil'
p5127
S'var'
p5128
tp5129
I1
s(g99
g19
S'while'
p5130
tp5131
I1
s(g648
g649
S'nil'
p5132
tp5133
I10
s(S'end'
p5134
g99
g3109
tp5135
I4
s(S':='
p5136
g1632
g1633
tp5137
I7
s(S'break'
p5138
g10
S'while'
p5139
tp5140
I19
s(g286
g1201
g2149
tp5141
I21
s(g19
S'break'
p5142
S'!='
p5143
tp5144
I11
s(S':='
p5145
S'break'
p5146
g58
tp5147
I18
s(S'<='
p5148
S'while'
p5149
g4800
tp5150
I10
s(g35
S'if'
p5151
S'while'
p5152
tp5153
I12
s(S'id'
p5154
g58
S'if'
p5155
tp5156
I4
s(S'<='
p5157
S'id'
p5158
S'var'
p5159
tp5160
I3
s(S'end'
p5161
g1
g769
tp5162
I14
s(g22
S'break'
p5163
g58
tp5164
I7
s(g151
g22
S'nil'
p5165
tp5166
I3
s(g885
g43
S'integer'
p5167
tp5168
I144
s(S'else'
p5169
S'integer'
p5170
g43
tp5171
I1
s(S'break'
p5172
S'>='
p5173
g40
tp5174
I14
s(g2094
g2095
g22
tp5175
I5
s(g43
g22
g1867
tp5176
I25
s(g1926
g1268
g1269
tp5177
I30
s(S'do'
p5178
g4873
g22
tp5179
I34
s(S'end'
p5180
g35
S'break'
p5181
tp5182
I22
s(S'end'
p5183
S'then'
p5184
g1094
tp5185
I71
s(S'if'
p5186
g4289
g19
tp5187
I1
s(S'end'
p5188
S'else'
p5189
S'let'
p5190
tp5191
I5
s(S'do'
p5192
S'integer'
p5193
S'function'
p5194
tp5195
I3
s(S'<='
p5196
S'while'
p5197
g22
tp5198
I17
s(S'then'
p5199
S'integer'
p5200
g97
tp5201
I25
s(g2666
g22
S'if'
p5202
tp5203
I30
s(g22
S'let'
p5204
S'in'
p5205
tp5206
I15
s(g35
S'string'
p5207
S'>='
p5208
tp5209
I5
s(S'then'
p5210
S'if'
p5211
S'for'
p5212
tp5213
I25
s(S'nil'
p5214
g4806
g4807
tp5215
I28
s(g2862
S'nil'
p5216
g1
tp5217
I42
s(g58
S'break'
p5218
g22
tp5219
I5
s(g22
S'let'
p5220
S'var'
p5221
tp5222
I22
s(S'else'
p5223
S'while'
p5224
S'while'
p5225
tp5226
I2
s(g1196
g10
S'let'
p5227
tp5228
I2
s(g4727
g4728
S'break'
p5229
tp5230
I2
s(g453
g454
S'string'
p5231
tp5232
I23
s(S'<='
p5233
S'id'
p5234
g58
tp5235
I5
s(g19
g22
g22
tp5236
I8
s(g35
S'integer'
p5237
g58
tp5238
I6
s(S'break'
p5239
S'do'
p5240
S'while'
p5241
tp5242
I109
s(g10
S'string'
p5243
g10
tp5244
I3
s(S'do'
p5245
S'nil'
p5246
S'var'
p5247
tp5248
I4
s(S'id'
p5249
S':='
p5250
g4229
tp5251
I536
s(g58
S'nil'
p5252
g1
tp5253
I6
s(S'integer'
p5254
S'then'
p5255
g1698
tp5256
I77
s(g2424
g2425
S'for'
p5257
tp5258
I59
s(S':='
p5259
S'nil'
p5260
S'var'
p5261
tp5262
I6
s(g99
S'!='
p5263
S'id'
p5264
tp5265
I1
s(g176
g177
g19
tp5266
I4
s(S'integer'
p5267
g43
g4166
tp5268
I4
s(S'id'
p5269
g99
S'in'
p5270
tp5271
I2
s(g177
g19
S'let'
p5272
tp5273
I9
s(S'then'
p5274
S'string'
p5275
g19
tp5276
I15
s(S'then'
p5277
S'nil'
p5278
g35
tp5279
I18
s(g4932
g19
g1558
tp5280
I25
s(g1803
g2862
g5216
tp5281
I157
s(S'<='
p5282
S'while'
p5283
S'nil'
p5284
tp5285
I7
s(S'end'
p5286
g58
g5091
tp5287
I19
s(S'do'
p5288
g3942
g3334
tp5289
I32
s(S'end'
p5290
g1
S'while'
p5291
tp5292
I10
s(S'<='
p5293
S'break'
p5294
g10
tp5295
I1
s(S'end'
p5296
g1
S'nil'
p5297
tp5298
I21
s(g4812
S'do'
p5299
S'if'
p5300
tp5301
I120
s(S'<='
p5302
S'integer'
p5303
S'var'
p5304
tp5305
I1
s(S'break'
p5306
g19
S'if'
p5307
tp5308
I10
s(g1386
g1
g40
tp5309
I17
s(S'else'
p5310
S'id'
p5311
g19
tp5312
I1
s(g40
g9
g1
tp5313
I3
s(S'then'
p5314
S'integer'
p5315
S'else'
p5316
tp5317
I22
s(S'integer'
p5318
g10
S'if'
p5319
tp5320
I3
s(g58
S'integer'
p5321
g35
tp5322
I6
s(S'>='
p5323
S'while'
p5324
S'if'
p5325
tp5326
I11
s(g99
S'>='
p5327
S'string'
p5328
tp5329
I2
s(g22
S'string'
p5330
g99
tp5331
I3
s(S'nil'
p5332
S'>='
p5333
S'string'
p5334
tp5335
I20
s(g19
g22
S'integer'
p5336
tp5337
I11
s(S'string'
p5338
S'to'
p5339
S'string'
p5340
tp5341
I56
s(g10
S'if'
p5342
g22
tp5343
I11
s(g22
g3195
g35
tp5344
I19
s(S':='
p5345
S'break'
p5346
g22
tp5347
I20
s(S'!='
p5348
g4084
g22
tp5349
I7
s(S'integer'
p5350
g19
g22
tp5351
I9
s(S'end'
p5352
g10
g22
tp5353
I14
s(S'if'
p5354
g4717
g4718
tp5355
I9
s(S'end'
p5356
g19
g3784
tp5357
I21
s(g2056
g4222
S'break'
p5358
tp5359
I7
s(g1238
g99
g97
tp5360
I1
s(g1
S'integer'
p5361
S'<='
p5362
tp5363
I3
s(g99
S'!='
p5364
S'integer'
p5365
tp5366
I2
s(g79
S'string'
p5367
g10
tp5368
I2
s(g19
S'break'
p5369
S'in'
p5370
tp5371
I8
s(S'do'
p5372
S'id'
p5373
g111
tp5374
I7
s(g132
g4895
S'to'
p5375
tp5376
I10
s(g320
S'id'
p5377
g1
tp5378
I3
s(S'nil'
p5379
g43
S'id'
p5380
tp5381
I23
s(g4801
g4802
g40
tp5382
I2
s(S'in'
p5383
g4996
g4997
tp5384
I26
s(S'then'
p5385
S'string'
p5386
g35
tp5387
I18
s(S'nil'
p5388
g43
g40
tp5389
I13
s(g262
g263
g3727
tp5390
I62
s(S'do'
p5391
S'if'
p5392
g40
tp5393
I67
s(g1
g3599
g3090
tp5394
I21
s(g19
S'let'
p5395
S'in'
p5396
tp5397
I28
s(g2218
S'do'
p5398
g22
tp5399
I120
s(S'array'
p5400
S'of'
p5401
S'integer'
p5402
tp5403
I117
s(S'do'
p5404
S'if'
p5405
S'id'
p5406
tp5407
I75
s(S'!='
p5408
S'nil'
p5409
g111
tp5410
I1
s(g5339
g5340
S'do'
p5411
tp5412
I275
s(S'<='
p5413
g22
g22
tp5414
I7
s(g19
S'integer'
p5415
g97
tp5416
I2
s(S'nil'
p5417
S'else'
p5418
S'let'
p5419
tp5420
I4
s(g3790
g99
S'in'
p5421
tp5422
I1
s(g4046
g1019
g1020
tp5423
I83
s(g151
g22
S'for'
p5424
tp5425
I1
s(g58
S'id'
p5426
S'else'
p5427
tp5428
I1
s(S'break'
p5429
S'then'
p5430
S'let'
p5431
tp5432
I56
s(g2972
g111
g2725
tp5433
I7
s(S'if'
p5434
S'id'
p5435
g35
tp5436
I6
s(g10
S'id'
p5437
g10
tp5438
I1
s(g2636
g22
S'let'
p5439
tp5440
I39
s(S'let'
p5441
S'type'
p5442
g1091
tp5443
I9
s(S'>='
p5444
S'while'
p5445
S'nil'
p5446
tp5447
I7
s(g22
S'break'
p5448
S'type'
p5449
tp5450
I3
s(g3851
g111
S'!='
p5451
tp5452
I1
s(g3153
g3154
S'integer'
p5453
tp5454
I1
s(S'id'
p5455
g99
g58
tp5456
I1
s(g9
S'to'
p5457
S'for'
p5458
tp5459
I53
s(S'integer'
p5460
g10
S'for'
p5461
tp5462
I18
s(g1322
g111
g22
tp5463
I1
s(g19
S'while'
p5464
g22
tp5465
I16
s(S'<='
p5466
S'nil'
p5467
S'<='
p5468
tp5469
I1
s(S'nil'
p5470
g19
S'break'
p5471
tp5472
I28
s(S'id'
p5473
g19
S'nil'
p5474
tp5475
I10
s(S'do'
p5476
S'id'
p5477
g320
tp5478
I34
s(g43
S'id'
p5479
S'var'
p5480
tp5481
I5
s(g111
g5451
S'break'
p5482
tp5483
I1
s(g58
S'id'
p5484
g40
tp5485
I3
s(S':='
p5486
S'integer'
p5487
g1141
tp5488
I33
s(S'to'
p5489
S'let'
p5490
S'function'
p5491
tp5492
I111
s(g457
S'do'
p5493
S'for'
p5494
tp5495
I101
s(g99
S'<='
p5496
g22
tp5497
I1
s(S'integer'
p5498
g99
g10
tp5499
I2
s(S'do'
p5500
S'break'
p5501
S'type'
p5502
tp5503
I2
s(g1961
g1962
g22
tp5504
I62
s(g151
S'integer'
p5505
S'!='
p5506
tp5507
I2
s(g35
S'id'
p5508
g19
tp5509
I5
s(g19
S'integer'
p5510
S'in'
p5511
tp5512
I9
s(g22
g22
g2192
tp5513
I27
s(S'string'
p5514
g111
S'!='
p5515
tp5516
I1
s(g4748
g35
g40
tp5517
I13
s(g22
g2062
S'nil'
p5518
tp5519
I52
s(g217
g2398
g2399
tp5520
I7
s(S':='
p5521
S'id'
p5522
g79
tp5523
I25
s(S'string'
p5524
S'then'
p5525
S'nil'
p5526
tp5527
I80
s(g19
g1558
g58
tp5528
I7
s(g35
S'integer'
p5529
S'do'
p5530
tp5531
I31
s(S':='
p5532
S'id'
p5533
S':='
p5534
tp5535
I24
s(g35
S'nil'
p5536
g10
tp5537
I4
s(S'>='
p5538
S'break'
p5539
g19
tp5540
I1
s(S'do'
p5541
S'id'
p5542
g58
tp5543
I18
s(g9
g10
g4246
tp5544
I23
s(S'!='
p5545
S'string'
p5546
g97
tp5547
I7
s(g111
S'to'
p5548
g40
tp5549
I3
s(S'nil'
p5550
S'to'
p5551
S'id'
p5552
tp5553
I66
s(g22
S'nil'
p5554
S'in'
p5555
tp5556
I39
s(g1815
S'do'
p5557
S'break'
p5558
tp5559
I116
s(S'end'
p5560
g10
S'break'
p5561
tp5562
I20
s(S'end'
p5563
g43
S'for'
p5564
tp5565
I11
s(g1031
S'to'
p5566
g1476
tp5567
I67
s(g19
g940
S'to'
p5568
tp5569
I21
s(S'<='
p5570
S'break'
p5571
S'type'
p5572
tp5573
I1
s(g35
g4409
S'do'
p5574
tp5575
I26
s(S'>='
p5576
g323
g324
tp5577
I11
s(S'break'
p5578
g19
g3754
tp5579
I14
s(g22
g3063
g19
tp5580
I9
s(S'>='
p5581
S'id'
p5582
g97
tp5583
I8
s(g2931
S'!='
p5584
g40
tp5585
I18
s(g9
g111
g132
tp5586
I1
s(S'while'
p5587
g22
S'integer'
p5588
tp5589
I37
s(g79
S'nil'
p5590
S'>='
p5591
tp5592
I2
s(g4895
g5375
g22
tp5593
I62
s(S':='
p5594
g4920
g4921
tp5595
I30
s(S'<='
p5596
S'id'
p5597
g40
tp5598
I9
s(g58
g1620
g22
tp5599
I8
s(S'<='
p5600
g4472
g111
tp5601
I2
s(S'id'
p5602
g10
S'string'
p5603
tp5604
I6
s(g151
g22
S'integer'
p5605
tp5606
I2
s(S'while'
p5607
g447
g58
tp5608
I15
s(g132
S'nil'
p5609
g58
tp5610
I3
s(g35
g4902
g19
tp5611
I7
s(g58
S'if'
p5612
g22
tp5613
I11
s(g1051
g35
g22
tp5614
I16
s(S'to'
p5615
S'id'
p5616
g317
tp5617
I15
s(S'while'
p5618
S'while'
p5619
S'id'
p5620
tp5621
I29
s(S'!='
p5622
S'string'
p5623
g22
tp5624
I7
s(S'then'
p5625
S'id'
p5626
g132
tp5627
I15
s(g35
S'break'
p5628
S'in'
p5629
tp5630
I5
s(S'end'
p5631
g196
g40
tp5632
I20
s(g22
S'nil'
p5633
S'var'
p5634
tp5635
I3
s(S'integer'
p5636
S'!='
p5637
S'for'
p5638
tp5639
I20
s(S'end'
p5640
S'else'
p5641
g293
tp5642
I7
s(g5626
g132
S'nil'
p5643
tp5644
I19
s(S'>='
p5645
S'string'
p5646
g22
tp5647
I3
s(g9
g5288
g3942
tp5648
I127
s(g10
S'if'
p5649
S'string'
p5650
tp5651
I5
s(g151
g3278
g111
tp5652
I5
s(S'end'
p5653
S'do'
p5654
S'string'
p5655
tp5656
I124
s(g1
S'id'
p5657
g151
tp5658
I3
s(S'id'
p5659
g151
S'break'
p5660
tp5661
I16
s(S'string'
p5662
g5210
g5211
tp5663
I73
s(g1615
g1989
g43
tp5664
I13
s(g19
S'integer'
p5665
S'function'
p5666
tp5667
I1
s(g35
g479
g1
tp5668
I3
s(S'then'
p5669
S'id'
p5670
g97
tp5671
I13
s(g1
S'integer'
p5672
S'else'
p5673
tp5674
I1
s(S'then'
p5675
S'break'
p5676
g97
tp5677
I13
s(g43
S'while'
p5678
S'for'
p5679
tp5680
I21
s(S'string'
p5681
g22
S'id'
p5682
tp5683
I11
s(S'then'
p5684
g4415
g4416
tp5685
I59
s(S'!='
p5686
S'id'
p5687
S':='
p5688
tp5689
I7
s(S'integer'
p5690
g111
S'then'
p5691
tp5692
I1
s(g132
g792
g22
tp5693
I2
s(S'do'
p5694
S'id'
p5695
g840
tp5696
I3
s(g320
S'id'
p5697
g19
tp5698
I7
s(S'break'
p5699
g4324
g4325
tp5700
I43
s(S'do'
p5701
g3149
g3150
tp5702
I7
s(S'do'
p5703
S'nil'
p5704
g58
tp5705
I37
s(g4977
g58
S'break'
p5706
tp5707
I16
s(g3156
g3157
g1
tp5708
I1
s(S'end'
p5709
g22
S'string'
p5710
tp5711
I25
s(g2892
g2893
g97
tp5712
I15
s(S'id'
p5713
g19
S'break'
p5714
tp5715
I19
s(g35
S'integer'
p5716
g1
tp5717
I6
s(g317
g318
g43
tp5718
I171
s(S'id'
p5719
S'do'
p5720
S'break'
p5721
tp5722
I103
s(g9
S'do'
p5723
S'while'
p5724
tp5725
I127
s(S'else'
p5726
S'while'
p5727
g40
tp5728
I2
s(S'integer'
p5729
S'!='
p5730
S'integer'
p5731
tp5732
I24
s(S'<='
p5733
g22
S'string'
p5734
tp5735
I15
s(S'>='
p5736
S'integer'
p5737
g97
tp5738
I5
s(g35
g22
S'for'
p5739
tp5740
I8
s(g5184
g1094
g22
tp5741
I18
s(g4459
g35
g1569
tp5742
I19
s(g658
g659
S'in'
p5743
tp5744
I27
s(g58
g22
S'break'
p5745
tp5746
I7
s(g43
S'nil'
p5747
S'function'
p5748
tp5749
I6
s(g4430
S'break'
p5750
g35
tp5751
I19
s(S'id'
p5752
g111
g97
tp5753
I3
s(g1718
g2136
g2926
tp5754
I24
s(g10
S'let'
p5755
S'type'
p5756
tp5757
I27
s(S'to'
p5758
g4256
g4257
tp5759
I23
s(S'break'
p5760
g22
S'integer'
p5761
tp5762
I8
s(S'id'
p5763
g1
S'break'
p5764
tp5765
I10
s(S'<='
p5766
S'nil'
p5767
g35
tp5768
I5
s(S'end'
p5769
g2735
g2736
tp5770
I22
s(S'do'
p5771
S'break'
p5772
S'function'
p5773
tp5774
I4
s(g4957
g22
g40
tp5775
I1
s(g99
g19
S'if'
p5776
tp5777
I1
s(g9
S'to'
p5778
g22
tp5779
I65
s(S'do'
p5780
g1043
g58
tp5781
I23
s(g19
S'while'
p5782
S'for'
p5783
tp5784
I13
s(g9
g1604
g1218
tp5785
I136
s(g844
g845
g22
tp5786
I107
s(g9
g22
S'if'
p5787
tp5788
I16
s(g4456
g22
g438
tp5789
I41
s(g4785
g4786
S'string'
p5790
tp5791
I3
s(g35
S'if'
p5792
g1252
tp5793
I10
s(S'while'
p5794
g3868
g10
tp5795
I17
s(g9
g99
g58
tp5796
I1
s(g43
S'id'
p5797
g10
tp5798
I8
s(g79
S'nil'
p5799
g43
tp5800
I2
s(g40
g9
g58
tp5801
I17
s(g99
g19
S'for'
p5802
tp5803
I1
s(S'!='
p5804
S'while'
p5805
S'break'
p5806
tp5807
I12
s(g43
S'integer'
p5808
S'<='
p5809
tp5810
I6
s(g58
g22
S'for'
p5811
tp5812
I7
s(g5007
S'do'
p5813
S'for'
p5814
tp5815
I118
s(S'to'
p5816
g22
g648
tp5817
I38
s(g3545
g43
S'string'
p5818
tp5819
I138
s(S'end'
p5820
g58
S'for'
p5821
tp5822
I18
s(S'to'
p5823
S'if'
p5824
S'for'
p5825
tp5826
I37
s(g10
S'string'
p5827
S'>='
p5828
tp5829
I1
s(S'if'
p5830
S'id'
p5831
g5684
tp5832
I3
s(g19
S'id'
p5833
g79
tp5834
I3
s(g3362
g3363
g5441
tp5835
I54
s(S'>='
p5836
g22
g3529
tp5837
I12
s(g3150
g3151
S'do'
p5838
tp5839
I9
s(S'end'
p5840
g3124
g3125
tp5841
I11
s(g132
S'integer'
p5842
S'<='
p5843
tp5844
I1
s(S':='
p5845
g22
g40
tp5846
I49
s(g1947
S'in'
p5847
S'end'
p5848
tp5849
I22
s(S'do'
p5850
S'while'
p5851
g1645
tp5852
I85
s(S'id'
p5853
g35
S'if'
p5854
tp5855
I9
s(g324
g22
S'integer'
p5856
tp5857
I15
s(S'nil'
p5858
g35
S'for'
p5859
tp5860
I4
s(g9
g4843
S'string'
p5861
tp5862
I15
s(S'if'
p5863
S'string'
p5864
g35
tp5865
I25
s(g4840
g4841
S'type'
p5866
tp5867
I5
s(g603
g1072
g19
tp5868
I9
s(S'end'
p5869
g99
S'!='
p5870
tp5871
I1
s(g58
S'nil'
p5872
g19
tp5873
I10
s(S'do'
p5874
S'nil'
p5875
S'to'
p5876
tp5877
I90
s(g10
S'id'
p5878
g22
tp5879
I4
s(g9
g43
g40
tp5880
I194
s(S'nil'
p5881
g19
g22
tp5882
I4
s(S'>='
p5883
S'nil'
p5884
S'in'
p5885
tp5886
I10
s(S'string'
p5887
g43
S'if'
p5888
tp5889
I18
s(g4673
g4674
S'do'
p5890
tp5891
I203
s(S'id'
p5892
g10
g22
tp5893
I5
s(g111
S'do'
p5894
S'while'
p5895
tp5896
I4
s(S'integer'
p5897
S'else'
p5898
S'id'
p5899
tp5900
I9
s(g58
S'integer'
p5901
S'to'
p5902
tp5903
I16
s(S'integer'
p5904
g111
g2250
tp5905
I2
s(S':='
p5906
S'id'
p5907
S'function'
p5908
tp5909
I7
s(g151
S'let'
p5910
S'function'
p5911
tp5912
I2
s(g2821
g22
g22
tp5913
I10
s(S'integer'
p5914
g1
S'while'
p5915
tp5916
I4
s(g35
g2147
g269
tp5917
I14
s(g19
S'string'
p5918
S'!='
p5919
tp5920
I3
s(g111
g1
S'while'
p5921
tp5922
I1
s(S'nil'
p5923
g22
g22
tp5924
I8
s(g35
g1519
S'to'
p5925
tp5926
I24
s(g1741
S'id'
p5927
g35
tp5928
I3
s(g19
g4509
S'!='
p5929
tp5930
I7
s(g5084
g215
g216
tp5931
I178
s(S'id'
p5932
S'to'
p5933
g3628
tp5934
I48
s(S'!='
p5935
S'integer'
p5936
S'type'
p5937
tp5938
I2
s(S'else'
p5939
S'break'
p5940
g58
tp5941
I1
s(g1829
g99
g10
tp5942
I2
s(S'break'
p5943
g111
g58
tp5944
I1
s(g43
g22
g2360
tp5945
I24
s(g132
S'integer'
p5946
S'type'
p5947
tp5948
I1
s(g1548
g1549
g3602
tp5949
I5
s(g35
g22
S'while'
p5950
tp5951
I9
s(g1946
g1947
g5847
tp5952
I134
s(S'<='
p5953
S'id'
p5954
S'function'
p5955
tp5956
I1
s(S':='
p5957
S'if'
p5958
S'id'
p5959
tp5960
I51
s(g9
g58
g2974
tp5961
I13
s(S'end'
p5962
g19
S'let'
p5963
tp5964
I21
s(S'nil'
p5965
g43
S'let'
p5966
tp5967
I17
s(g180
g22
S'id'
p5968
tp5969
I1
s(S'else'
p5970
S'id'
p5971
S'then'
p5972
tp5973
I2
s(S'then'
p5974
S'integer'
p5975
S'!='
p5976
tp5977
I18
s(S'!='
p5978
S'nil'
p5979
g99
tp5980
I2
s(S'else'
p5981
S'nil'
p5982
g22
tp5983
I1
s(S'integer'
p5984
g22
g1363
tp5985
I5
s(S'if'
p5986
g22
S'while'
p5987
tp5988
I7
s(g22
S'id'
p5989
g320
tp5990
I24
s(g10
S'id'
p5991
g151
tp5992
I6
s(g58
S'id'
p5993
S'>='
p5994
tp5995
I2
s(S'break'
p5996
g1181
g1182
tp5997
I2
s(g58
S'break'
p5998
g43
tp5999
I3
s(S'break'
p6000
g22
S'for'
p6001
tp6002
I9
s(S'>='
p6003
S'break'
p6004
S'to'
p6005
tp6006
I18
s(g19
g22
g4703
tp6007
I16
s(g10
g22
S'let'
p6008
tp6009
I15
s(g2659
g22
g22
tp6010
I10
s(S'to'
p6011
S'break'
p6012
g19
tp6013
I21
s(S'nil'
p6014
g99
g97
tp6015
I1
s(g327
g328
g4672
tp6016
I52
s(g22
g22
S'while'
p6017
tp6018
I12
s(g43
S'nil'
p6019
g1
tp6020
I2
s(S'!='
p6021
g22
S'while'
p6022
tp6023
I8
s(g9
g4358
S'while'
p6024
tp6025
I13
s(S'>='
p6026
S'integer'
p6027
g35
tp6028
I1
s(g79
S'integer'
p6029
g35
tp6030
I1
s(g3180
g2869
g265
tp6031
I13
s(S'then'
p6032
S'break'
p6033
S'function'
p6034
tp6035
I3
s(g151
S'if'
p6036
S'break'
p6037
tp6038
I2
s(g3740
g99
g43
tp6039
I1
s(g43
g4366
g4367
tp6040
I17
s(S'integer'
p6041
g1
g2834
tp6042
I19
s(g9
g35
S'integer'
p6043
tp6044
I29
s(S'end'
p6045
g43
S'break'
p6046
tp6047
I20
s(g22
g40
g9
tp6048
I2
s(g111
g2410
g40
tp6049
I1
s(S'end'
p6050
S'do'
p6051
g40
tp6052
I112
s(g1
g5764
g35
tp6053
I5
s(g19
S'nil'
p6054
g1
tp6055
I3
s(S'string'
p6056
g1486
g1487
tp6057
I4
s(g132
S'break'
p6058
g58
tp6059
I3
s(g4623
g4624
S'in'
p6060
tp6061
I2
s(g2878
S'>='
p6062
S'while'
p6063
tp6064
I17
s(S':='
p6065
S'while'
p6066
g4120
tp6067
I54
s(g22
g5830
g5831
tp6068
I15
s(S'break'
p6069
g1
g40
tp6070
I8
s(g10
g5417
g5418
tp6071
I1
s(g1
S'integer'
p6072
S'in'
p6073
tp6074
I11
s(g1649
S'to'
p6075
S'for'
p6076
tp6077
I43
s(S'string'
p6078
g5726
g5727
tp6079
I4
s(g10
g2695
g2696
tp6080
I39
s(g3772
g3773
S'integer'
p6081
tp6082
I83
s(S'string'
p6083
g99
g97
tp6084
I1
s(S'do'
p6085
S'integer'
p6086
g111
tp6087
I3
s(S'while'
p6088
g2741
g1
tp6089
I3
s(g132
S'nil'
p6090
g1
tp6091
I1
s(g43
S'id'
p6092
S'>='
p6093
tp6094
I9
s(S'else'
p6095
g22
S'while'
p6096
tp6097
I2
s(g4039
g4040
g97
tp6098
I15
s(g132
S'integer'
p6099
S'>='
p6100
tp6101
I4
s(g10
S'break'
p6102
S'to'
p6103
tp6104
I22
s(S'id'
p6105
g1
g1407
tp6106
I2
s(S'id'
p6107
S'>='
p6108
g40
tp6109
I1
s(g3722
S'<='
p6110
S'let'
p6111
tp6112
I16
s(g5808
g5809
S'for'
p6113
tp6114
I4
s(S'!='
p6115
S'nil'
p6116
g35
tp6117
I4
s(S'<='
p6118
S'id'
p6119
g97
tp6120
I5
s(S'do'
p6121
g22
S'for'
p6122
tp6123
I52
s(S'<='
p6124
S'string'
p6125
S'else'
p6126
tp6127
I1
s(g35
S'string'
p6128
g97
tp6129
I6
s(g43
g534
g22
tp6130
I24
s(g58
g4904
g111
tp6131
I1
s(g2175
g2176
S'var'
p6132
tp6133
I2
s(S'>='
p6134
S'string'
p6135
S'<='
p6136
tp6137
I2
s(g22
S'break'
p6138
S'function'
p6139
tp6140
I1
s(g1851
g1
S'integer'
p6141
tp6142
I16
s(g19
g1087
S'integer'
p6143
tp6144
I16
s(g10
g698
g43
tp6145
I5
s(g22
S'nil'
p6146
g99
tp6147
I3
s(S'else'
p6148
S'while'
p6149
g5022
tp6150
I2
s(S'id'
p6151
g35
S'string'
p6152
tp6153
I1
s(g3372
g3373
g1050
tp6154
I106
s(g43
S'id'
p6155
g40
tp6156
I8
s(g5373
g111
S'to'
p6157
tp6158
I6
s(g9
S'!='
p6159
S'let'
p6160
tp6161
I16
s(g9
g43
g423
tp6162
I144
s(g43
S'integer'
p6163
g58
tp6164
I11
s(g10
S'while'
p6165
S'nil'
p6166
tp6167
I10
s(S'integer'
p6168
S'to'
p6169
S'for'
p6170
tp6171
I56
s(S'if'
p6172
S'break'
p6173
g35
tp6174
I17
s(g58
g89
g22
tp6175
I7
s(S'nil'
p6176
S'else'
p6177
S'if'
p6178
tp6179
I4
s(S'break'
p6180
S'<='
p6181
S'nil'
p6182
tp6183
I5
s(S'!='
p6184
S'if'
p6185
S'integer'
p6186
tp6187
I8
s(S'break'
p6188
g99
S'do'
p6189
tp6190
I7
s(g111
S'to'
p6191
S'string'
p6192
tp6193
I2
s(S'do'
p6194
S'nil'
p6195
g43
tp6196
I41
s(S'do'
p6197
S'string'
p6198
S'var'
p6199
tp6200
I5
s(g132
S'string'
p6201
g1
tp6202
I2
s(g4929
S'nil'
p6203
g10
tp6204
I16
s(S'>='
p6205
S'break'
p6206
g58
tp6207
I4
s(g19
S'string'
p6208
g97
tp6209
I2
s(S'to'
p6210
S'if'
p6211
S'let'
p6212
tp6213
I33
s(g5861
S'do'
p6214
S'let'
p6215
tp6216
I140
s(S'>='
p6217
g5932
g5933
tp6218
I18
s(g1092
g2961
g4724
tp6219
I118
s(g19
S'string'
p6220
g19
tp6221
I4
s(S'while'
p6222
g22
g964
tp6223
I41
s(g3870
g99
g3748
tp6224
I3
s(g1282
g320
g3362
tp6225
I6
s(g22
g3419
S'do'
p6226
tp6227
I153
s(S'integer'
p6228
S'type'
p6229
S'integer'
p6230
tp6231
I10
s(S'end'
p6232
S'type'
p6233
S'integer'
p6234
tp6235
I9
s(S'!='
p6236
S'string'
p6237
g4589
tp6238
I3
s(g151
S'id'
p6239
S'<='
p6240
tp6241
I1
s(g58
g5706
S'do'
p6242
tp6243
I29
s(g111
S'function'
p6244
S'id'
p6245
tp6246
I1
s(g43
S'string'
p6247
S'>='
p6248
tp6249
I12
s(S'end'
p6250
g111
g596
tp6251
I1
s(S'do'
p6252
S'integer'
p6253
S'var'
p6254
tp6255
I2
s(g43
g733
S'string'
p6256
tp6257
I16
s(S'end'
p6258
g22
S'integer'
p6259
tp6260
I18
s(S'>='
p6261
S'string'
p6262
g1
tp6263
I1
s(g10
S'integer'
p6264
S'in'
p6265
tp6266
I14
s(g599
S'to'
p6267
S'let'
p6268
tp6269
I62
s(g10
S'nil'
p6270
g1
tp6271
I3
s(g58
g22
g4928
tp6272
I15
s(g151
S'integer'
p6273
g35
tp6274
I1
s(g10
g22
g40
tp6275
I7
s(g151
S'string'
p6276
S'<='
p6277
tp6278
I1
s(S'do'
p6279
S'break'
p6280
S'>='
p6281
tp6282
I40
s(g35
S'id'
p6283
S'!='
p6284
tp6285
I7
s(g132
S'break'
p6286
g97
tp6287
I1
s(g111
S'then'
p6288
g40
tp6289
I2
s(g1
S'if'
p6290
S'for'
p6291
tp6292
I9
s(S'if'
p6293
S'let'
p6294
S'in'
p6295
tp6296
I28
s(g6092
g6093
g22
tp6297
I2
s(g2537
g99
S'do'
p6298
tp6299
I5
s(g2444
g2356
g2357
tp6300
I2
s(S'>='
p6301
S'id'
p6302
g10
tp6303
I2
s(S'nil'
p6304
S'>='
p6305
S'nil'
p6306
tp6307
I19
s(S'>='
p6308
g22
g40
tp6309
I13
s(S'string'
p6310
g19
S'if'
p6311
tp6312
I6
s(S'do'
p6313
S'integer'
p6314
S'>='
p6315
tp6316
I36
s(g58
g22
g40
tp6317
I15
s(g9
g19
g1523
tp6318
I18
s(S'integer'
p6319
S'then'
p6320
S'let'
p6321
tp6322
I75
s(g320
S'id'
p6323
g22
tp6324
I9
s(g19
S'break'
p6325
S'do'
p6326
tp6327
I38
s(g10
S'if'
p6328
S'if'
p6329
tp6330
I10
s(g1781
g10
g5127
tp6331
I8
s(g35
S'break'
p6332
g97
tp6333
I8
s(g10
g351
g1954
tp6334
I16
s(S'>='
p6335
g22
S'for'
p6336
tp6337
I7
s(g2188
S'break'
p6338
S'>='
p6339
tp6340
I15
s(g4367
g35
S'break'
p6341
tp6342
I4
s(g1
g1663
g2638
tp6343
I4
s(S'id'
p6344
g43
S'for'
p6345
tp6346
I24
s(g79
g1649
g6075
tp6347
I8
s(g1
S'string'
p6348
g97
tp6349
I6
s(g43
S'break'
p6350
S'>='
p6351
tp6352
I7
s(S'string'
p6353
g3182
g3101
tp6354
I72
s(S':='
p6355
S'id'
p6356
g40
tp6357
I17
s(S'!='
p6358
S'integer'
p6359
S'in'
p6360
tp6361
I13
s(S'break'
p6362
g58
S'if'
p6363
tp6364
I19
s(S'integer'
p6365
g58
S'if'
p6366
tp6367
I20
s(g22
S'string'
p6368
g19
tp6369
I26
s(S':='
p6370
S'let'
p6371
S'function'
p6372
tp6373
I148
s(S'do'
p6374
S'string'
p6375
g97
tp6376
I51
s(S'>='
p6377
S'nil'
p6378
g22
tp6379
I4
s(S'integer'
p6380
g99
S'!='
p6381
tp6382
I1
s(S'if'
p6383
S'if'
p6384
S'for'
p6385
tp6386
I1
s(S'end'
p6387
g4878
g4879
tp6388
I50
s(g9
g99
g10
tp6389
I1
s(g9
g2951
g2952
tp6390
I13
s(g43
S'break'
p6391
g5570
tp6392
I7
s(S'then'
p6393
S'if'
p6394
S'break'
p6395
tp6396
I40
s(g1352
g19
g643
tp6397
I5
s(S'<='
p6398
S'string'
p6399
S'>='
p6400
tp6401
I2
s(S'if'
p6402
S'id'
p6403
g320
tp6404
I11
s(S'>='
p6405
g22
S'string'
p6406
tp6407
I7
s(g4003
g99
g5364
tp6408
I2
s(g43
S'break'
p6409
g10
tp6410
I7
s(g58
S'string'
p6411
g111
tp6412
I1
s(S'for'
p6413
g4176
g4177
tp6414
I24
s(g22
S'nil'
p6415
g97
tp6416
I2
s(S'to'
p6417
g22
S'string'
p6418
tp6419
I41
s(S'while'
p6420
g429
g22
tp6421
I23
s(g22
S'integer'
p6422
S'type'
p6423
tp6424
I4
s(g318
g43
S'id'
p6425
tp6426
I55
s(S'string'
p6427
S'to'
p6428
g40
tp6429
I55
s(S'!='
p6430
S'while'
p6431
g40
tp6432
I8
s(S'integer'
p6433
g43
S'while'
p6434
tp6435
I17
s(g3046
g3047
S'integer'
p6436
tp6437
I66
s(S'then'
p6438
S'while'
p6439
S'break'
p6440
tp6441
I26
s(g79
S'nil'
p6442
S'do'
p6443
tp6444
I17
s(S'>='
p6445
S'string'
p6446
S'var'
p6447
tp6448
I1
s(g35
g22
g291
tp6449
I15
s(g19
g1887
g151
tp6450
I4
s(S'then'
p6451
S'id'
p6452
g2058
tp6453
I14
s(g1957
g1958
g43
tp6454
I18
s(g35
S'nil'
p6455
g35
tp6456
I4
s(g99
S'>='
p6457
S'let'
p6458
tp6459
I3
s(g10
S'string'
p6460
g22
tp6461
I4
s(g5940
g58
g40
tp6462
I24
s(S'!='
p6463
S'string'
p6464
g35
tp6465
I2
s(g1
g5297
S'to'
p6466
tp6467
I18
s(S'<='
p6468
S'string'
p6469
S'<='
p6470
tp6471
I2
s(S'then'
p6472
S'id'
p6473
S'<='
p6474
tp6475
I15
s(S'>='
p6476
S'id'
p6477
S'!='
p6478
tp6479
I2
s(S'string'
p6480
S'do'
p6481
S'integer'
p6482
tp6483
I120
s(g2413
g43
S'integer'
p6484
tp6485
I21
s(S'then'
p6486
S'while'
p6487
g40
tp6488
I33
s(g1
S'string'
p6489
g111
tp6490
I1
s(g151
S'while'
p6491
g22
tp6492
I1
s(g10
g22
S'id'
p6493
tp6494
I9
s(g1059
g10
S'for'
p6495
tp6496
I21
s(g2325
g2326
g19
tp6497
I4
s(S':='
p6498
S'while'
p6499
S'nil'
p6500
tp6501
I54
s(g43
S'nil'
p6502
g97
tp6503
I6
s(S'nil'
p6504
g43
S'integer'
p6505
tp6506
I9
s(g58
g6363
g5524
tp6507
I13
s(S'else'
p6508
S'while'
p6509
S'break'
p6510
tp6511
I3
s(S'id'
p6512
g111
g35
tp6513
I1
s(g2367
g43
g1281
tp6514
I139
s(g58
S'break'
p6515
g99
tp6516
I1
s(g43
S'string'
p6517
S'type'
p6518
tp6519
I8
s(S'break'
p6520
g19
g5464
tp6521
I22
s(S'break'
p6522
S'then'
p6523
g40
tp6524
I68
s(S'end'
p6525
g111
g320
tp6526
I2
s(S'else'
p6527
S'if'
p6528
S'for'
p6529
tp6530
I2
s(g1873
g58
S'if'
p6531
tp6532
I5
s(g9
S'do'
p6533
S'let'
p6534
tp6535
I122
s(g99
g10
g40
tp6536
I1
s(g1
S'integer'
p6537
g19
tp6538
I5
s(g19
S'break'
p6539
S'>='
p6540
tp6541
I6
s(g35
S'while'
p6542
S'let'
p6543
tp6544
I14
s(g151
S'break'
p6545
S'<='
p6546
tp6547
I2
s(S'nil'
p6548
S'<='
p6549
g22
tp6550
I10
s(g5536
g10
S'string'
p6551
tp6552
I1
s(S'else'
p6553
S'id'
p6554
g320
tp6555
I3
s(S'break'
p6556
S'<='
p6557
g5269
tp6558
I19
s(S'end'
p6559
S'else'
p6560
S'break'
p6561
tp6562
I7
s(g4062
g4063
g97
tp6563
I2
s(g235
g236
g22
tp6564
I193
s(g111
S'to'
p6565
S'if'
p6566
tp6567
I4
s(g111
g4957
g22
tp6568
I1
s(g2284
g942
g943
tp6569
I44
s(S'string'
p6570
S'!='
p6571
S'let'
p6572
tp6573
I5
s(S'>='
p6574
S'id'
p6575
g43
tp6576
I1
s(S'do'
p6577
g341
g19
tp6578
I32
s(g1541
g1542
S'let'
p6579
tp6580
I13
s(S'if'
p6581
S'integer'
p6582
S'!='
p6583
tp6584
I16
s(g10
S'nil'
p6585
S'!='
p6586
tp6587
I1
s(S'nil'
p6588
g5970
g5971
tp6589
I3
s(g111
S'then'
p6590
S'nil'
p6591
tp6592
I3
s(S'break'
p6593
g35
g40
tp6594
I5
s(g79
S'integer'
p6595
S'!='
p6596
tp6597
I2
s(S'id'
p6598
g99
S'<='
p6599
tp6600
I1
s(g3935
g3936
g35
tp6601
I22
s(g4871
g4099
g4100
tp6602
I67
s(S'break'
p6603
g43
g5713
tp6604
I25
s(S'nil'
p6605
g99
g182
tp6606
I2
s(S'if'
p6607
g5388
g43
tp6608
I15
s(g9
g19
g40
tp6609
I24
s(g35
S'id'
p6610
S'to'
p6611
tp6612
I16
s(g43
S'string'
p6613
g4626
tp6614
I47
s(g19
g829
g3040
tp6615
I14
s(g22
g90
g22
tp6616
I12
s(g1678
g1679
S'to'
p6617
tp6618
I17
s(S'do'
p6619
S'break'
p6620
g111
tp6621
I6
s(g5189
g5190
S'function'
p6622
tp6623
I6
s(g157
g40
g9
tp6624
I130
s(S'id'
p6625
S'!='
p6626
g22
tp6627
I2
s(g10
S'id'
p6628
S'!='
p6629
tp6630
I2
s(g5723
g5724
S'let'
p6631
tp6632
I82
s(g22
g2518
g2519
tp6633
I66
s(S'>='
p6634
S'break'
p6635
S'!='
p6636
tp6637
I2
s(g35
g1694
S'in'
p6638
tp6639
I32
s(g2978
g2979
S':='
p6640
tp6641
I1453
s(g878
g1984
g1853
tp6642
I101
s(g79
S'break'
p6643
S'do'
p6644
tp6645
I14
s(S':='
p6646
S'break'
p6647
g1
tp6648
I28
s(g1810
g1811
g2602
tp6649
I4
s(g111
S'to'
p6650
S'integer'
p6651
tp6652
I1
s(S'<='
p6653
S'string'
p6654
g58
tp6655
I2
s(g5526
g6095
g22
tp6656
I4
s(S'string'
p6657
g1
g40
tp6658
I21
s(S':='
p6659
S'nil'
p6660
S'in'
p6661
tp6662
I80
s(S'do'
p6663
g4029
g4030
tp6664
I113
s(g4879
g4880
S'in'
p6665
tp6666
I13
s(g263
g3727
g3728
tp6667
I45
s(S'break'
p6668
g1507
g22
tp6669
I4
s(S'then'
p6670
S'integer'
p6671
S'function'
p6672
tp6673
I4
s(S'end'
p6674
g58
S'string'
p6675
tp6676
I14
s(g43
g3194
g22
tp6677
I10
s(S'to'
p6678
S'string'
p6679
g1
tp6680
I14
s(g4979
g4980
g22
tp6681
I26
s(S'integer'
p6682
S'!='
p6683
S'break'
p6684
tp6685
I5
s(g22
g930
g43
tp6686
I8
s(S':='
p6687
S'nil'
p6688
g97
tp6689
I3
s(g22
g5429
g5430
tp6690
I58
s(g10
S'break'
p6691
S'>='
p6692
tp6693
I1
s(g151
S'break'
p6694
S'>='
p6695
tp6696
I1
s(g43
S'for'
p6697
S'id'
p6698
tp6699
I218
s(g10
S'id'
p6700
g35
tp6701
I1
s(g22
S'id'
p6702
g35
tp6703
I2
s(S'else'
p6704
S'nil'
p6705
S'then'
p6706
tp6707
I2
s(S'nil'
p6708
S'to'
p6709
S'let'
p6710
tp6711
I53
s(g219
S'let'
p6712
S'type'
p6713
tp6714
I8
s(g79
S'string'
p6715
S'in'
p6716
tp6717
I1
s(S'>='
p6718
S'break'
p6719
g97
tp6720
I9
s(g111
g5066
S'integer'
p6721
tp6722
I1
s(g35
S'id'
p6723
g43
tp6724
I3
s(g6281
S'for'
p6725
S'id'
p6726
tp6727
I110
s(g35
g6341
S'do'
p6728
tp6729
I40
s(g43
g1994
g1
tp6730
I11
s(g2550
g19
g40
tp6731
I8
s(g6620
g111
g2628
tp6732
I1
s(g2758
g2759
g1
tp6733
I13
s(S'<='
p6734
S'integer'
p6735
g43
tp6736
I2
s(g19
S'string'
p6737
S'to'
p6738
tp6739
I12
s(S'do'
p6740
S'id'
p6741
g43
tp6742
I31
s(g9
S'to'
p6743
S'break'
p6744
tp6745
I63
s(g1
S'integer'
p6746
g111
tp6747
I1
s(g1
g348
g58
tp6748
I5
s(g79
S'string'
p6749
S'do'
p6750
tp6751
I11
s(g22
S'integer'
p6752
g22
tp6753
I31
s(S'then'
p6754
g2655
g22
tp6755
I31
s(g43
g1358
g111
tp6756
I1
s(g22
g1422
g5025
tp6757
I10
s(g35
S'integer'
p6758
g43
tp6759
I6
s(S'to'
p6760
S'string'
p6761
g10
tp6762
I12
s(g4667
g79
g576
tp6763
I25
s(g6100
S'if'
p6764
S'let'
p6765
tp6766
I16
s(S'break'
p6767
g1
g6348
tp6768
I19
s(g19
S'id'
p6769
g320
tp6770
I6
s(g43
S'if'
p6771
S'integer'
p6772
tp6773
I20
s(S'end'
p6774
g111
g97
tp6775
I1
s(g22
g2202
g2051
tp6776
I57
s(S'end'
p6777
S'to'
p6778
S'while'
p6779
tp6780
I61
s(g10
S'while'
p6781
S'id'
p6782
tp6783
I16
s(S'then'
p6784
S'id'
p6785
S'type'
p6786
tp6787
I1
s(S'end'
p6788
S'else'
p6789
g40
tp6790
I6
s(g143
g35
g40
tp6791
I5
s(g2797
S'integer'
p6792
g1459
tp6793
I16
s(g693
g2708
g2709
tp6794
I16
s(g1
S'break'
p6795
g19
tp6796
I9
s(g4688
g4689
S'else'
p6797
tp6798
I21
s(S'do'
p6799
g1518
g35
tp6800
I25
s(S'!='
p6801
S'nil'
p6802
g22
tp6803
I5
s(g6474
S'id'
p6804
S'to'
p6805
tp6806
I18
s(g4523
g4524
g4520
tp6807
I19
s(g132
S'integer'
p6808
g10
tp6809
I1
s(g58
g83
g10
tp6810
I7
s(S'end'
p6811
g10
g4463
tp6812
I21
s(S'do'
p6813
S'id'
p6814
S'>='
p6815
tp6816
I31
s(g417
S'id'
p6817
S'in'
p6818
tp6819
I46
s(g35
S'while'
p6820
g40
tp6821
I9
s(g6314
g6315
S'break'
p6822
tp6823
I1
s(S'>='
p6824
S'if'
p6825
S'while'
p6826
tp6827
I8
s(g35
S'if'
p6828
g40
tp6829
I11
s(g1
S'id'
p6830
g10
tp6831
I1
s(g19
S'string'
p6832
S'in'
p6833
tp6834
I14
s(S'!='
p6835
S'if'
p6836
S'id'
p6837
tp6838
I5
s(S'integer'
p6839
g99
g35
tp6840
I2
s(g35
S'nil'
p6841
g43
tp6842
I2
s(S'end'
p6843
S'>='
p6844
S'if'
p6845
tp6846
I12
s(S'!='
p6847
g22
S'integer'
p6848
tp6849
I15
s(S':='
p6850
S'nil'
p6851
S'do'
p6852
tp6853
I2
s(S'!='
p6854
S'break'
p6855
S'<='
p6856
tp6857
I1
s(g111
g1
S'string'
p6858
tp6859
I1
s(g9
g58
S'id'
p6860
tp6861
I18
s(g10
g1775
g320
tp6862
I6
s(S'then'
p6863
g1716
g1717
tp6864
I13
s(S'!='
p6865
S'nil'
p6866
g10
tp6867
I3
s(S'nil'
p6868
g10
g40
tp6869
I14
s(g22
g6413
g4176
tp6870
I19
s(g22
g435
g111
tp6871
I2
s(g79
S'break'
p6872
g19
tp6873
I1
s(S'id'
p6874
g58
g4479
tp6875
I13
s(g9
g58
g2022
tp6876
I23
s(S'!='
p6877
S'integer'
p6878
g19
tp6879
I5
s(S'while'
p6880
g4329
g19
tp6881
I7
s(g1480
g1053
g40
tp6882
I40
s(S'string'
p6883
S'to'
p6884
g3775
tp6885
I52
s(g111
S'then'
p6886
S'if'
p6887
tp6888
I1
s(g3363
g5441
g5442
tp6889
I131
s(g5979
g99
g3015
tp6890
I1
s(g4344
S'do'
p6891
g2687
tp6892
I111
s(g99
S'>='
p6893
g22
tp6894
I1
s(g43
S'id'
p6895
S'!='
p6896
tp6897
I7
s(S'while'
p6898
g22
S'if'
p6899
tp6900
I28
s(S'end'
p6901
g19
g40
tp6902
I11
s(g58
S'if'
p6903
S'id'
p6904
tp6905
I15
s(g19
S'break'
p6906
g22
tp6907
I9
s(S'break'
p6908
g43
g22
tp6909
I16
s(S':='
p6910
g3297
g58
tp6911
I13
s(S'nil'
p6912
S'>='
p6913
S'if'
p6914
tp6915
I1
s(g956
g957
g2966
tp6916
I20
s(g10
S'break'
p6917
S'<='
p6918
tp6919
I1
s(g111
S'do'
p6920
g22
tp6921
I1
s(S'integer'
p6922
g99
S'type'
p6923
tp6924
I1
s(g5864
g35
g3865
tp6925
I4
s(S'do'
p6926
S'nil'
p6927
S'type'
p6928
tp6929
I9
s(g79
S'string'
p6930
g22
tp6931
I3
s(g1887
g151
g3278
tp6932
I5
s(S'else'
p6933
S'break'
p6934
S'then'
p6935
tp6936
I7
s(g3134
g3135
S'for'
p6937
tp6938
I48
s(g111
g19
g40
tp6939
I1
s(g111
S'to'
p6940
S'nil'
p6941
tp6942
I1
s(g58
S'integer'
p6943
g43
tp6944
I6
s(g4302
g22
S'for'
p6945
tp6946
I2
s(g9
g111
g97
tp6947
I2
s(g43
S'id'
p6948
g151
tp6949
I5
s(g111
S'then'
p6950
S'let'
p6951
tp6952
I1
s(S'>='
p6953
S'id'
p6954
g320
tp6955
I6
s(S'id'
p6956
g1733
g1734
tp6957
I5
s(S'<='
p6958
S'id'
p6959
g132
tp6960
I4
s(g6675
S'then'
p6961
g22
tp6962
I43
s(S':='
p6963
g3392
g1
tp6964
I19
s(g9
g99
g22
tp6965
I1
s(S'end'
p6966
g43
g2619
tp6967
I17
s(g3854
g2339
g2340
tp6968
I17
s(S'string'
p6969
g35
g5792
tp6970
I17
s(g5851
g1645
g1646
tp6971
I16
s(g6557
g5269
g99
tp6972
I1
s(S'!='
p6973
S'while'
p6974
g22
tp6975
I8
s(g10
S'let'
p6976
S'in'
p6977
tp6978
I32
s(g22
S'id'
p6979
g132
tp6980
I4
s(g163
g22
g5986
tp6981
I16
s(g35
g22
S'string'
p6982
tp6983
I10
s(S'do'
p6984
g823
g19
tp6985
I35
s(g58
S'while'
p6986
S'id'
p6987
tp6988
I6
s(g795
g796
g3881
tp6989
I42
s(S'<='
p6990
S'nil'
p6991
g58
tp6992
I4
s(S'nil'
p6993
g3557
g3558
tp6994
I4
s(S'>='
p6995
S'id'
p6996
g40
tp6997
I1
s(g4921
g4922
S'in'
p6998
tp6999
I5
s(g1
S'id'
p7000
g22
tp7001
I1
s(g1
g3644
g22
tp7002
I7
s(g5240
g5241
S'for'
p7003
tp7004
I70
s(g1
S'nil'
p7005
g1
tp7006
I2
s(g58
S'break'
p7007
g1
tp7008
I11
s(S'then'
p7009
S'string'
p7010
S'!='
p7011
tp7012
I14
s(S'if'
p7013
g2635
g22
tp7014
I17
s(S'<='
p7015
S'id'
p7016
g79
tp7017
I3
s(S'<='
p7018
S'break'
p7019
g22
tp7020
I4
s(g9
S'>='
p7021
S'for'
p7022
tp7023
I17
s(g5062
g5063
g58
tp7024
I14
s(S'nil'
p7025
g3953
g3954
tp7026
I68
s(g111
S'then'
p7027
S'string'
p7028
tp7029
I1
s(g19
S'integer'
p7030
g10
tp7031
I3
s(g35
S'integer'
p7032
S'in'
p7033
tp7034
I7
s(S'end'
p7035
g22
S'id'
p7036
tp7037
I17
s(S':='
p7038
g2418
g1
tp7039
I13
s(g4689
g6797
S'break'
p7040
tp7041
I6
s(S':='
p7042
S'string'
p7043
S'function'
p7044
tp7045
I7
s(g328
g4672
g4673
tp7046
I82
s(g2956
S'while'
p7047
S'let'
p7048
tp7049
I1
s(S'break'
p7050
S'>='
p7051
S'id'
p7052
tp7053
I19
s(g5401
g5402
S'in'
p7054
tp7055
I117
s(S'while'
p7056
S'id'
p7057
g35
tp7058
I17
s(g132
S'integer'
p7059
S'then'
p7060
tp7061
I10
s(g43
g4252
g43
tp7062
I9
s(S'string'
p7063
S'!='
p7064
S'while'
p7065
tp7066
I4
s(S'to'
p7067
g4642
g22
tp7068
I29
s(g1617
g1618
S'while'
p7069
tp7070
I20
s(S'then'
p7071
S'while'
p7072
S'id'
p7073
tp7074
I29
s(g6086
g111
S'of'
p7075
tp7076
I1
s(g43
g2763
g58
tp7077
I12
s(g19
S'id'
p7078
S'!='
p7079
tp7080
I2
s(g151
S'if'
p7081
S'string'
p7082
tp7083
I2
s(g1
g6141
S'then'
p7084
tp7085
I20
s(g22
g5987
S'nil'
p7086
tp7087
I17
s(g151
S'break'
p7088
g22
tp7089
I1
s(S'if'
p7090
g828
g19
tp7091
I17
s(S'else'
p7092
S'integer'
p7093
S'do'
p7094
tp7095
I8
s(S'while'
p7096
S'break'
p7097
g43
tp7098
I6
s(g111
g6157
S'let'
p7099
tp7100
I1
s(g99
g4426
S'let'
p7101
tp7102
I2
s(S'integer'
p7103
g99
S'>='
p7104
tp7105
I2
s(g3649
g22
g5554
tp7106
I86
s(g58
g1966
g10
tp7107
I8
s(S'end'
p7108
g58
g3718
tp7109
I23
s(g9
g111
S'do'
p7110
tp7111
I2
s(g132
S'break'
p7112
g19
tp7113
I2
s(S'<='
p7114
S'integer'
p7115
S'!='
p7116
tp7117
I4
s(S'to'
p7118
g5863
g5864
tp7119
I27
s(S'id'
p7120
g1579
g1580
tp7121
I64
s(S'!='
p7122
S'nil'
p7123
S'<='
p7124
tp7125
I2
s(S'break'
p7126
g111
g728
tp7127
I1
s(S'do'
p7128
g3769
g35
tp7129
I41
s(g1361
S'let'
p7130
S'var'
p7131
tp7132
I1
s(g1932
g952
g953
tp7133
I28
s(S'integer'
p7134
S'>='
p7135
S'nil'
p7136
tp7137
I22
s(g6305
g6306
S'do'
p7138
tp7139
I32
s(g9
g10
S'for'
p7140
tp7141
I17
s(g58
S'integer'
p7142
S'<='
p7143
tp7144
I4
s(S'end'
p7145
g35
S'for'
p7146
tp7147
I23
s(S'id'
p7148
g1
g40
tp7149
I24
s(S'id'
p7150
S'type'
p7151
S'id'
p7152
tp7153
I9
s(g43
g5888
S'let'
p7154
tp7155
I19
s(S'break'
p7156
S'>='
p7157
S'integer'
p7158
tp7159
I17
s(g1467
g1
g22
tp7160
I14
s(g1659
g1660
g2831
tp7161
I7
s(g5847
g5848
g1340
tp7162
I643
s(g99
S'do'
p7163
S'while'
p7164
tp7165
I3
s(S'then'
p7166
S'id'
p7167
S'then'
p7168
tp7169
I43
s(g7054
g3462
g631
tp7170
I202
s(g111
g19
S'break'
p7171
tp7172
I1
s(S'string'
p7173
g3496
g465
tp7174
I16
s(g9
g35
g880
tp7175
I17
s(S'<='
p7176
S'nil'
p7177
S'else'
p7178
tp7179
I1
s(g860
g58
S'for'
p7180
tp7181
I22
s(g3520
g3521
S'let'
p7182
tp7183
I15
s(g2179
g645
g58
tp7184
I9
s(g3731
g2844
g2845
tp7185
I2
s(S'string'
p7186
g35
S'while'
p7187
tp7188
I19
s(g1
g2270
S'integer'
p7189
tp7190
I14
s(S'then'
p7191
g4332
g22
tp7192
I19
s(S'end'
p7193
S'>='
p7194
S'for'
p7195
tp7196
I18
s(S'break'
p7197
g1
S'break'
p7198
tp7199
I24
s(g9
g6799
g1518
tp7200
I140
s(S'break'
p7201
g10
g22
tp7202
I17
s(S'while'
p7203
S'string'
p7204
g35
tp7205
I20
s(g132
S'integer'
p7206
g58
tp7207
I1
s(S'id'
p7208
g35
S'integer'
p7209
tp7210
I3
s(g22
S'id'
p7211
S':='
p7212
tp7213
I12
s(g151
S'if'
p7214
S'if'
p7215
tp7216
I5
s(g9
g708
g709
tp7217
I19
s(g1383
S'break'
p7218
S'then'
p7219
tp7220
I54
s(g3752
g10
S'id'
p7221
tp7222
I4
s(g111
g35
S'string'
p7223
tp7224
I1
s(g5029
g5030
S'id'
p7225
tp7226
I7
s(g58
S'id'
p7227
g35
tp7228
I1
s(g5255
g1698
g1699
tp7229
I103
s(g22
g684
g111
tp7230
I2
s(g35
S'while'
p7231
S'break'
p7232
tp7233
I17
s(g10
S'integer'
p7234
S'then'
p7235
tp7236
I19
s(S'<='
p7237
S'nil'
p7238
g10
tp7239
I4
s(g3247
g3248
g6217
tp7240
I28
s(g79
S'nil'
p7241
S'to'
p7242
tp7243
I5
s(S'then'
p7244
S'break'
p7245
S'type'
p7246
tp7247
I1
s(S'then'
p7248
S'while'
p7249
g22
tp7250
I41
s(S'integer'
p7251
g35
S'while'
p7252
tp7253
I16
s(S'end'
p7254
g10
S'id'
p7255
tp7256
I14
s(g35
g4618
S'id'
p7257
tp7258
I12
s(S'to'
p7259
S'break'
p7260
g10
tp7261
I21
s(g1
S'break'
p7262
g1
tp7263
I2
s(S'nil'
p7264
S'id'
p7265
g43
tp7266
I1
s(g99
S'then'
p7267
S'id'
p7268
tp7269
I3
s(g10
S'string'
p7270
g19
tp7271
I3
s(S'id'
p7272
g10
g3288
tp7273
I6
s(S'break'
p7274
g99
S'to'
p7275
tp7276
I1
s(S'!='
p7277
S'id'
p7278
g320
tp7279
I3
s(S'break'
p7280
g35
g3500
tp7281
I6
s(S'id'
p7282
g151
g40
tp7283
I6
s(g9
g99
g35
tp7284
I3
s(S'while'
p7285
S'id'
p7286
S':='
p7287
tp7288
I10
s(S'while'
p7289
S'if'
p7290
S'for'
p7291
tp7292
I5
s(g19
S'nil'
p7293
S'in'
p7294
tp7295
I3
s(S'if'
p7296
S'string'
p7297
g10
tp7298
I3
s(g43
S'break'
p7299
g43
tp7300
I7
s(g3728
g3729
g2275
tp7301
I16
s(S':='
p7302
S'if'
p7303
S'while'
p7304
tp7305
I47
s(g6805
g22
g40
tp7306
I36
s(S'integer'
p7307
g58
S'let'
p7308
tp7309
I3
s(g9
g2823
g2824
tp7310
I51
s(g79
S'integer'
p7311
S'to'
p7312
tp7313
I6
s(S'break'
p7314
S'!='
p7315
S'integer'
p7316
tp7317
I27
s(g9
g22
g22
tp7318
I23
s(g6215
g3365
g3366
tp7319
I18
s(S'then'
p7320
S'id'
p7321
g151
tp7322
I16
s(g1244
g1
g4458
tp7323
I9
s(S'integer'
p7324
S'else'
p7325
S'for'
p7326
tp7327
I1
s(g79
g2723
g58
tp7328
I5
s(g1
S'id'
p7329
S'to'
p7330
tp7331
I11
s(g79
S'break'
p7332
S'in'
p7333
tp7334
I3
s(g4417
S'type'
p7335
S'id'
p7336
tp7337
I47
s(S'end'
p7338
S'then'
p7339
g22
tp7340
I60
s(g5790
g58
S'break'
p7341
tp7342
I19
s(g58
S'id'
p7343
g5010
tp7344
I10
s(g338
g339
g5794
tp7345
I59
s(S'break'
p7346
g111
g35
tp7347
I1
s(g1
S'integer'
p7348
g35
tp7349
I3
s(g22
g6017
g40
tp7350
I46
s(S'!='
p7351
S'integer'
p7352
S'else'
p7353
tp7354
I1
s(g4832
g151
g2259
tp7355
I1
s(g35
g22
S'integer'
p7356
tp7357
I13
s(S':='
p7358
g209
g210
tp7359
I54
s(g2449
g2450
S'integer'
p7360
tp7361
I10
s(S'>='
p7362
S'id'
p7363
S'>='
p7364
tp7365
I2
s(g35
S'nil'
p7366
g99
tp7367
I1
s(g5933
g3628
g1327
tp7368
I27
s(g111
S':='
p7369
S'id'
p7370
tp7371
I2
s(g6617
g666
g22
tp7372
I44
s(S'<='
p7373
S'break'
p7374
S'>='
p7375
tp7376
I3
s(S'then'
p7377
S'id'
p7378
g1658
tp7379
I11
s(g43
g7264
g7265
tp7380
I1
s(g1150
g1151
g1877
tp7381
I142
s(S'string'
p7382
g35
S'nil'
p7383
tp7384
I1
s(g19
g824
g97
tp7385
I14
s(S'then'
p7386
S'id'
p7387
S'var'
p7388
tp7389
I2
s(g7238
g10
S'if'
p7390
tp7391
I14
s(g43
S'let'
p7392
S'function'
p7393
tp7394
I62
s(g99
g58
g22
tp7395
I1
s(g2508
S'for'
p7396
g1945
tp7397
I112
s(g35
g7252
g3445
tp7398
I9
s(g2845
g2846
S'for'
p7399
tp7400
I13
s(S'nil'
p7401
g35
g3314
tp7402
I14
s(g1
S'integer'
p7403
S'>='
p7404
tp7405
I1
s(g79
S'integer'
p7406
S'in'
p7407
tp7408
I1
s(g99
g1832
S'integer'
p7409
tp7410
I3
s(S'id'
p7411
g261
g262
tp7412
I630
s(S'string'
p7413
g1
S'nil'
p7414
tp7415
I2
s(g111
g111
S'do'
p7416
tp7417
I1
s(S'do'
p7418
S'string'
p7419
g7067
tp7420
I82
s(g79
g1869
g58
tp7421
I4
s(S'to'
p7422
S'id'
p7423
g58
tp7424
I12
s(S'then'
p7425
S'break'
p7426
g99
tp7427
I2
s(S'do'
p7428
S'integer'
p7429
g22
tp7430
I29
s(S':='
p7431
g40
g9
tp7432
I563
s(S'break'
p7433
S'else'
p7434
S'for'
p7435
tp7436
I4
s(g43
S'id'
p7437
g5385
tp7438
I16
s(S'end'
p7439
g5816
g22
tp7440
I59
s(S'do'
p7441
S'break'
p7442
S'in'
p7443
tp7444
I56
s(g2513
g19
g3905
tp7445
I18
s(S'integer'
p7446
g4024
g4025
tp7447
I55
s(g43
S'string'
p7448
g97
tp7449
I9
s(S'break'
p7450
g1
S'integer'
p7451
tp7452
I4
s(g132
S'integer'
p7453
g22
tp7454
I1
s(g10
g3912
S'var'
p7455
tp7456
I30
s(S'nil'
p7457
g58
g40
tp7458
I20
s(S'>='
p7459
S'integer'
p7460
g58
tp7461
I7
s(S'nil'
p7462
S'<='
p7463
S'let'
p7464
tp7465
I2
s(g19
S'while'
p7466
S'let'
p7467
tp7468
I14
s(S'>='
p7469
S'break'
p7470
S'var'
p7471
tp7472
I1
s(g43
S'string'
p7473
g1
tp7474
I6
s(g1341
g1342
g1820
tp7475
I128
s(g9
S'else'
p7476
S'string'
p7477
tp7478
I2
s(S'do'
p7479
S'nil'
p7480
S'>='
p7481
tp7482
I32
s(g320
S'id'
p7483
S'in'
p7484
tp7485
I11
s(g9
S'to'
p7486
S'string'
p7487
tp7488
I57
s(S'<='
p7489
S'nil'
p7490
S'in'
p7491
tp7492
I8
s(S':='
p7493
S'break'
p7494
S'function'
p7495
tp7496
I5
s(g210
g211
g35
tp7497
I15
s(g3163
S'end'
p7498
g111
tp7499
I25
s(g2302
g22
g22
tp7500
I3
s(g1062
g1063
g79
tp7501
I7
s(S'id'
p7502
g7431
g40
tp7503
I562
s(g1925
g1926
g1268
tp7504
I19
s(g6099
g6100
g6764
tp7505
I16
s(g5487
g1141
g1142
tp7506
I27
s(S'!='
p7507
S'integer'
p7508
g43
tp7509
I2
s(g542
g19
g6325
tp7510
I19
s(S'<='
p7511
S'id'
p7512
S'<='
p7513
tp7514
I2
s(g19
S'nil'
p7515
S'do'
p7516
tp7517
I39
s(S'end'
p7518
g111
g132
tp7519
I1
s(g111
g79
S'nil'
p7520
tp7521
I1
s(S'to'
p7522
S'break'
p7523
g1
tp7524
I18
s(g151
S'while'
p7525
S'id'
p7526
tp7527
I1
s(g99
S'then'
p7528
S'break'
p7529
tp7530
I3
s(g5063
g58
g542
tp7531
I1
s(S':='
p7532
g4432
g58
tp7533
I11
s(g10
g391
g10
tp7534
I2
s(S':='
p7535
g4231
g19
tp7536
I19
s(S'<='
p7537
S'break'
p7538
S'!='
p7539
tp7540
I3
s(S'while'
p7541
S'nil'
p7542
g43
tp7543
I12
s(g5695
g840
g841
tp7544
I1
s(g6315
g6822
S'do'
p7545
tp7546
I56
s(S'end'
p7547
g19
g22
tp7548
I25
s(g1186
g22
g6368
tp7549
I46
s(g99
g35
g22
tp7550
I1
s(g111
g7416
S'id'
p7551
tp7552
I2
s(g725
g726
g43
tp7553
I540
s(g35
S'integer'
p7554
g1424
tp7555
I17
s(S'nil'
p7556
S'<='
p7557
S'for'
p7558
tp7559
I16
s(S'then'
p7560
S'id'
p7561
S':='
p7562
tp7563
I16
s(S'>='
p7564
g6548
g6549
tp7565
I2
s(g151
S'break'
p7566
g19
tp7567
I1
s(S'break'
p7568
S'>='
p7569
S'nil'
p7570
tp7571
I17
s(S'!='
p7572
S'id'
p7573
g151
tp7574
I3
s(g5566
g1476
g1133
tp7575
I11
s(g151
S'nil'
p7576
S'!='
p7577
tp7578
I2
s(g9
g6279
g6280
tp7579
I153
s(S':='
p7580
S'id'
p7581
S'to'
p7582
tp7583
I255
s(g43
S'integer'
p7584
g10
tp7585
I6
s(S'nil'
p7586
g111
g35
tp7587
I1
s(g79
S'string'
p7588
g97
tp7589
I2
s(g888
S'integer'
p7590
S'then'
p7591
tp7592
I22
s(g1
g40
g9
tp7593
I146
s(g132
S'nil'
p7594
g10
tp7595
I1
s(g43
g2652
g2653
tp7596
I1
s(S'end'
p7597
g111
g19
tp7598
I1
s(g7554
g1424
g1425
tp7599
I62
s(S'integer'
p7600
g789
g790
tp7601
I129
s(g10
S'break'
p7602
g43
tp7603
I1
s(S'integer'
p7604
g99
g19
tp7605
I1
s(S'string'
p7606
g7237
g7238
tp7607
I12
s(g137
g13
g14
tp7608
I11
s(g43
g22
g3853
tp7609
I26
s(S'nil'
p7610
g5625
g5626
tp7611
I81
s(g19
g3738
S'for'
p7612
tp7613
I9
s(g1
S'nil'
p7614
g22
tp7615
I8
s(S'integer'
p7616
g111
g58
tp7617
I2
s(g151
g110
g111
tp7618
I8
s(g58
g6675
g6961
tp7619
I16
s(g9
S'to'
p7620
S'if'
p7621
tp7622
I55
s(g1030
g1031
g5566
tp7623
I261
s(g1772
g10
S'while'
p7624
tp7625
I17
s(g1
S'string'
p7626
S'function'
p7627
tp7628
I2
s(S'>='
p7629
S'integer'
p7630
S'to'
p7631
tp7632
I19
s(g4754
g1097
g1098
tp7633
I71
s(g9
g43
g2649
tp7634
I133
s(S':='
p7635
g4894
g132
tp7636
I21
s(g6391
g5570
g5571
tp7637
I23
s(g236
g22
g5429
tp7638
I18
s(g58
S'nil'
p7639
g43
tp7640
I8
s(g1844
S'if'
p7641
S'let'
p7642
tp7643
I5
s(g9
g1
g7329
tp7644
I23
s(S'while'
p7645
g1172
g1
tp7646
I16
s(g22
S'if'
p7647
S'let'
p7648
tp7649
I62
s(g22
g1089
g3506
tp7650
I3
s(g22
g4220
g3705
tp7651
I2
s(S'end'
p7652
g10
S'nil'
p7653
tp7654
I11
s(S'do'
p7655
g2228
g19
tp7656
I37
s(g22
S'id'
p7657
g79
tp7658
I5
s(g19
S'string'
p7659
g1
tp7660
I9
s(g132
S'integer'
p7661
g1
tp7662
I1
s(S'string'
p7663
g111
S'in'
p7664
tp7665
I1
s(g43
S'integer'
p7666
S'then'
p7667
tp7668
I18
s(g9
g4606
S'id'
p7669
tp7670
I30
s(S'id'
p7671
g4926
g22
tp7672
I558
s(S'>='
p7673
g22
S'while'
p7674
tp7675
I11
s(S'do'
p7676
g5636
g5637
tp7677
I24
s(S'while'
p7678
S'if'
p7679
g40
tp7680
I7
s(g320
S'id'
p7681
g111
tp7682
I1
s(g1
S'while'
p7683
S'break'
p7684
tp7685
I15
s(g10
g40
g9
tp7686
I115
s(g22
g1263
g1410
tp7687
I119
s(g132
S'string'
p7688
g97
tp7689
I4
s(g7426
g99
g97
tp7690
I1
s(S'id'
p7691
g6527
g6528
tp7692
I2
s(g1527
g1528
S'if'
p7693
tp7694
I11
s(g7498
g111
g1
tp7695
I1
s(g40
g9
g42
tp7696
I1
s(S'end'
p7697
S'!='
p7698
S'integer'
p7699
tp7700
I20
s(g58
S'string'
p7701
g1
tp7702
I4
s(S'to'
p7703
S'string'
p7704
g19
tp7705
I15
s(g43
S'string'
p7706
S'function'
p7707
tp7708
I9
s(S':='
p7709
S'id'
p7710
g317
tp7711
I16
s(S'then'
p7712
S'nil'
p7713
S'do'
p7714
tp7715
I120
s(g9
S'!='
p7716
S'break'
p7717
tp7718
I22
s(g99
g2351
S'let'
p7719
tp7720
I1
s(g99
g1
S'while'
p7721
tp7722
I1
s(S'then'
p7723
S'integer'
p7724
g10
tp7725
I9
s(g10
S'string'
p7726
g43
tp7727
I2
s(S'while'
p7728
S'id'
p7729
g43
tp7730
I6
s(S'end'
p7731
S'else'
p7732
g22
tp7733
I4
s(S'then'
p7734
S'id'
p7735
g317
tp7736
I11
s(S'end'
p7737
g111
g5894
tp7738
I6
s(g22
S'string'
p7739
g97
tp7740
I2
s(S'id'
p7741
g35
g411
tp7742
I20
s(S'end'
p7743
S'type'
p7744
S'string'
p7745
tp7746
I4
s(g58
S'integer'
p7747
S'>='
p7748
tp7749
I4
s(g484
S'then'
p7750
S'for'
p7751
tp7752
I53
s(g9
g2214
g2215
tp7753
I5
s(S'nil'
p7754
g43
S'for'
p7755
tp7756
I16
s(S'>='
p7757
S'integer'
p7758
S'var'
p7759
tp7760
I2
s(g111
g2628
g2629
tp7761
I3
s(S'do'
p7762
g22
S'integer'
p7763
tp7764
I78
s(S':='
p7765
S'break'
p7766
S'type'
p7767
tp7768
I8
s(g58
g646
g43
tp7769
I7
s(g4114
g4115
g19
tp7770
I23
s(g111
g19
S'id'
p7771
tp7772
I1
s(S'string'
p7773
g43
S'nil'
p7774
tp7775
I20
s(g1580
g19
g3960
tp7776
I15
s(S'break'
p7777
g1907
g1908
tp7778
I126
s(g5330
g99
g5327
tp7779
I1
s(g58
S'while'
p7780
S'for'
p7781
tp7782
I10
s(g9
g22
g1779
tp7783
I18
s(g79
S'nil'
p7784
S'in'
p7785
tp7786
I1
s(g10
g5041
g22
tp7787
I7
s(g19
S'if'
p7788
S'if'
p7789
tp7790
I12
s(g2326
g19
g40
tp7791
I12
s(S'!='
p7792
S'break'
p7793
S'var'
p7794
tp7795
I1
s(S'then'
p7796
S'string'
p7797
S'>='
p7798
tp7799
I14
s(g43
g3440
g1
tp7800
I12
s(S'integer'
p7801
S'type'
p7802
S'string'
p7803
tp7804
I7
s(g77
g19
S'while'
p7805
tp7806
I17
s(S':='
p7807
g22
S'string'
p7808
tp7809
I45
s(S'then'
p7810
S'while'
p7811
S'integer'
p7812
tp7813
I47
s(S'>='
p7814
S'id'
p7815
g151
tp7816
I3
s(g1
S'id'
p7817
g99
tp7818
I1
s(S'break'
p7819
g43
S'break'
p7820
tp7821
I10
s(S'nil'
p7822
g99
g1
tp7823
I1
s(g1
S'id'
p7824
g320
tp7825
I2
s(g9
S'>='
p7826
S'string'
p7827
tp7828
I22
s(S'while'
p7829
S'if'
p7830
S'while'
p7831
tp7832
I38
s(g9
g474
g475
tp7833
I74
s(g2520
g5002
S'id'
p7834
tp7835
I59
s(S'id'
p7836
g99
S'>='
p7837
tp7838
I1
s(S'integer'
p7839
g19
S'for'
p7840
tp7841
I21
s(S'>='
p7842
S'id'
p7843
g317
tp7844
I4
s(g2374
g2375
S'integer'
p7845
tp7846
I1
s(g151
g22
S'let'
p7847
tp7848
I2
s(g99
g22
S'let'
p7849
tp7850
I1
s(g3946
g1
S'for'
p7851
tp7852
I19
s(S'if'
p7853
S'while'
p7854
S'if'
p7855
tp7856
I36
s(S'string'
p7857
g19
g6737
tp7858
I23
s(g6195
g43
g3946
tp7859
I17
s(S'>='
p7860
S'break'
p7861
S'>='
p7862
tp7863
I1
s(S'then'
p7864
S'integer'
p7865
g43
tp7866
I22
s(g151
g5660
g111
tp7867
I11
s(S'else'
p7868
S'id'
p7869
S'in'
p7870
tp7871
I2
s(g4020
S'id'
p7872
g40
tp7873
I11
s(g9
g1058
g22
tp7874
I108
s(S'<='
p7875
S'id'
p7876
g151
tp7877
I1
s(g10
S'nil'
p7878
S'<='
p7879
tp7880
I1
s(S'then'
p7881
g22
g40
tp7882
I30
s(S'else'
p7883
S'integer'
p7884
S'to'
p7885
tp7886
I1
s(g19
S'id'
p7887
g97
tp7888
I12
s(g10
S'integer'
p7889
g19
tp7890
I6
s(S'end'
p7891
g43
S'if'
p7892
tp7893
I9
s(g2336
g111
g43
tp7894
I2
s(g22
g5498
g99
tp7895
I3
s(g58
S'string'
p7896
S'>='
p7897
tp7898
I3
s(g35
g3224
S'id'
p7899
tp7900
I121
s(g9
S'<='
p7901
S'break'
p7902
tp7903
I13
s(S'!='
p7904
S'integer'
p7905
g58
tp7906
I6
s(g22
g22
S'string'
p7907
tp7908
I6
s(S'to'
p7909
S'id'
p7910
g1
tp7911
I11
s(S'then'
p7912
S'break'
p7913
g43
tp7914
I13
s(g1208
g132
g6099
tp7915
I14
s(S'end'
p7916
g10
g398
tp7917
I17
s(g22
S'id'
p7918
S'type'
p7919
tp7920
I2
s(S'!='
p7921
S'string'
p7922
S'<='
p7923
tp7924
I2
s(g1
S'break'
p7925
S'>='
p7926
tp7927
I4
s(g40
g9
g5288
tp7928
I1413
s(S'<='
p7929
S'break'
p7930
S'then'
p7931
tp7932
I17
s(g10
S'while'
p7933
S'for'
p7934
tp7935
I9
s(S'end'
p7936
g58
S'if'
p7937
tp7938
I23
s(g4693
g4694
S'for'
p7939
tp7940
I13
s(S'string'
p7941
S'then'
p7942
S'let'
p7943
tp7944
I61
s(g10
g6551
S'function'
p7945
tp7946
I2
s(g10
S'id'
p7947
S'then'
p7948
tp7949
I12
s(g320
S'id'
p7950
g35
tp7951
I6
s(S'break'
p7952
S'<='
p7953
S'for'
p7954
tp7955
I6
s(g211
g35
g4931
tp7956
I8
s(g483
g484
g7750
tp7957
I25
s(g5202
S'while'
p7958
S'integer'
p7959
tp7960
I36
s(S'then'
p7961
S'if'
p7962
S'string'
p7963
tp7964
I43
s(S'else'
p7965
g22
S'string'
p7966
tp7967
I1
s(S'break'
p7968
g99
g19
tp7969
I1
s(S'id'
p7970
g1838
g1839
tp7971
I13
s(g5660
g111
g5548
tp7972
I4
s(g99
S'<='
p7973
S'for'
p7974
tp7975
I1
s(g35
S'string'
p7976
S'do'
p7977
tp7978
I34
s(g9
g99
S'do'
p7979
tp7980
I9
s(g1591
g99
g6457
tp7981
I2
s(g10
g22
S'if'
p7982
tp7983
I13
s(g35
g22
g682
tp7984
I10
s(g35
g6043
S'>='
p7985
tp7986
I6
s(g2033
g22
S'nil'
p7987
tp7988
I12
s(g1315
g1316
S'id'
p7989
tp7990
I100
s(g3773
g6081
g6663
tp7991
I8
s(g19
S'id'
p7992
g35
tp7993
I9
s(g111
g19
S'for'
p7994
tp7995
I1
s(g1072
g19
g2507
tp7996
I31
s(g35
S'string'
p7997
S'type'
p7998
tp7999
I1
s(g35
g22
g956
tp8000
I10
s(S'<='
p8001
S'integer'
p8002
S'else'
p8003
tp8004
I3
s(g2927
S'then'
p8005
S'if'
p8006
tp8007
I52
s(S'then'
p8008
S'id'
p8009
g35
tp8010
I13
s(g35
S'nil'
p8011
S'>='
p8012
tp8013
I9
s(S'break'
p8014
g43
g1915
tp8015
I18
s(g1
S'id'
p8016
g97
tp8017
I9
s(g43
S'while'
p8018
S'if'
p8019
tp8020
I27
s(S'break'
p8021
S'then'
p8022
S'if'
p8023
tp8024
I52
s(S'string'
p8025
g1623
g1624
tp8026
I17
s(g22
S'string'
p8027
g111
tp8028
I1
s(g411
g35
g1548
tp8029
I19
s(g22
g4274
g151
tp8030
I23
s(g4794
g4052
g4053
tp8031
I16
s(g43
S'nil'
p8032
S'do'
p8033
tp8034
I46
s(g4407
S'nil'
p8035
S'then'
p8036
tp8037
I19
s(S':='
p8038
S'integer'
p8039
S'in'
p8040
tp8041
I74
s(g1
g7198
g22
tp8042
I8
s(S'<='
p8043
g22
S'for'
p8044
tp8045
I11
s(g980
g981
g761
tp8046
I14
s(S'then'
p8047
g5138
g10
tp8048
I14
s(g1
g240
g99
tp8049
I2
s(g35
g363
g35
tp8050
I4
s(S'end'
p8051
g35
g40
tp8052
I22
s(S'while'
p8053
S'id'
p8054
g40
tp8055
I6
s(g9
g19
S'nil'
p8056
tp8057
I13
s(g22
g1943
S'function'
p8058
tp8059
I3
s(g43
g1964
g132
tp8060
I8
s(g1
S'string'
p8061
S'>='
p8062
tp8063
I3
s(g3285
g3286
S'var'
p8064
tp8065
I120
s(g1
S'nil'
p8066
g97
tp8067
I9
s(g58
g22
S'nil'
p8068
tp8069
I10
s(S'!='
p8070
g1336
g1337
tp8071
I9
s(g3936
g35
g883
tp8072
I15
s(g35
S'string'
p8073
g111
tp8074
I1
s(g22
S'nil'
p8075
g3330
tp8076
I14
s(g22
S'if'
p8077
g40
tp8078
I12
s(g5380
g19
S'if'
p8079
tp8080
I16
s(g1241
g1242
S'let'
p8081
tp8082
I3
s(g534
g22
g1996
tp8083
I27
s(g99
g863
S'break'
p8084
tp8085
I3
s(S'integer'
p8086
g35
S'string'
p8087
tp8088
I18
s(g43
g5818
g4530
tp8089
I21
s(g99
g35
S'break'
p8090
tp8091
I4
s(g35
S'while'
p8092
S'integer'
p8093
tp8094
I11
s(g1567
g22
g5989
tp8095
I22
s(S'end'
p8096
g22
g22
tp8097
I16
s(S'if'
p8098
g1417
g1
tp8099
I16
s(g9
g111
g79
tp8100
I1
s(g99
g5870
S'string'
p8101
tp8102
I1
s(g1
g22
S'if'
p8103
tp8104
I12
s(S'!='
p8105
S'if'
p8106
S'nil'
p8107
tp8108
I9
s(S'id'
p8109
g19
g2680
tp8110
I17
s(g22
S'integer'
p8111
g1
tp8112
I31
s(S'if'
p8113
g22
S'if'
p8114
tp8115
I2
s(g43
S'string'
p8116
g58
tp8117
I9
s(g4299
g99
g58
tp8118
I2
s(g2961
g4724
g4725
tp8119
I118
s(S'nil'
p8120
g19
g3421
tp8121
I22
s(g9
g5148
g5149
tp8122
I21
s(g19
g4861
g10
tp8123
I7
s(S'nil'
p8124
g5939
g5940
tp8125
I6
s(g58
S'nil'
p8126
S'then'
p8127
tp8128
I11
s(S'while'
p8129
S'id'
p8130
g58
tp8131
I9
s(S'>='
p8132
S'id'
p8133
g19
tp8134
I5
s(g43
S'id'
p8135
g22
tp8136
I6
s(S'to'
p8137
S'integer'
p8138
g1
tp8139
I16
s(g10
S'break'
p8140
g58
tp8141
I4
s(g1328
g1329
S'id'
p8142
tp8143
I25
s(S'nil'
p8144
S'>='
p8145
S'while'
p8146
tp8147
I11
s(g6411
g111
g320
tp8148
I3
s(S'break'
p8149
g6933
g6934
tp8150
I3
s(g10
g1403
S'integer'
p8151
tp8152
I11
s(g58
g2593
g2594
tp8153
I5
s(g9
g10
g5243
tp8154
I22
s(S'then'
p8155
S'nil'
p8156
g111
tp8157
I1
s(g3881
g3882
S'for'
p8158
tp8159
I109
s(g1
S'nil'
p8160
g58
tp8161
I5
s(S'do'
p8162
S'while'
p8163
g40
tp8164
I79
s(g19
g7805
S'nil'
p8165
tp8166
I12
s(g132
S'integer'
p8167
S'do'
p8168
tp8169
I12
s(g19
g8113
g22
tp8170
I16
s(g6368
g19
g3565
tp8171
I3
s(S'do'
p8172
g4307
g10
tp8173
I30
s(S'!='
p8174
S'string'
p8175
g10
tp8176
I3
s(S'nil'
p8177
g556
g557
tp8178
I25
s(S'string'
p8179
S'<='
p8180
S'id'
p8181
tp8182
I7
s(g3612
g3613
g22
tp8183
I17
s(g40
g9
g654
tp8184
I684
s(g58
S'nil'
p8185
g35
tp8186
I5
s(S'if'
p8187
S'id'
p8188
g1
tp8189
I18
s(S'do'
p8190
S'while'
p8191
S'string'
p8192
tp8193
I71
s(g2321
g2322
g35
tp8194
I22
s(g58
S'let'
p8195
S'function'
p8196
tp8197
I36
s(g43
S'id'
p8198
g320
tp8199
I8
s(g216
g217
g2398
tp8200
I12
s(g10
S'string'
p8201
g3982
tp8202
I2
s(g1
g2218
g5398
tp8203
I33
s(g22
S'break'
p8204
S'<='
p8205
tp8206
I20
s(S'integer'
p8207
g19
S'let'
p8208
tp8209
I16
s(g5750
g35
S'let'
p8210
tp8211
I14
s(g4008
g4009
g7502
tp8212
I476
s(S'<='
p8213
S'if'
p8214
S'id'
p8215
tp8216
I10
s(S'integer'
p8217
S'<='
p8218
S'let'
p8219
tp8220
I17
s(g116
g111
g7369
tp8221
I1
s(g6761
g10
g22
tp8222
I3
s(g9
g4888
g118
tp8223
I345
s(g43
S'break'
p8224
g111
tp8225
I1
s(S'end'
p8226
S'>='
p8227
S'string'
p8228
tp8229
I23
s(g1
g3460
g22
tp8230
I16
s(g396
g19
S'id'
p8231
tp8232
I15
s(g1
S'string'
p8233
S'do'
p8234
tp8235
I27
s(S'id'
p8236
g22
S'let'
p8237
tp8238
I20
s(g1002
g1003
S'let'
p8239
tp8240
I6
s(g9
S'>='
p8241
S'nil'
p8242
tp8243
I16
s(g99
S'then'
p8244
g22
tp8245
I1
s(g7732
g22
S'if'
p8246
tp8247
I2
s(S'then'
p8248
S'if'
p8249
g3569
tp8250
I34
s(g111
g35
S'let'
p8251
tp8252
I1
s(S'do'
p8253
g4218
g99
tp8254
I1
s(g5250
g4229
g40
tp8255
I42
s(S'string'
p8256
g99
g22
tp8257
I1
s(S'end'
p8258
g10
S'while'
p8259
tp8260
I18
s(g6814
g6815
S'nil'
p8261
tp8262
I4
s(g3041
g4678
S'id'
p8263
tp8264
I133
s(S'if'
p8265
S'integer'
p8266
g10
tp8267
I12
s(g1
S'nil'
p8268
g111
tp8269
I1
s(g19
S'id'
p8270
S'type'
p8271
tp8272
I1
s(g4524
g4520
g895
tp8273
I17
s(g43
g1281
g58
tp8274
I7
s(g10
S'id'
p8275
g43
tp8276
I1
s(g9
g22
S'while'
p8277
tp8278
I21
s(S'end'
p8279
g35
S'id'
p8280
tp8281
I13
s(g8180
g8181
g10
tp8282
I3
s(S'break'
p8283
g19
g5395
tp8284
I2
s(g8280
g35
g6820
tp8285
I14
s(g4177
g136
g137
tp8286
I26
s(g9
g35
S'if'
p8287
tp8288
I16
s(g7073
g2009
g2010
tp8289
I99
s(g22
g22
S'if'
p8290
tp8291
I24
s(g22
g1207
g35
tp8292
I19
s(g4358
g6024
S'integer'
p8293
tp8294
I13
s(g43
g2608
g4899
tp8295
I7
s(S'do'
p8296
g5035
g1973
tp8297
I3
s(g1
g6522
g6523
tp8298
I22
s(g22
g7013
g2635
tp8299
I7
s(S'<='
p8300
S'id'
p8301
S'!='
p8302
tp8303
I1
s(g4531
g2557
g40
tp8304
I18
s(g9
g99
g97
tp8305
I1
s(g5316
S'nil'
p8306
g19
tp8307
I1
s(g9
S'else'
p8308
S'let'
p8309
tp8310
I3
s(g132
S'string'
p8311
g19
tp8312
I4
s(S':='
p8313
g22
S'integer'
p8314
tp8315
I60
s(g10
g22
S'string'
p8316
tp8317
I8
s(S'>='
p8318
S'nil'
p8319
g35
tp8320
I5
s(S'break'
p8321
g43
S'while'
p8322
tp8323
I4
s(g2149
g2150
S'do'
p8324
tp8325
I35
s(S'end'
p8326
g1
S'string'
p8327
tp8328
I13
s(S'while'
p8329
S'id'
p8330
g320
tp8331
I7
s(g35
S'integer'
p8332
S'<='
p8333
tp8334
I3
s(g1
g7274
g99
tp8335
I3
s(S'do'
p8336
S'nil'
p8337
g22
tp8338
I39
s(g111
S'to'
p8339
S'id'
p8340
tp8341
I1
s(S'string'
p8342
g979
g980
tp8343
I143
s(g475
g58
g3659
tp8344
I13
s(g22
g6982
S'in'
p8345
tp8346
I30
s(g2824
g2825
S'let'
p8347
tp8348
I3
s(g10
g22
g22
tp8349
I9
s(g58
S'break'
p8350
S'!='
p8351
tp8352
I4
s(g4198
g22
S'string'
p8353
tp8354
I19
s(S'>='
p8355
S'if'
p8356
S'integer'
p8357
tp8358
I18
s(g132
S'string'
p8359
g43
tp8360
I1
s(g22
g5892
g10
tp8361
I21
s(g10
S'break'
p8362
S'function'
p8363
tp8364
I1
s(g22
g8103
S'for'
p8365
tp8366
I10
s(S'string'
p8367
g111
g853
tp8368
I2
s(g1
S'if'
p8369
S'id'
p8370
tp8371
I13
s(g1028
g4069
g4871
tp8372
I1313
s(g58
S'id'
p8373
S':='
p8374
tp8375
I3
s(S'else'
p8376
g22
S'nil'
p8377
tp8378
I2
s(g19
S'break'
p8379
g35
tp8380
I1
s(g22
S'nil'
p8381
S'then'
p8382
tp8383
I93
s(S'string'
p8384
g1
S'let'
p8385
tp8386
I1
s(S'id'
p8387
g35
S'for'
p8388
tp8389
I9
s(g420
g421
S'in'
p8390
tp8391
I8
s(g1205
g6362
g58
tp8392
I15
s(S'!='
p8393
S'break'
p8394
S'else'
p8395
tp8396
I1
s(S'<='
p8397
g2217
g1
tp8398
I4
s(S'integer'
p8399
S'>='
p8400
g40
tp8401
I25
s(g1989
g43
S'break'
p8402
tp8403
I19
s(S'id'
p8404
g43
g22
tp8405
I21
s(g22
g5318
g10
tp8406
I27
s(g1
S'integer'
p8407
S'type'
p8408
tp8409
I1
s(g35
S'nil'
p8410
S'else'
p8411
tp8412
I2
s(g5297
g6466
g3771
tp8413
I58
s(S':='
p8414
S'string'
p8415
g97
tp8416
I1
s(S':='
p8417
g3203
g2423
tp8418
I19
s(g320
g321
g2971
tp8419
I1
s(S'nil'
p8420
g10
g4556
tp8421
I15
s(S'!='
p8422
S'id'
p8423
g111
tp8424
I3
s(S'<='
p8425
g22
S'integer'
p8426
tp8427
I6
s(S'do'
p8428
S'while'
p8429
S'while'
p8430
tp8431
I82
s(S':='
p8432
S'while'
p8433
S'let'
p8434
tp8435
I43
s(g43
g4988
g2028
tp8436
I6
s(g35
S'string'
p8437
g22
tp8438
I11
s(g43
S'integer'
p8439
S'else'
p8440
tp8441
I1
s(g2930
g2931
g5584
tp8442
I3
s(g1554
S'id'
p8443
g132
tp8444
I17
s(S':='
p8445
S'id'
p8446
S'<='
p8447
tp8448
I21
s(S'in'
p8449
g5356
g19
tp8450
I210
s(S'id'
p8451
g151
g2944
tp8452
I12
s(g9
g111
g43
tp8453
I2
s(g132
S'string'
p8454
S'!='
p8455
tp8456
I1
s(g22
g5682
g40
tp8457
I22
s(S'if'
p8458
g482
g483
tp8459
I21
s(g10
S'string'
p8460
S'then'
p8461
tp8462
I19
s(g10
S'break'
p8463
g22
tp8464
I1
s(g9
g19
g1382
tp8465
I22
s(g6613
g4626
g326
tp8466
I107
s(g111
g58
S'nil'
p8467
tp8468
I1
s(g4167
g4168
S'while'
p8469
tp8470
I10
s(S'!='
p8471
S'if'
p8472
S'let'
p8473
tp8474
I8
s(S'do'
p8475
S'id'
p8476
g97
tp8477
I28
s(g79
S'string'
p8478
S'!='
p8479
tp8480
I1
s(g5000
g22
g8381
tp8481
I14
s(g4786
g5790
g58
tp8482
I4
s(g35
S'break'
p8483
g10
tp8484
I3
s(g111
g2516
S'integer'
p8485
tp8486
I1
s(g3033
g35
S'let'
p8487
tp8488
I3
s(g8433
g8434
S'function'
p8489
tp8490
I69
s(S'if'
p8491
S'while'
p8492
S'for'
p8493
tp8494
I39
s(g5246
g5247
S'id'
p8495
tp8496
I26
s(S'do'
p8497
g22
g22
tp8498
I71
s(g35
g3409
g3410
tp8499
I3
s(g2260
g111
g5044
tp8500
I3
s(g9
g2113
g2114
tp8501
I14
s(g6280
g6281
g6725
tp8502
I22
s(g43
S'id'
p8503
S'function'
p8504
tp8505
I4
s(g10
S'nil'
p8506
g22
tp8507
I7
s(S'nil'
p8508
S'<='
p8509
S'if'
p8510
tp8511
I3
s(g22
g22
g8111
tp8512
I66
s(g9
S'!='
p8513
S'for'
p8514
tp8515
I17
s(S'break'
p8516
S'to'
p8517
g22
tp8518
I65
s(g132
S'break'
p8519
g35
tp8520
I1
s(S'nil'
p8521
S'else'
p8522
S'for'
p8523
tp8524
I1
s(g10
g7390
g40
tp8525
I9
s(S'to'
p8526
S'id'
p8527
S'<='
p8528
tp8529
I13
s(g9
S'<='
p8530
S'for'
p8531
tp8532
I19
s(S'string'
p8533
g4814
g4815
tp8534
I3
s(g3388
g22
g22
tp8535
I11
s(S'to'
p8536
S'string'
p8537
S'>='
p8538
tp8539
I11
s(g58
S'if'
p8540
S'while'
p8541
tp8542
I8
s(g9
g5489
g5490
tp8543
I78
s(g6226
S'let'
p8544
S'type'
p8545
tp8546
I244
s(S'!='
p8547
g3080
g99
tp8548
I1
s(g9
g10
S'break'
p8549
tp8550
I21
s(S':='
p8551
S'break'
p8552
g10
tp8553
I23
s(g4115
g19
g2444
tp8554
I20
s(g99
g35
S'for'
p8555
tp8556
I1
s(S'while'
p8557
S'while'
p8558
S'let'
p8559
tp8560
I35
s(g1
g5921
g40
tp8561
I14
s(S'if'
p8562
S'string'
p8563
g58
tp8564
I12
s(g6549
g22
S'let'
p8565
tp8566
I3
s(g953
g954
g10
tp8567
I38
s(S'break'
p8568
S'>='
p8569
S'let'
p8570
tp8571
I6
s(S'end'
p8572
g10
g40
tp8573
I17
s(g1929
g1
g5032
tp8574
I23
s(g22
g7307
g58
tp8575
I8
s(S'break'
p8576
g58
S'let'
p8577
tp8578
I18
s(S'if'
p8579
S'nil'
p8580
S'>='
p8581
tp8582
I8
s(g6214
g6215
g3365
tp8583
I208
s(S'end'
p8584
g19
S'nil'
p8585
tp8586
I17
s(g884
g885
g43
tp8587
I533
s(S'do'
p8588
S'string'
p8589
g43
tp8590
I39
s(g58
g22
S'id'
p8591
tp8592
I9
s(g4571
g58
S'integer'
p8593
tp8594
I12
s(g1704
g22
g2518
tp8595
I87
s(S'then'
p8596
g22
S'let'
p8597
tp8598
I36
s(g7287
S'integer'
p8599
S'do'
p8600
tp8601
I10
s(S'id'
p8602
g1
S'nil'
p8603
tp8604
I9
s(g4976
g4977
g58
tp8605
I13
s(S'end'
p8606
g1
S'break'
p8607
tp8608
I14
s(S'end'
p8609
g35
g1265
tp8610
I10
s(g198
g199
g5054
tp8611
I9
s(g9
S'>='
p8612
g40
tp8613
I15
s(g1685
g1686
g40
tp8614
I58
s(g289
g40
g9
tp8615
I433
s(g3651
g3652
g4046
tp8616
I67
s(S'!='
p8617
S'id'
p8618
S'to'
p8619
tp8620
I17
s(S'<='
p8621
S'while'
p8622
S'break'
p8623
tp8624
I6
s(g877
g878
g1984
tp8625
I129
s(g10
S'integer'
p8626
g58
tp8627
I5
s(S'string'
p8628
g1
g826
tp8629
I18
s(g2473
g3379
S'while'
p8630
tp8631
I73
s(g111
g10
g22
tp8632
I1
s(g646
g43
S'let'
p8633
tp8634
I19
s(S'!='
p8635
S'let'
p8636
S'type'
p8637
tp8638
I32
s(g9
g99
S'to'
p8639
tp8640
I1
s(g294
g295
S'for'
p8641
tp8642
I35
s(g43
S'integer'
p8643
S'function'
p8644
tp8645
I9
s(g132
S'break'
p8646
g10
tp8647
I3
s(g5831
g5684
g4415
tp8648
I65
s(g1
g22
g5204
tp8649
I15
s(g43
g219
g6712
tp8650
I20
s(S':='
p8651
S'while'
p8652
S'for'
p8653
tp8654
I52
s(g19
S'while'
p8655
S'while'
p8656
tp8657
I13
s(g1
S'break'
p8658
S'<='
p8659
tp8660
I1
s(g19
S'nil'
p8661
S'to'
p8662
tp8663
I11
s(g5571
g5572
S'string'
p8664
tp8665
I9
s(S'then'
p8666
S'nil'
p8667
S'to'
p8668
tp8669
I45
s(g10
g8259
S'while'
p8670
tp8671
I14
s(S'do'
p8672
S'while'
p8673
g5112
tp8674
I71
s(g267
g3893
g3894
tp8675
I13
s(g79
S'string'
p8676
g35
tp8677
I2
s(g79
S'string'
p8678
S'to'
p8679
tp8680
I7
s(S'end'
p8681
g7118
g5863
tp8682
I50
s(S'then'
p8683
g3695
g10
tp8684
I24
s(g1
S'integer'
p8685
S'!='
p8686
tp8687
I3
s(S'integer'
p8688
g35
S'nil'
p8689
tp8690
I20
s(g111
S'then'
p8691
S'integer'
p8692
tp8693
I2
s(S'string'
p8694
g43
g22
tp8695
I14
s(g19
S'nil'
p8696
g19
tp8697
I2
s(S'then'
p8698
S'if'
p8699
g40
tp8700
I34
s(S':='
p8701
g22
S'nil'
p8702
tp8703
I50
s(g43
g2383
g43
tp8704
I8
s(g2507
g2508
g7396
tp8705
I3
s(S'id'
p8706
g8070
g1336
tp8707
I13
s(g58
g7937
S'for'
p8708
tp8709
I7
s(g7339
g22
g3134
tp8710
I31
s(g9
g2554
g2555
tp8711
I5
s(S'id'
p8712
g1
g3175
tp8713
I14
s(g43
g22
g6413
tp8714
I19
s(S'nil'
p8715
S'then'
p8716
g22
tp8717
I58
s(g22
g8420
g10
tp8718
I23
s(g43
g4956
g111
tp8719
I1
s(g58
S'id'
p8720
g99
tp8721
I1
s(g35
g8487
S'var'
p8722
tp8723
I33
s(g719
g925
g1
tp8724
I191
s(g1962
g22
g7211
tp8725
I6
s(S'end'
p8726
S'<='
p8727
S'id'
p8728
tp8729
I14
s(g43
g8402
S'do'
p8730
tp8731
I30
s(S'<='
p8732
S'while'
p8733
S'while'
p8734
tp8735
I6
s(g43
g3316
g3317
tp8736
I17
s(g35
g4666
g4667
tp8737
I6
s(S'integer'
p8738
g1
g2298
tp8739
I12
s(g7942
g7943
S'in'
p8740
tp8741
I118
s(S':='
p8742
g3351
g58
tp8743
I26
s(g4106
g10
g40
tp8744
I25
s(g4216
g10
g2311
tp8745
I2
s(S'else'
p8746
S'if'
p8747
S'if'
p8748
tp8749
I2
s(g5848
g1340
g1341
tp8750
I59
s(g111
S'do'
p8751
g40
tp8752
I2
s(S'integer'
p8753
g10
g40
tp8754
I13
s(S'integer'
p8755
g99
S'then'
p8756
tp8757
I3
s(g2296
g43
g2178
tp8758
I20
s(g1098
g1
g22
tp8759
I17
s(g2638
g2639
S'if'
p8760
tp8761
I8
s(g111
g728
g729
tp8762
I1
s(S'string'
p8763
g35
S'let'
p8764
tp8765
I5
s(g151
S'while'
p8766
g40
tp8767
I1
s(S'end'
p8768
g35
S'nil'
p8769
tp8770
I23
s(g4633
S'let'
p8771
S'type'
p8772
tp8773
I130
s(S'end'
p8774
g1314
g1315
tp8775
I113
s(S'id'
p8776
S'then'
p8777
S'while'
p8778
tp8779
I40
s(S'if'
p8780
g2366
g22
tp8781
I7
s(g2232
g3005
S'to'
p8782
tp8783
I14
s(g7366
g99
g7176
tp8784
I3
s(g7135
g7136
S'to'
p8785
tp8786
I22
s(S'!='
p8787
S'id'
p8788
g10
tp8789
I4
s(S'nil'
p8790
S'to'
p8791
g22
tp8792
I54
s(g5797
g10
g7933
tp8793
I10
s(S'end'
p8794
g4839
g4840
tp8795
I62
s(g4030
g2977
g2978
tp8796
I4
s(g4333
g4353
S'break'
p8797
tp8798
I134
s(g43
g699
S'nil'
p8799
tp8800
I19
s(g111
g43
g22
tp8801
I2
s(g8268
g111
g10
tp8802
I1
s(S'!='
p8803
S'integer'
p8804
S'>='
p8805
tp8806
I1
s(g1
S'id'
p8807
g19
tp8808
I6
s(S':='
p8809
g5607
g447
tp8810
I59
s(S'while'
p8811
S'id'
p8812
g79
tp8813
I11
s(S'to'
p8814
g751
g35
tp8815
I13
s(S'break'
p8816
g43
S'for'
p8817
tp8818
I17
s(S'do'
p8819
g6105
g1
tp8820
I17
s(S'id'
p8821
g58
g40
tp8822
I15
s(g10
g1521
g701
tp8823
I12
s(g35
g22
g40
tp8824
I13
s(S'then'
p8825
S'break'
p8826
g1
tp8827
I19
s(g2495
g10
g4147
tp8828
I14
s(S'else'
p8829
S'break'
p8830
g97
tp8831
I1
s(S'end'
p8832
g19
g873
tp8833
I17
s(g40
g9
g97
tp8834
I2
s(S'!='
p8835
g22
g40
tp8836
I13
s(g9
S'then'
p8837
S'id'
p8838
tp8839
I68
s(S'nil'
p8840
g99
S'then'
p8841
tp8842
I5
s(S'id'
p8843
g22
S'break'
p8844
tp8845
I13
s(g99
g6298
S'string'
p8846
tp8847
I4
s(S':='
p8848
S'if'
p8849
S'break'
p8850
tp8851
I58
s(g99
g6923
S'string'
p8852
tp8853
I1
s(S'else'
p8854
S'break'
p8855
g19
tp8856
I1
s(g2619
g22
S'string'
p8857
tp8858
I22
s(g58
g7341
g501
tp8859
I5
s(g1
S'nil'
p8860
S'<='
p8861
tp8862
I1
s(g99
g22
S'string'
p8863
tp8864
I3
s(g151
S'string'
p8865
g1
tp8866
I1
s(S'if'
p8867
S'if'
p8868
S'if'
p8869
tp8870
I12
s(g2204
g2937
g2938
tp8871
I69
s(g4948
g4949
g58
tp8872
I5
s(S'string'
p8873
g99
g35
tp8874
I1
s(g10
S'nil'
p8875
g58
tp8876
I2
s(S'then'
p8877
S'break'
p8878
g4934
tp8879
I13
s(S'id'
p8880
S'<='
p8881
g2574
tp8882
I1
s(g1
S'string'
p8883
S'<='
p8884
tp8885
I3
s(g944
g1184
g1185
tp8886
I20
s(S'break'
p8887
S'>='
p8888
g22
tp8889
I16
s(g43
g6484
g5836
tp8890
I12
s(S'string'
p8891
g99
g959
tp8892
I1
s(g151
g22
S'if'
p8893
tp8894
I1
s(g1889
g58
g7780
tp8895
I17
s(g151
S'id'
p8896
g151
tp8897
I1
s(S'nil'
p8898
g58
g2242
tp8899
I16
s(g22
g2924
g4658
tp8900
I3
s(g58
S'let'
p8901
S'type'
p8902
tp8903
I37
s(g850
g851
S'integer'
p8904
tp8905
I10
s(S'!='
p8906
S'string'
p8907
g1
tp8908
I2
s(g19
S'while'
p8909
S'if'
p8910
tp8911
I14
s(g8461
S'id'
p8912
g1
tp8913
I12
s(g5704
g58
g5901
tp8914
I6
s(g9
g58
g22
tp8915
I15
s(g9
g5545
g5546
tp8916
I16
s(g505
g1
g22
tp8917
I6
s(S':='
p8918
S'while'
p8919
g40
tp8920
I42
s(g132
S'integer'
p8921
S'!='
p8922
tp8923
I1
s(g43
S'break'
p8924
S'else'
p8925
tp8926
I2
s(g35
S'id'
p8927
S'in'
p8928
tp8929
I8
s(g1
S'integer'
p8930
g97
tp8931
I7
s(S'break'
p8932
g35
g8437
tp8933
I22
s(S'do'
p8934
S'nil'
p8935
S'else'
p8936
tp8937
I3
s(S'nil'
p8938
g1
S'nil'
p8939
tp8940
I1
s(S'do'
p8941
S'integer'
p8942
g99
tp8943
I4
s(S'end'
p8944
S'<='
p8945
S'string'
p8946
tp8947
I20
s(S'to'
p8948
S'id'
p8949
g22
tp8950
I10
s(g35
g8280
g35
tp8951
I3
s(g22
S'id'
p8952
g4522
tp8953
I35
s(S'!='
p8954
S'id'
p8955
g22
tp8956
I4
s(g736
g58
S'if'
p8957
tp8958
I2
s(S':='
p8959
S'integer'
p8960
S'<='
p8961
tp8962
I26
s(g22
S'integer'
p8963
g97
tp8964
I3
s(g629
g111
g58
tp8965
I1
s(g6878
g19
S'string'
p8966
tp8967
I24
s(g9
g22
S'for'
p8968
tp8969
I21
s(g58
g3328
g58
tp8970
I6
s(S'string'
p8971
g99
g7528
tp8972
I2
s(S'then'
p8973
S'string'
p8974
g58
tp8975
I17
s(S'end'
p8976
g4435
g4436
tp8977
I3
s(g111
S'then'
p8978
S'while'
p8979
tp8980
I1
s(g2343
g22
S'integer'
p8981
tp8982
I6
s(g58
g2022
g1928
tp8983
I24
s(g79
S'break'
p8984
g97
tp8985
I4
s(g43
S'while'
p8986
S'integer'
p8987
tp8988
I25
s(S'break'
p8989
S'!='
p8990
g22
tp8991
I16
s(S'integer'
p8992
g10
g22
tp8993
I17
s(g22
g8314
S'in'
p8994
tp8995
I43
s(g3135
g6937
S'id'
p8996
tp8997
I366
s(g22
g2367
g43
tp8998
I2
s(g1257
g1
S'for'
p8999
tp9000
I1
s(g5398
g22
g4992
tp9001
I71
s(g320
S'id'
p9002
g6358
tp9003
I11
s(g132
g5643
S'do'
p9004
tp9005
I5
s(g79
S'integer'
p9006
g97
tp9007
I3
s(g111
S':='
p9008
g22
tp9009
I1
s(S'id'
p9010
g1
S'for'
p9011
tp9012
I18
s(S'end'
p9013
g1
g1757
tp9014
I15
s(g8569
g8570
S'var'
p9015
tp9016
I31
s(S'then'
p9017
S'nil'
p9018
g19
tp9019
I19
s(g22
g7457
g58
tp9020
I26
s(g6019
g1
g7824
tp9021
I1
s(g1
S'integer'
p9022
g43
tp9023
I1
s(g365
g366
S'while'
p9024
tp9025
I7
s(g1
g22
g22
tp9026
I7
s(S'id'
p9027
g99
S'then'
p9028
tp9029
I2
s(g1994
g1
g3258
tp9030
I16
s(g654
g655
g43
tp9031
I16
s(S'then'
p9032
S'integer'
p9033
S'>='
p9034
tp9035
I19
s(g151
S'while'
p9036
S'integer'
p9037
tp9038
I2
s(g22
S'break'
p9039
g22
tp9040
I23
s(S'integer'
p9041
g1
S'if'
p9042
tp9043
I14
s(S'!='
p9044
S'id'
p9045
S'then'
p9046
tp9047
I16
s(g43
g7604
g99
tp9048
I17
s(g10
S'integer'
p9049
g1
tp9050
I3
s(g19
g5714
S'then'
p9051
tp9052
I20
s(S'end'
p9053
g1613
g1614
tp9054
I121
s(g19
g8521
g8522
tp9055
I1
s(S'then'
p9056
S'nil'
p9057
S'>='
p9058
tp9059
I25
s(g22
S'id'
p9060
S'var'
p9061
tp9062
I3
s(S'nil'
p9063
g99
g35
tp9064
I1
s(S'id'
p9065
g10
g40
tp9066
I10
s(g40
g9
g19
tp9067
I19
s(g5442
g1091
g43
tp9068
I539
s(S'string'
p9069
S'else'
p9070
g40
tp9071
I4
s(g9
g43
g22
tp9072
I167
s(g19
S'nil'
p9073
S'function'
p9074
tp9075
I1
s(S'>='
p9076
S'nil'
p9077
S'else'
p9078
tp9079
I2
s(g8142
g7580
g7581
tp9080
I646
s(g19
g5267
g43
tp9081
I5
s(g5654
g5655
S'>='
p9082
tp9083
I37
s(S'id'
p9084
g2994
g2995
tp9085
I1
s(g1363
g1364
g22
tp9086
I16
s(g5778
g22
g1397
tp9087
I48
s(g3979
g1
S'let'
p9088
tp9089
I17
s(g111
g22
S'id'
p9090
tp9091
I1
s(S'while'
p9092
g8992
g10
tp9093
I4
s(g35
S'break'
p9094
S'type'
p9095
tp9096
I1
s(g19
g3198
S'do'
p9097
tp9098
I25
s(g3894
g3895
g4513
tp9099
I70
s(S'>='
p9100
S'break'
p9101
S'<='
p9102
tp9103
I3
s(S'>='
p9104
S'integer'
p9105
S'type'
p9106
tp9107
I1
s(g19
S'id'
p9108
g903
tp9109
I4
s(g6096
g4399
g4400
tp9110
I13
s(S'if'
p9111
S'id'
p9112
g43
tp9113
I11
s(g79
S'break'
p9114
g58
tp9115
I2
s(S'while'
p9116
g625
g626
tp9117
I14
s(S'to'
p9118
S'nil'
p9119
g408
tp9120
I16
s(g9082
g22
S'let'
p9121
tp9122
I9
s(g3142
S'string'
p9123
g58
tp9124
I7
s(S'nil'
p9125
g99
g19
tp9126
I2
s(g1
g6353
g3182
tp9127
I17
s(g58
S'string'
p9128
g6118
tp9129
I7
s(g99
g10
g103
tp9130
I1
s(g2590
g2591
g4693
tp9131
I17
s(g1528
g7693
g4687
tp9132
I22
s(g6702
g35
S'let'
p9133
tp9134
I12
s(g43
S'id'
p9135
g99
tp9136
I9
s(g7075
S'break'
p9137
S'do'
p9138
tp9139
I1
s(g9
g10
g6976
tp9140
I18
s(g58
S'break'
p9141
g1274
tp9142
I1
s(g4848
g4849
g6480
tp9143
I144
s(g10
S'id'
p9144
S':='
p9145
tp9146
I3
s(g2586
g2587
g1842
tp9147
I18
s(S'while'
p9148
S'while'
p9149
S'break'
p9150
tp9151
I10
s(S'do'
p9152
S'id'
p9153
g8635
tp9154
I35
s(g43
g5713
g19
tp9155
I10
s(S'!='
p9156
S'break'
p9157
S'!='
p9158
tp9159
I3
s(g58
S'break'
p9160
S'var'
p9161
tp9162
I3
s(S'to'
p9163
g8086
g35
tp9164
I17
s(S':='
p9165
g7150
g7151
tp9166
I4
s(S'!='
p9167
S'id'
p9168
S'in'
p9169
tp9170
I4
s(S'in'
p9171
g2433
g58
tp9172
I213
s(g58
g8593
g8973
tp9173
I15
s(S'nil'
p9174
S'>='
p9175
S'for'
p9176
tp9177
I4
s(g3366
g40
g9
tp9178
I43
s(g1
g22
S'for'
p9179
tp9180
I9
s(g99
g241
g40
tp9181
I3
s(S'nil'
p9182
g7810
g7811
tp9183
I54
s(S':='
p9184
g8384
g1
tp9185
I20
s(g3961
g5681
g22
tp9186
I3
s(g22
g7568
g7569
tp9187
I9
s(g4696
g43
S'nil'
p9188
tp9189
I6
s(g111
g151
S'for'
p9190
tp9191
I1
s(g6081
g6663
g4029
tp9192
I129
s(g10
g5139
g40
tp9193
I11
s(g132
S'nil'
p9194
S'in'
p9195
tp9196
I2
s(g35
g6056
g1486
tp9197
I2
s(g58
S'integer'
p9198
g22
tp9199
I5
s(g4674
g5890
g8342
tp9200
I148
s(S'do'
p9201
g7289
g7290
tp9202
I68
s(S'!='
p9203
S'nil'
p9204
g97
tp9205
I4
s(S'nil'
p9206
S'to'
p9207
S'break'
p9208
tp9209
I68
s(g8402
g8730
g40
tp9210
I143
s(g1
S'nil'
p9211
S'function'
p9212
tp9213
I1
s(S'string'
p9214
S'>='
p9215
g40
tp9216
I14
s(g35
g40
g9
tp9217
I155
s(g1
g2260
g111
tp9218
I2
s(g4890
S'to'
p9219
S'let'
p9220
tp9221
I75
s(S'integer'
p9222
g99
S'in'
p9223
tp9224
I1
s(S':='
p9225
S'string'
p9226
S'var'
p9227
tp9228
I7
s(S'break'
p9229
g4349
g4350
tp9230
I4
s(g454
g5231
g3032
tp9231
I20
s(g8667
g8668
S'while'
p9232
tp9233
I49
s(S'integer'
p9234
S'to'
p9235
g22
tp9236
I69
s(g9
g19
g2673
tp9237
I19
s(g9
g19
S'let'
p9238
tp9239
I22
s(g151
g22
S'break'
p9240
tp9241
I5
s(g5574
g8867
g8868
tp9242
I58
s(g22
g1708
g19
tp9243
I28
s(g19
g40
g9
tp9244
I112
s(g2157
g2158
g40
tp9245
I1
s(g19
S'id'
p9246
g19
tp9247
I5
s(S'id'
p9248
S'to'
p9249
S'nil'
p9250
tp9251
I56
s(g7219
g8109
g19
tp9252
I11
s(g5787
S'id'
p9253
g132
tp9254
I6
s(S':='
p9255
S'if'
p9256
S'let'
p9257
tp9258
I48
s(g151
g22
g22
tp9259
I2
s(S'else'
p9260
S'break'
p9261
S'!='
p9262
tp9263
I1
s(g22
S'break'
p9264
S'var'
p9265
tp9266
I6
s(g5278
g35
S'string'
p9267
tp9268
I26
s(g146
g22
g40
tp9269
I3
s(g7542
g43
g8116
tp9270
I14
s(g43
g234
g235
tp9271
I79
s(S'string'
p9272
S'>='
p9273
S'string'
p9274
tp9275
I5
s(S'then'
p9276
S'nil'
p9277
S'function'
p9278
tp9279
I2
s(g5321
g35
g2190
tp9280
I10
s(g4918
g19
S'while'
p9281
tp9282
I8
s(g19
S'if'
p9283
g40
tp9284
I15
s(g4274
g151
S'integer'
p9285
tp9286
I4
s(g10
g5319
S'while'
p9287
tp9288
I10
s(g111
g5515
S'id'
p9289
tp9290
I1
s(S'nil'
p9291
g22
g9039
tp9292
I14
s(g10
S'while'
p9293
g22
tp9294
I8
s(S'to'
p9295
g669
g670
tp9296
I20
s(g35
S'break'
p9297
S'!='
p9298
tp9299
I2
s(g43
S'string'
p9300
g19
tp9301
I7
s(g4196
g58
S'integer'
p9302
tp9303
I21
s(S'>='
p9304
S'string'
p9305
g43
tp9306
I1
s(g4993
S'do'
p9307
S'for'
p9308
tp9309
I102
s(S'break'
p9310
g3406
g22
tp9311
I5
s(g43
S'nil'
p9312
S'type'
p9313
tp9314
I3
s(g1
S'while'
p9315
S'nil'
p9316
tp9317
I9
s(S'integer'
p9318
S'else'
p9319
S'let'
p9320
tp9321
I5
s(S':='
p9322
S'let'
p9323
S'var'
p9324
tp9325
I123
s(g4353
g8797
g6984
tp9326
I207
s(S'to'
p9327
S'id'
p9328
S'>='
p9329
tp9330
I10
s(g10
S'if'
p9331
S'for'
p9332
tp9333
I14
s(g8259
g8670
S'string'
p9334
tp9335
I7
s(S'end'
p9336
g99
g1439
tp9337
I8
s(S'integer'
p9338
S'to'
p9339
g40
tp9340
I65
s(g5216
g1
g6353
tp9341
I23
s(g58
S'if'
p9342
g40
tp9343
I10
s(g4296
g111
g6886
tp9344
I1
s(g35
S'break'
p9345
g19
tp9346
I3
s(S'if'
p9347
S'break'
p9348
g58
tp9349
I13
s(S'then'
p9350
g5254
g5255
tp9351
I50
s(S'do'
p9352
g2160
g111
tp9353
I4
s(g5958
g5959
g22
tp9354
I8
s(S'id'
p9355
S'do'
p9356
g40
tp9357
I102
s(S':='
p9358
g3687
g3688
tp9359
I266
s(g99
g9028
S'string'
p9360
tp9361
I1
s(g9
g99
g6893
tp9362
I2
s(g7168
g1774
g10
tp9363
I14
s(g10
S'string'
p9364
S'in'
p9365
tp9366
I13
s(S'<='
p9367
S'integer'
p9368
S'<='
p9369
tp9370
I3
s(g43
g22
S'while'
p9371
tp9372
I22
s(S'break'
p9373
g99
g58
tp9374
I1
s(g1679
g6617
g666
tp9375
I55
s(g3376
g3377
g40
tp9376
I19
s(g3195
g35
g22
tp9377
I8
s(S'string'
p9378
g10
S'id'
p9379
tp9380
I20
s(g4423
g22
g40
tp9381
I14
s(S'then'
p9382
g8821
g58
tp9383
I10
s(g9
g43
g6697
tp9384
I126
s(S'>='
p9385
S'string'
p9386
S'to'
p9387
tp9388
I16
s(g58
g22
S'integer'
p9389
tp9390
I10
s(g3252
g3253
S'string'
p9391
tp9392
I5
s(S':='
p9393
S'if'
p9394
g8715
tp9395
I55
s(g4585
g111
g3117
tp9396
I3
s(S'string'
p9397
g58
S'for'
p9398
tp9399
I15
s(S'end'
p9400
g111
g43
tp9401
I1
s(g58
g1559
g2181
tp9402
I26
s(g5976
S'id'
p9403
g40
tp9404
I4
s(g9
g10
g40
tp9405
I12
s(g670
g671
S'break'
p9406
tp9407
I9
s(S'while'
p9408
S'integer'
p9409
g35
tp9410
I14
s(g43
S'id'
p9411
S'do'
p9412
tp9413
I29
s(S'<='
p9414
g22
S'break'
p9415
tp9416
I11
s(g1
g22
g40
tp9417
I13
s(S'do'
p9418
g4145
g43
tp9419
I34
s(S'break'
p9420
S'<='
p9421
g40
tp9422
I2
s(g10
S'while'
p9423
S'integer'
p9424
tp9425
I11
s(g1
S'id'
p9426
g317
tp9427
I5
s(S'end'
p9428
g58
g40
tp9429
I20
s(g99
g58
S'if'
p9430
tp9431
I1
s(g99
g43
S'string'
p9432
tp9433
I2
s(S'while'
p9434
S'while'
p9435
S'if'
p9436
tp9437
I6
s(S'do'
p9438
g6228
g6229
tp9439
I5
s(S'!='
p9440
S'id'
p9441
S'>='
p9442
tp9443
I2
s(S'then'
p9444
S'string'
p9445
g1
tp9446
I24
s(g19
g4130
S'nil'
p9447
tp9448
I16
s(g19
g22
S'let'
p9449
tp9450
I11
s(S'end'
p9451
g6508
g6509
tp9452
I1
s(S'>='
p9453
S'integer'
p9454
S'function'
p9455
tp9456
I1
s(g79
S'integer'
p9457
g19
tp9458
I2
s(g4556
g35
g4423
tp9459
I7
s(S'if'
p9460
S'integer'
p9461
g3985
tp9462
I22
s(g10
S'string'
p9463
S'!='
p9464
tp9465
I2
s(S'<='
p9466
S'string'
p9467
g1
tp9468
I2
s(g58
g1297
S'!='
p9469
tp9470
I6
s(g40
g9
g111
tp9471
I14
s(g320
S'id'
p9472
g132
tp9473
I9
s(S'nil'
p9474
g10
S'let'
p9475
tp9476
I3
s(g19
g342
g40
tp9477
I11
s(g9
S'then'
p9478
S'string'
p9479
tp9480
I78
s(S'integer'
p9481
g58
g22
tp9482
I15
s(S'string'
p9483
g6451
g6452
tp9484
I79
s(S'integer'
p9485
g3049
g22
tp9486
I1
s(g58
S'id'
p9487
S'!='
p9488
tp9489
I2
s(g22
S'nil'
p9490
g1
tp9491
I14
s(g655
g43
g6613
tp9492
I114
s(S'integer'
p9493
g10
S'while'
p9494
tp9495
I18
s(S':='
p9496
g6107
g6108
tp9497
I18
s(S'break'
p9498
S'>='
p9499
S'break'
p9500
tp9501
I6
s(g7064
g7065
S'string'
p9502
tp9503
I10
s(g10
S'integer'
p9504
S'var'
p9505
tp9506
I1
s(g1
S'string'
p9507
S'else'
p9508
tp9509
I1
s(S'>='
p9510
S'while'
p9511
S'integer'
p9512
tp9513
I7
s(g1
S'let'
p9514
S'var'
p9515
tp9516
I39
s(g7748
S'break'
p9517
g22
tp9518
I5
s(g8791
g22
g3433
tp9519
I35
s(g58
g3469
g3470
tp9520
I10
s(g1519
g5925
S'nil'
p9521
tp9522
I71
s(g35
g22
S'let'
p9523
tp9524
I11
s(S'break'
p9525
g111
g1
tp9526
I1
s(g43
S'integer'
p9527
g43
tp9528
I10
s(g9
S'<='
p9529
g40
tp9530
I25
s(S'do'
p9531
S'if'
p9532
S'string'
p9533
tp9534
I85
s(g4268
g4269
S'in'
p9535
tp9536
I4
s(g6484
g5836
g22
tp9537
I14
s(S'to'
p9538
S'nil'
p9539
g43
tp9540
I18
s(g742
g743
g887
tp9541
I18
s(g4505
S'do'
p9542
g40
tp9543
I126
s(g9
g7842
g7843
tp9544
I10
s(g22
g3169
g35
tp9545
I2
s(S'id'
p9546
S'to'
p9547
S'while'
p9548
tp9549
I46
s(g8797
g6984
g823
tp9550
I117
s(g19
g5306
g19
tp9551
I5
s(g151
g9285
g111
tp9552
I11
s(g8673
g5112
g19
tp9553
I14
s(g151
g2259
g1
tp9554
I2
s(g3550
g3551
g5099
tp9555
I16
s(g99
g8639
S'if'
p9556
tp9557
I1
s(g22
g9248
g9249
tp9558
I66
s(S'>='
p9559
S'integer'
p9560
S'>='
p9561
tp9562
I1
s(g7581
g7582
g5239
tp9563
I62
s(S'to'
p9564
g8399
g8400
tp9565
I20
s(g6110
g6111
S'in'
p9566
tp9567
I38
s(S'end'
p9568
S'do'
p9569
S'nil'
p9570
tp9571
I140
s(g19
S'nil'
p9572
g10
tp9573
I4
s(g5605
g35
S'let'
p9574
tp9575
I15
s(S'>='
p9576
S'if'
p9577
S'nil'
p9578
tp9579
I11
s(g19
g22
g5125
tp9580
I17
s(g9
g3903
g3842
tp9581
I68
s(g151
S'integer'
p9582
g43
tp9583
I1
s(g58
g1282
g320
tp9584
I5
s(g9
g1
S'integer'
p9585
tp9586
I20
s(g3248
g6217
g5932
tp9587
I21
s(g35
S'string'
p9588
S'to'
p9589
tp9590
I17
s(g111
S':='
p9591
S'let'
p9592
tp9593
I1
s(S'while'
p9594
S'nil'
p9595
g22
tp9596
I15
s(S'end'
p9597
g111
g8339
tp9598
I2
s(g4416
g4417
g7335
tp9599
I121
s(g8062
S'if'
p9600
S'break'
p9601
tp9602
I12
s(S'break'
p9603
g2876
g2877
tp9604
I11
s(g43
g9291
g22
tp9605
I9
s(S'end'
p9606
g58
g8195
tp9607
I19
s(g99
g1080
S'for'
p9608
tp9609
I4
s(S':='
p9610
S'break'
p9611
S'do'
p9612
tp9613
I3
s(g6797
g7040
S'do'
p9614
tp9615
I13
s(g43
S'break'
p9616
S'in'
p9617
tp9618
I71
s(g43
S'integer'
p9619
g6877
tp9620
I11
s(g9
g7712
g7713
tp9621
I57
s(S'integer'
p9622
g2692
g2693
tp9623
I3
s(S'id'
p9624
g5823
g5824
tp9625
I48
s(g99
S'to'
p9626
S'integer'
p9627
tp9628
I1
s(S'string'
p9629
g43
S'integer'
p9630
tp9631
I119
s(g10
g22
S'while'
p9632
tp9633
I9
s(g3891
g111
g9591
tp9634
I1
s(g1
g4109
S'type'
p9635
tp9636
I24
s(g43
S'if'
p9637
S'break'
p9638
tp9639
I16
s(S'end'
p9640
g111
g6244
tp9641
I1
s(S'in'
p9642
g5640
g5641
tp9643
I40
s(g22
g813
g1259
tp9644
I68
s(g111
g2959
S'for'
p9645
tp9646
I4
s(g35
S'id'
p9647
g40
tp9648
I5
s(g1
S'break'
p9649
S'in'
p9650
tp9651
I10
s(S'string'
p9652
g22
S'break'
p9653
tp9654
I5
s(S'id'
p9655
g6148
g6149
tp9656
I6
s(g10
g3197
g19
tp9657
I6
s(g35
g4676
g1
tp9658
I2
s(g9
g35
g5110
tp9659
I18
s(g9
g1
g22
tp9660
I10
s(g35
g3854
g2339
tp9661
I3
s(g297
g22
g2646
tp9662
I14
s(S'<='
p9663
S'integer'
p9664
g97
tp9665
I4
s(g9601
S'!='
p9666
g40
tp9667
I19
s(g43
S'while'
p9668
S'string'
p9669
tp9670
I17
s(S'<='
p9671
S'if'
p9672
S'nil'
p9673
tp9674
I10
s(g9
g19
g6906
tp9675
I19
s(g1101
g1102
S'for'
p9676
tp9677
I20
s(g6425
g58
g22
tp9678
I3
s(g8156
g111
g19
tp9679
I1
s(g79
S'nil'
p9680
g19
tp9681
I1
s(g8370
S'>='
p9682
S'integer'
p9683
tp9684
I11
s(g22
S'break'
p9685
g111
tp9686
I5
s(g10
g22
S'nil'
p9687
tp9688
I11
s(S'<='
p9689
S'string'
p9690
S'in'
p9691
tp9692
I10
s(g10
g2513
g19
tp9693
I5
s(S':='
p9694
S'if'
p9695
S'integer'
p9696
tp9697
I49
s(g19
g614
S'in'
p9698
tp9699
I8
s(g320
S'id'
p9700
S'do'
p9701
tp9702
I44
s(g9
g19
g5051
tp9703
I25
s(S'!='
p9704
S'while'
p9705
S'for'
p9706
tp9707
I6
s(S'end'
p9708
S'do'
p9709
S'let'
p9710
tp9711
I115
s(g9
g10
g976
tp9712
I19
s(S':='
p9713
S'string'
p9714
S'do'
p9715
tp9716
I5
s(g4164
g43
S'for'
p9717
tp9718
I11
s(g7231
g7232
S'<='
p9719
tp9720
I9
s(g8224
g111
g3322
tp9721
I6
s(g151
S'nil'
p9722
g1
tp9723
I1
s(S'integer'
p9724
S'then'
p9725
S'if'
p9726
tp9727
I62
s(g3410
g40
g9
tp9728
I24
s(g4843
g5861
g6214
tp9729
I32
s(S'integer'
p9730
g111
g97
tp9731
I3
s(g3259
g4461
g97
tp9732
I264
s(g2924
g4658
g772
tp9733
I17
s(g9285
g111
g1324
tp9734
I1
s(S'>='
p9735
S'id'
p9736
g58
tp9737
I4
s(g22
g5986
g22
tp9738
I15
s(g35
S'if'
p9739
S'let'
p9740
tp9741
I10
s(g10
S'id'
p9742
g132
tp9743
I8
s(g35
g518
g58
tp9744
I8
s(S'!='
p9745
S'string'
p9746
S'!='
p9747
tp9748
I1
s(g58
g4789
g22
tp9749
I9
s(g58
g5821
S'id'
p9750
tp9751
I120
s(g1835
g1836
g99
tp9752
I1
s(g5641
g293
g294
tp9753
I4
s(g111
g623
S'id'
p9754
tp9755
I1
s(g58
g1386
g1
tp9756
I9
s(S'to'
p9757
g4750
g151
tp9758
I7
s(S'integer'
p9759
g1
g1533
tp9760
I19
s(g3656
S'if'
p9761
g40
tp9762
I9
s(g9002
g6358
g6359
tp9763
I12
s(g9
S'!='
p9764
g40
tp9765
I14
s(g111
g1361
g7130
tp9766
I1
s(g35
g9267
S'in'
p9767
tp9768
I9
s(S':='
p9769
g8780
g2366
tp9770
I46
s(S'to'
p9771
S'id'
p9772
g43
tp9773
I9
s(S'end'
p9774
g2015
g2016
tp9775
I27
s(g9
S'<='
p9776
g22
tp9777
I16
s(S'while'
p9778
S'id'
p9779
g317
tp9780
I12
s(g790
g22
g5830
tp9781
I1
s(g5146
g58
g5872
tp9782
I18
s(g10
g7221
S'in'
p9783
tp9784
I8
s(S'>='
p9785
S'id'
p9786
g132
tp9787
I6
s(S'<='
p9788
S'let'
p9789
S'function'
p9790
tp9791
I27
s(g4646
g4647
g97
tp9792
I2
s(g1
S'id'
p9793
g132
tp9794
I4
s(S'to'
p9795
g22
S'while'
p9796
tp9797
I37
s(S'end'
p9798
g99
g43
tp9799
I1
s.