(dp0
(S'var'
p1
S'id'
p2
tp3
I1453
s(S'while'
p4
S'integer'
p5
tp6
I9
s(S')'
p7
S'then'
p8
tp9
I709
s(S'('
p10
g7
tp11
I30
s(S'+'
p12
S'for'
p13
tp14
I121
s(S'break'
p15
S'|'
p16
tp17
I16
s(S'['
p18
S'break'
p19
tp20
I16
s(S'<='
p21
S'while'
p22
tp23
I116
s(g18
S'nil'
p24
tp25
I11
s(S']'
p26
S'<'
p27
tp28
I4
s(g16
S'-'
p29
tp30
I123
s(S'do'
p31
S'for'
p32
tp33
I750
s(S'while'
p34
g10
tp35
I3
s(S'integer'
p36
S'}'
p37
tp38
I37
s(S'<='
p39
S'break'
p40
tp41
I120
s(g26
S'='
p42
tp43
I6
s(g27
g10
tp44
I146
s(S'id'
p45
S'type'
p46
tp47
I25
s(S'end'
p48
g29
tp49
I193
s(g16
S'while'
p50
tp51
I118
s(S'if'
p52
g10
tp53
I26
s(S'id'
p54
g10
tp55
I43
s(g26
S'in'
p56
tp57
I6
s(g26
S'/'
p58
tp59
I4
s(g42
S'for'
p60
tp61
I218
s(S':='
p62
S'while'
p63
tp64
I539
s(S'integer'
p65
g21
tp66
I6
s(S'integer'
p67
S'to'
p68
tp69
I706
s(g58
S'string'
p70
tp71
I51
s(g37
S'>'
p72
tp73
I8
s(S'else'
p74
g10
tp75
I24
s(S'!='
p76
S'for'
p77
tp78
I112
s(g7
S'in'
p79
tp80
I345
s(S'integer'
p81
g12
tp82
I38
s(S'integer'
p83
g74
tp84
I40
s(g18
S'for'
p85
tp86
I15
s(S'else'
p87
S'integer'
p88
tp89
I27
s(g12
S'break'
p90
tp91
I136
s(S'string'
p92
g29
tp93
I44
s(g72
S'break'
p94
tp95
I122
s(S':='
p96
g29
tp97
I559
s(S'id'
p98
g58
tp99
I11
s(S'end'
p100
g72
tp101
I180
s(S'id'
p102
S'$'
p103
tp104
I2
s(g26
g16
tp105
I5
s(S'nil'
p106
g37
tp107
I25
s(g37
S'type'
p108
tp109
I1
s(g26
S'else'
p110
tp111
I1
s(S'if'
p112
S'integer'
p113
tp114
I44
s(S'integer'
p115
g42
tp116
I60
s(S'end'
p117
g12
tp118
I197
s(S'string'
p119
g12
tp120
I2
s(g26
S'*'
p121
tp122
I3
s(S'{'
p123
S'id'
p124
tp125
I171
s(S'!='
p126
g10
tp127
I122
s(g26
S'to'
p128
tp129
I15
s(S'then'
p130
S'if'
p131
tp132
I397
s(g7
S'var'
p133
tp134
I30
s(g26
S':='
p135
tp136
I9
s(S'to'
p137
S'id'
p138
tp139
I457
s(S'end'
p140
g103
tp141
I264
s(S'&'
p142
S'string'
p143
tp144
I145
s(g7
g27
tp145
I173
s(S'break'
p146
g1
tp147
I37
s(S'id'
p148
g26
tp149
I26
s(S'if'
p150
S'id'
p151
tp152
I6
s(g37
S'<='
p153
tp154
I10
s(g72
g10
tp155
I115
s(g37
g12
tp156
I8
s(S'id'
p157
g12
tp158
I2
s(S'id'
p159
S'function'
p160
tp161
I20
s(S'id'
p162
S'<='
p163
tp164
I16
s(g37
g26
tp165
I1
s(g37
S'var'
p166
tp167
I1
s(S'string'
p168
S'>='
p169
tp170
I23
s(S'if'
p171
S'string'
p172
tp173
I5
s(S'!='
p174
g29
tp175
I111
s(S'integer'
p176
S'type'
p177
tp178
I27
s(S'>='
p179
g171
tp180
I128
s(g72
S'string'
p181
tp182
I127
s(S'nil'
p183
g72
tp184
I2
s(S'then'
p185
S'nil'
p186
tp187
I465
s(g7
S'type'
p188
tp189
I32
s(g172
S'then'
p190
tp191
I714
s(S'else'
p192
S'string'
p193
tp194
I23
s(g7
S'else'
p195
tp196
I36
s(S'to'
p197
S'string'
p198
tp199
I410
s(S'type'
p200
S'id'
p201
tp202
I533
s(S'nil'
p203
g42
tp204
I59
s(g190
S'break'
p205
tp206
I446
s(S'break'
p207
S'type'
p208
tp209
I23
s(g138
g31
tp210
I1133
s(S'do'
p211
S'let'
p212
tp213
I883
s(S'break'
p214
S'else'
p215
tp216
I36
s(S'id'
p217
S'.'
p218
tp219
I6
s(g12
g10
tp220
I155
s(S'end'
p221
g142
tp222
I210
s(S'id'
p223
g27
tp224
I8
s(S'let'
p225
S'var'
p226
tp227
I17
s(S'end'
p228
S'in'
p229
tp230
I326
s(S'id'
p231
S'var'
p232
tp233
I21
s(g37
g142
tp234
I5
s(g42
S'integer'
p235
tp236
I614
s(g26
S'>='
p237
tp238
I1
s(S'to'
p239
S'for'
p240
tp241
I366
s(S'<='
p242
S'string'
p243
tp244
I111
s(g29
S'string'
p245
tp246
I29
s(S'>='
p247
S'integer'
p248
tp249
I122
s(S'break'
p250
S'function'
p251
tp252
I23
s(g7
g16
tp253
I197
s(g29
S'id'
p254
tp255
I43
s(g37
S'>='
p256
tp257
I8
s(g29
S'let'
p258
tp259
I9
s(S'break'
p260
g103
tp261
I2
s(g26
S'then'
p262
tp263
I22
s(g7
g103
tp264
I300
s(S'end'
p265
g26
tp266
I25
s(S'do'
p267
S'integer'
p268
tp269
I893
s(S'nil'
p270
g200
tp271
I27
s(S'id'
p272
g121
tp273
I7
s(S'then'
p274
S'for'
p275
tp276
I414
s(g142
S'id'
p277
tp278
I136
s(S'of'
p279
S'integer'
p280
tp281
I117
s(g163
S'nil'
p282
tp283
I144
s(S'nil'
p284
S'var'
p285
tp286
I26
s(S'else'
p287
g29
tp288
I20
s(S'>='
p289
S'nil'
p290
tp291
I123
s(S'while'
p292
S'string'
p293
tp294
I15
s(g142
S'while'
p295
tp296
I147
s(S'then'
p297
S'id'
p298
tp299
I470
s(g27
S'string'
p300
tp301
I122
s(S'!='
p302
S'string'
p303
tp304
I139
s(g7
S'function'
p305
tp306
I24
s(S'of'
p307
S'id'
p308
tp309
I118
s(S'to'
p310
S'integer'
p311
tp312
I416
s(g7
g26
tp313
I14
s(S'<='
p314
g29
tp315
I118
s(S'if'
p316
S'if'
p317
tp318
I17
s(S'nil'
p319
g103
tp320
I6
s(g26
g26
tp321
I1
s(S'to'
p322
S'nil'
p323
tp324
I439
s(S'id'
p325
g16
tp326
I42
s(g16
g10
tp327
I123
s(S'break'
p328
S'in'
p329
tp330
I337
s(S'break'
p331
g26
tp332
I29
s(g37
g29
tp333
I4
s(S'id'
p334
g142
tp335
I62
s(S'to'
p336
g10
tp337
I433
s(g72
S'while'
p338
tp339
I115
s(g29
S'for'
p340
tp341
I19
s(g18
S'if'
p342
tp343
I19
s(S'>='
p344
S'let'
p345
tp346
I144
s(S'nil'
p347
S'>='
p348
tp349
I3
s(S'if'
p350
S'let'
p351
tp352
I20
s(S'<='
p353
S'integer'
p354
tp355
I140
s(g169
S'id'
p356
tp357
I120
s(g12
S'string'
p358
tp359
I152
s(g340
S'id'
p360
tp361
I24
s(g58
S'integer'
p362
tp363
I48
s(S':='
p364
g52
tp365
I537
s(g42
S'while'
p366
tp367
I240
s(S'end'
p368
S'>='
p369
tp370
I178
s(S'<='
p371
g10
tp372
I130
s(S'to'
p373
S'let'
p374
tp375
I454
s(g12
S'while'
p376
tp377
I116
s(g218
S'id'
p378
tp379
I191
s(S'end'
p380
S'<='
p381
tp382
I202
s(S'type'
p383
S'string'
p384
tp385
I539
s(g42
S'string'
p386
tp387
I595
s(S'id'
p388
S'!='
p389
tp390
I9
s(g16
g225
tp391
I127
s(S'id'
p392
g29
tp393
I3
s(g26
g18
tp394
I2
s(S'do'
p395
g350
tp396
I809
s(g356
S'to'
p397
tp398
I599
s(S'integer'
p399
g103
tp400
I2
s(g29
S'if'
p401
tp402
I34
s(g72
S'for'
p403
tp404
I113
s(S'if'
p405
S'while'
p406
tp407
I17
s(g37
S'!='
p408
tp409
I6
s(S'nil'
p410
S'function'
p411
tp412
I26
s(g37
S'to'
p413
tp414
I19
s(S'string'
p415
g26
tp416
I22
s(g42
g29
tp417
I273
s(S'to'
p418
g34
tp419
I398
s(S'if'
p420
S'for'
p421
tp422
I9
s(g7
g72
tp423
I196
s(S'end'
p424
S'id'
p425
tp426
I3
s(g142
S'if'
p427
tp428
I133
s(S'end'
p429
S'var'
p430
tp431
I26
s(S'nil'
p432
g29
tp433
I27
s(S'break'
p434
g72
tp435
I18
s(S'>='
p436
g29
tp437
I118
s(S'id'
p438
g72
tp439
I17
s(S'nil'
p440
S'in'
p441
tp442
I356
s(S'while'
p443
S'if'
p444
tp445
I32
s(S'then'
p446
S'let'
p447
tp448
I447
s(g37
g103
tp449
I6
s(S'break'
p450
S'do'
p451
tp452
I1419
s(g378
g446
tp453
I573
s(g205
g137
tp454
I656
s(S'break'
p455
g12
tp456
I31
s(g37
g16
tp457
I5
s(S'then'
p458
S'while'
p459
tp460
I385
s(S'string'
p461
S'else'
p462
tp463
I39
s(g7
S'to'
p464
tp465
I684
s(S'id'
p466
g123
tp467
I171
s(S'integer'
p468
g26
tp469
I23
s(g121
S'break'
p470
tp471
I58
s(S'of'
p472
S'let'
p473
tp474
I1
s(g18
S'id'
p475
tp476
I16
s(S'string'
p477
S'var'
p478
tp479
I30
s(g27
g29
tp480
I118
s(S'then'
p481
g10
tp482
I447
s(g29
S'break'
p483
tp484
I5
s(S'string'
p485
S'id'
p486
tp487
I1
s(S'end'
p488
S'function'
p489
tp490
I29
s(S'!='
p491
S'break'
p492
tp493
I137
s(S':='
p494
S'id'
p495
tp496
I648
s(g26
S'do'
p497
tp498
I31
s(S'then'
p499
S'integer'
p500
tp501
I495
s(g26
S'<='
p502
tp503
I3
s(g42
g325
tp504
I637
s(S'end'
p505
g310
tp506
I643
s(S'nil'
p507
g39
tp508
I24
s(g42
S'let'
p509
tp510
I282
s(S'nil'
p511
g197
tp512
I649
s(g282
g142
tp513
I15
s(g63
g450
tp514
I44
s(g22
S'for'
p515
tp516
I25
s(g7
S'id'
p517
tp518
I1
s(g7
g142
tp519
I213
s(S'do'
p520
g162
tp521
I903
s(S':='
p522
S'break'
p523
tp524
I596
s(S'type'
p525
g115
tp526
I540
s(g37
g42
tp527
I3
s(S'break'
p528
S'id'
p529
tp530
I1
s(g142
g434
tp531
I144
s(g26
S'function'
p532
tp533
I1
s(S'else'
p534
S'break'
p535
tp536
I38
s(S'!='
p537
S'nil'
p538
tp539
I120
s(g37
g27
tp540
I2
s(g24
g26
tp541
I14
s(g29
S'while'
p542
tp543
I35
s(g26
g218
tp544
I7
s(S'array'
p545
g307
tp546
I341
s(g42
g440
tp547
I266
s(S'end'
p548
g27
tp549
I191
s(S'if'
p550
S'break'
p551
tp552
I62
s(g7
g436
tp553
I200
s(g444
S'nil'
p554
tp555
I48
s(g554
g12
tp556
I17
s(S'while'
p557
S'id'
p558
tp559
I27
s(g18
S'let'
p560
tp561
I9
s(g16
S'for'
p562
tp563
I120
s(S'id'
p564
g42
tp565
I288
s(g26
g12
tp566
I4
s(S'nil'
p567
S'do'
p568
tp569
I1431
s(g42
g10
tp570
I336
s(S'integer'
p571
g142
tp572
I22
s(S'else'
p573
S'nil'
p574
tp575
I22
s(S'while'
p576
S'nil'
p577
tp578
I35
s(g16
S'break'
p579
tp580
I140
s(g26
S'var'
p581
tp582
I1
s(S'break'
p583
S'<='
p584
tp585
I11
s(S'else'
p586
S'id'
p587
tp588
I32
s(g72
S'integer'
p589
tp590
I111
s(g198
S'!='
p591
tp592
I3
s(g58
S'nil'
p593
tp594
I46
s(S'integer'
p595
g16
tp596
I64
s(S'let'
p597
S'in'
p598
tp599
I22
s(S'integer'
p600
S'function'
p601
tp602
I31
s(S'to'
p603
g29
tp604
I421
s(g27
S'break'
p605
tp606
I120
s(g27
S'nil'
p607
tp608
I128
s(g58
S'break'
p609
tp610
I59
s(g123
g37
tp611
I297
s(g509
g525
tp612
I16
s(S'while'
p613
S'let'
p614
tp615
I27
s(g42
S'if'
p616
tp617
I229
s(S'end'
p618
S'!='
p619
tp620
I199
s(g193
g322
tp621
I654
s(g142
S'for'
p622
tp623
I133
s(g18
g10
tp624
I6
s(S'do'
p625
S'nil'
p626
tp627
I967
s(g26
g142
tp628
I4
s(g18
S'while'
p629
tp630
I12
s(S'function'
p631
g54
tp632
I1476
s(S'id'
p633
S'>='
p634
tp635
I8
s(g142
S'let'
p636
tp637
I138
s(S':='
p638
S'for'
p639
tp640
I476
s(S'do'
p641
g29
tp642
I823
s(g121
S'string'
p643
tp644
I45
s(S'!='
p645
S'id'
p646
tp647
I131
s(g37
S'in'
p648
tp649
I310
s(g29
g29
tp650
I35
s(g308
S'in'
p651
tp652
I747
s(g311
S'do'
p653
tp654
I1376
s(g243
g211
tp655
I1391
s(S'end'
p656
g395
tp657
I1313
s(g18
g468
tp658
I19
s(g142
g10
tp659
I112
s(S'id'
p660
g37
tp661
I17
s(S'string'
p662
g72
tp663
I15
s(S'>='
p664
S'break'
p665
tp666
I140
s(g7
g12
tp667
I226
s(g653
S'string'
p668
tp669
I888
s(g37
S'then'
p670
tp671
I25
s(S'break'
p672
g37
tp673
I21
s(S'end'
p674
g37
tp675
I22
s(S'>='
p676
S'while'
p677
tp678
I106
s(S'do'
p679
S'while'
p680
tp681
I832
s(g12
S'let'
p682
tp683
I114
s(g72
S'let'
p684
tp685
I117
s(S'string'
p686
S'in'
p687
tp688
I770
s(S'string'
p689
g27
tp690
I6
s(g121
S'nil'
p691
tp692
I43
s(g235
g27
tp693
I10
s(g72
S'id'
p694
tp695
I110
s(g72
g29
tp696
I115
s(S'of'
p697
S'break'
p698
tp699
I3
s(S'do'
p700
g10
tp701
I910
s(S':='
p702
g168
tp703
I580
s(g7
S'do'
p704
tp705
I1413
s(g29
S'nil'
p706
tp707
I44
s(g317
g29
tp708
I15
s(g389
S'let'
p709
tp710
I120
s(g7
g42
tp711
I1671
s(S'id'
p712
g534
tp713
I34
s(g16
S'string'
p714
tp715
I132
s(g648
S'end'
p716
tp717
I5361
s(g42
S'break'
p718
tp719
I264
s(g26
S'!='
p720
tp721
I3
s(S'break'
p722
g42
tp723
I21
s(S'<='
p724
S'let'
p725
tp726
I132
s(g26
g29
tp727
I3
s(g186
g192
tp728
I37
s(S'integer'
p729
S'var'
p730
tp731
I22
s(S'break'
p732
g142
tp733
I17
s(S':='
p734
g10
tp735
I563
s(g142
g29
tp736
I134
s(S'end'
p737
g87
tp738
I40
s(g27
S'if'
p739
tp740
I108
s(g462
S'if'
p741
tp742
I19
s(g12
g83
tp743
I136
s(g7
g242
tp744
I197
s(g121
S'integer'
p745
tp746
I36
s(g12
S'if'
p747
tp748
I93
s(g26
g72
tp749
I1
s(S'>='
p750
S'string'
p751
tp752
I142
s(S'>='
p753
S'for'
p754
tp755
I110
s(S'<='
p756
g392
tp757
I136
s(g18
g415
tp758
I15
s(S'end'
p759
g42
tp760
I175
s(S'else'
p761
S'let'
p762
tp763
I30
s(S'string'
p764
g142
tp765
I21
s(g42
g123
tp766
I297
s(g293
g16
tp767
I31
s(g27
S'for'
p768
tp769
I115
s(S'!='
p770
S'while'
p771
tp772
I109
s(g523
g179
tp773
I39
s(g212
g631
tp774
I18
s(g323
g491
tp775
I14
s(g42
g545
tp776
I341
s(g360
g522
tp777
I2560
s(g591
g420
tp778
I105
s(S'string'
p779
g103
tp780
I1
s(S':='
p781
g67
tp782
I630
s(g7
g37
tp783
I30
s(g348
g10
tp784
I124
s(S':='
p785
g511
tp786
I614
s(S'nil'
p787
S'then'
p788
tp789
I695
s(g142
S'integer'
p790
tp791
I130
s(g384
g42
tp792
I273
s(g16
S'nil'
p793
tp794
I140
s(S'end'
p795
S'type'
p796
tp797
I26
s(S'nil'
p798
g16
tp799
I12
s(S'string'
p800
S'<='
p801
tp802
I41
s(g26
S'of'
p803
tp804
I5
s(S'else'
p805
S'while'
p806
tp807
I18
s(g29
g10
tp808
I2
s(g72
g150
tp809
I102
s(S'integer'
p810
S'!='
p811
tp812
I12
s(g12
g29
tp813
I129
s(g113
g29
tp814
I15
s(g7
g770
tp815
I174
s(g803
g29
tp816
I1
s(g26
g103
tp817
I13
s(S'end'
p818
g16
tp819
I213
s(g16
S'if'
p820
tp821
I125
s(S'string'
p822
S'function'
p823
tp824
I33
s(g27
S'let'
p825
tp826
I129
s(S'break'
p827
g27
tp828
I9
s(S':='
p829
g597
tp830
I535
s(S'break'
p831
S'!='
p832
tp833
I23
s(g12
g270
tp834
I148
s(g16
S'integer'
p835
tp836
I130
s(S'string'
p837
S'type'
p838
tp839
I26
s(S'id'
p840
g18
tp841
I13
s(g27
g148
tp842
I119
s(S'then'
p843
g29
tp844
I385
s(g142
S'nil'
p845
tp846
I145
s(S'else'
p847
S'for'
p848
tp849
I10
s(g268
S'then'
p850
tp851
I718
s(S'of'
p852
S'string'
p853
tp854
I106
s(g12
S'id'
p855
tp856
I146
s(g716
g185
tp857
I706
s(S'<='
p858
S'for'
p859
tp860
I109
s(S'while'
p861
g29
tp862
I8
s(S'integer'
p863
g72
tp864
I11
s(g381
S'if'
p865
tp866
I100
s(S'do'
p867
S'break'
p868
tp869
I895
s(g29
S'integer'
p870
tp871
I27
s(g37
S'do'
p872
tp873
I46
s(S'while'
p874
S'while'
p875
tp876
I32
s(g27
S'integer'
p877
tp878
I128
s(S'string'
p879
g37
tp880
I19
s(S'!='
p881
S'integer'
p882
tp883
I155
s(g16
g217
tp884
I123
s(g626
g27
tp885
I2
s(S'integer'
p886
g664
tp887
I4
s(g27
S'while'
p888
tp889
I119
s(g18
g29
tp890
I17
s(S'integer'
p891
S'in'
p892
tp893
I776
s(S'then'
p894
g461
tp895
I476
s(g72
g319
tp896
I114
s(S'nil'
p897
S'id'
p898
tp899
I1
s(g7
g29
tp900
I209
s(S'to'
p901
S'if'
p902
tp903
I365
s(g551
g297
tp904
I665
s(S'to'
p905
S'break'
p906
tp907
I466
s(S'break'
p908
g29
tp909
I18
s.