(dp0
(S'var'
p1
S'id'
p2
tp3
I3260
s(S'in'
p4
S'if'
p5
tp6
I51
s(S'while'
p7
S'integer'
p8
tp9
I482
s(S')'
p10
S'then'
p11
tp12
I1460
s(S'('
p13
g10
tp14
I7188
s(S'+'
p15
S'for'
p16
tp17
I249
s(S'break'
p18
S'|'
p19
tp20
I232
s(g10
S'<='
p21
tp22
I392
s(S'}'
p23
S'function'
p24
tp25
I24
s(S'['
p26
S'break'
p27
tp28
I34
s(S'<='
p29
S'while'
p30
tp31
I223
s(g26
S'nil'
p32
tp33
I27
s(S';'
p34
S'let'
p35
tp36
I5
s(S']'
p37
S'<'
p38
tp39
I13
s(S';'
p40
S'if'
p41
tp42
I4
s(g19
S'-'
p43
tp44
I250
s(S'do'
p45
S'for'
p46
tp47
I1520
s(S'while'
p48
g13
tp49
I468
s(S'break'
p50
S'/'
p51
tp52
I16
s(S'integer'
p53
S'}'
p54
tp55
I75
s(S'<='
p56
S'break'
p57
tp58
I263
s(g37
S'='
p59
tp60
I7
s(g38
g13
tp61
I292
s(S'id'
p62
S'type'
p63
tp64
I85
s(S'end'
p65
g43
tp66
I417
s(g19
S'while'
p67
tp68
I250
s(S'if'
p69
g13
tp70
I478
s(S'id'
p71
g13
tp72
I1998
s(g37
S'in'
p73
tp74
I22
s(g37
S'/'
p75
tp76
I6
s(g59
S'for'
p77
tp78
I482
s(S';'
p79
S'integer'
p80
tp81
I5
s(S':='
p82
S'while'
p83
tp84
I1126
s(S'integer'
p85
g29
tp86
I211
s(S'integer'
p87
S'to'
p88
tp89
I1359
s(g75
S'string'
p90
tp91
I108
s(S':'
p92
S'integer'
p93
tp94
I96
s(g54
S'>'
p95
tp96
I13
s(S'in'
p97
S'let'
p98
tp99
I41
s(S'else'
p100
g13
tp101
I47
s(S'!='
p102
S'for'
p103
tp104
I223
s(S'in'
p105
S'string'
p106
tp107
I64
s(g10
S'in'
p108
tp109
I791
s(S'('
p110
S'break'
p111
tp112
I27
s(S'integer'
p113
g100
tp114
I76
s(g26
S'for'
p115
tp116
I31
s(S'end'
p117
S')'
p118
tp119
I35
s(g15
S'break'
p120
tp121
I289
s(S')'
p122
S'*'
p123
tp124
I8
s(g95
S'break'
p125
tp126
I268
s(S':='
p127
g43
tp128
I1112
s(S'id'
p129
g75
tp130
I189
s(S'end'
p131
g95
tp132
I399
s(S'id'
p133
S'$'
p134
tp135
I52
s(S'then'
p136
S'integer'
p137
tp138
I957
s(S'break'
p139
S'*'
p140
tp141
I27
s(g37
g19
tp142
I9
s(S'nil'
p143
g54
tp144
I45
s(g54
S'type'
p145
tp146
I18
s(g37
S'else'
p147
tp148
I3
s(S'if'
p149
S'integer'
p150
tp151
I472
s(S'integer'
p152
g59
tp153
I864
s(S'end'
p154
g15
tp155
I410
s(S'string'
p156
g15
tp157
I201
s(g37
S'*'
p158
tp159
I11
s(S'string'
p160
S':='
p161
tp162
I31
s(S'integer'
p163
S'var'
p164
tp165
I73
s(S'!='
p166
g13
tp167
I236
s(S':='
p168
S'for'
p169
tp170
I977
s(S'then'
p171
S'if'
p172
tp173
I805
s(S'id'
p174
S'nil'
p175
tp176
I1
s(g10
S'var'
p177
tp178
I73
s(g37
S':='
p179
tp180
I22
s(S'to'
p181
S'id'
p182
tp183
I893
s(S'!='
p184
S'id'
p185
tp186
I244
s(S'&'
p187
S'string'
p188
tp189
I294
s(g10
g38
tp190
I365
s(S'of'
p191
S'if'
p192
tp193
I1
s(S'break'
p194
g1
tp195
I84
s(S'string'
p196
S')'
p197
tp198
I86
s(S'nil'
p199
S'/'
p200
tp201
I14
s(S'id'
p202
g37
tp203
I51
s(S'if'
p204
S'id'
p205
tp206
I468
s(g54
S'<='
p207
tp208
I18
s(g95
g13
tp209
I252
s(g54
g15
tp210
I15
s(S'id'
p211
g15
tp212
I201
s(S'id'
p213
S'function'
p214
tp215
I74
s(S'id'
p216
S'<='
p217
tp218
I187
s(g54
g37
tp219
I1
s(g79
S'string'
p220
tp221
I6
s(g54
S'var'
p222
tp223
I29
s(S'integer'
p224
g140
tp225
I11
s(S'string'
p226
S'>='
p227
tp228
I220
s(S'if'
p229
S'string'
p230
tp231
I487
s(S'!='
p232
g43
tp233
I237
s(S'integer'
p234
S'type'
p235
tp236
I72
s(S'>='
p237
g229
tp238
I237
s(g95
S'string'
p239
tp240
I261
s(S'nil'
p241
g95
tp242
I131
s(S'then'
p243
S'nil'
p244
tp245
I919
s(g10
S'type'
p246
tp247
I65
s(g230
S'then'
p248
tp249
I1405
s(S'else'
p250
S'string'
p251
tp252
I37
s(g10
S'else'
p253
tp254
I74
s(S'to'
p255
S'string'
p256
tp257
I836
s(S'type'
p258
S'id'
p259
tp260
I1159
s(S'nil'
p261
g59
tp262
I128
s(g248
S'break'
p263
tp264
I879
s(S'break'
p265
S'type'
p266
tp267
I60
s(g182
g45
tp268
I2171
s(S'nil'
p269
S'var'
p270
tp271
I54
s(S'break'
p272
S'else'
p273
tp274
I68
s(S'id'
p275
S'.'
p276
tp277
I190
s(g15
g13
tp278
I300
s(S'end'
p279
g187
tp280
I440
s(S'id'
p281
g38
tp282
I176
s(S'let'
p283
S'var'
p284
tp285
I7
s(g79
S'id'
p286
tp287
I14
s(S'end'
p288
S'in'
p289
tp290
I738
s(g140
S'let'
p291
tp292
I8
s(S'id'
p293
S'var'
p294
tp295
I78
s(g54
g187
tp296
I10
s(g59
S'integer'
p297
tp298
I1283
s(S'in'
p299
S'nil'
p300
tp301
I60
s(g37
S'>='
p302
tp303
I5
s(S'to'
p304
S'for'
p305
tp306
I712
s(S'id'
p307
S'id'
p308
tp309
I18
s(g21
S'string'
p310
tp311
I243
s(g110
g110
tp312
I24
s(g43
S'string'
p313
tp314
I627
s(S'>='
p315
S'integer'
p316
tp317
I263
s(S'break'
p318
S'function'
p319
tp320
I47
s(g10
g19
tp321
I427
s(g111
S';'
p322
tp323
I13
s(g43
S'id'
p324
tp325
I696
s(S'id'
p326
S'end'
p327
tp328
I95
s(g54
S'>='
p329
tp330
I11
s(g43
S'let'
p331
tp332
I639
s(S'break'
p333
g134
tp334
I72
s(S'*'
p335
S'id'
p336
tp337
I20
s(g37
S'then'
p338
tp339
I37
s(S'of'
p340
S'while'
p341
tp342
I1
s(g10
g134
tp343
I355
s(g118
g200
tp344
I19
s(S'end'
p345
g37
tp346
I46
s(S'do'
p347
S'integer'
p348
tp349
I1784
s(S'nil'
p350
g258
tp351
I63
s(S'id'
p352
g158
tp353
I197
s(S'then'
p354
S'for'
p355
tp356
I812
s(g187
S'id'
p357
tp358
I286
s(S'of'
p359
S'integer'
p360
tp361
I261
s(g217
S'nil'
p362
tp363
I263
s(g26
S'while'
p364
tp365
I29
s(S'else'
p366
g43
tp367
I40
s(S'>='
p368
S'nil'
p369
tp370
I266
s(S'while'
p371
S'string'
p372
tp373
I467
s(g187
S'while'
p374
tp375
I290
s(S'integer'
p376
g79
tp377
I11
s(S'then'
p378
S'id'
p379
tp380
I947
s(S'in'
p381
S'for'
p382
tp383
I46
s(g38
S'string'
p384
tp385
I250
s(S'!='
p386
S'string'
p387
tp388
I263
s(S'nil'
p389
S'end'
p390
tp391
I98
s(g10
S'function'
p392
tp393
I48
s(S'of'
p394
S'id'
p395
tp396
I242
s(S'to'
p397
S'integer'
p398
tp399
I877
s(g10
g37
tp400
I35
s(S'<='
p401
g43
tp402
I254
s(S'if'
p403
S'if'
p404
tp405
I432
s(S'nil'
p406
g134
tp407
I68
s(g37
g37
tp408
I1
s(S'to'
p409
S'nil'
p410
tp411
I877
s(S'id'
p412
g19
tp413
I222
s(g19
g13
tp414
I262
s(S'break'
p415
S'in'
p416
tp417
I724
s(S'break'
p418
g37
tp419
I57
s(g54
g43
tp420
I11
s(S'id'
p421
g187
tp422
I247
s(S'to'
p423
g13
tp424
I870
s(g95
S'while'
p425
tp426
I216
s(g43
S'for'
p427
tp428
I552
s(S']'
p429
S')'
p430
tp431
I2
s(g26
S'if'
p432
tp433
I31
s(S'/'
p434
S'-'
p435
tp436
I9
s(S'>='
p437
S'let'
p438
tp439
I251
s(S'nil'
p440
S'>='
p441
tp442
I141
s(S'if'
p443
S'let'
p444
tp445
I470
s(S'integer'
p446
g197
tp447
I96
s(S'<='
p448
S'integer'
p449
tp450
I281
s(g227
S'id'
p451
tp452
I247
s(g15
S'string'
p453
tp454
I306
s(g427
S'id'
p455
tp456
I4583
s(g75
S'integer'
p457
tp458
I113
s(S':='
p459
g69
tp460
I1054
s(g59
S'while'
p461
tp462
I525
s(S'end'
p463
S'>='
p464
tp465
I376
s(S'<='
p466
g13
tp467
I253
s(S'to'
p468
S'let'
p469
tp470
I871
s(g15
S'while'
p471
tp472
I222
s(g276
S'id'
p473
tp474
I381
s(g110
S'-'
p475
tp476
I26
s(g322
S'break'
p477
tp478
I7
s(S'nil'
p479
g79
tp480
I8
s(S'end'
p481
S'<='
p482
tp483
I426
s(S'type'
p484
S'string'
p485
tp486
I1146
s(S'integer'
p487
g15
tp488
I278
s(S'id'
p489
S'!='
p490
tp491
I167
s(g19
g283
tp492
I274
s(S'id'
p493
g43
tp494
I179
s(g37
g26
tp495
I6
s(S'id'
p496
g322
tp497
I7
s(S'end'
p498
g140
tp499
I24
s(S'do'
p500
g443
tp501
I1598
s(g451
S'to'
p502
tp503
I1148
s(S'string'
p504
S'in'
p505
tp506
I1608
s(S'integer'
p507
g134
tp508
I76
s(g43
S'if'
p509
tp510
I619
s(S'in'
p511
g475
tp512
I60
s(g95
S'for'
p513
tp514
I223
s(S'if'
p515
S'while'
p516
tp517
I407
s(g140
S'if'
p518
tp519
I10
s(g54
S'!='
p520
tp521
I10
s(S'nil'
p522
S'function'
p523
tp524
I57
s(S'end'
p525
g200
tp526
I23
s(g54
S'to'
p527
tp528
I41
s(S'/'
p529
S'('
p530
tp531
I10
s(g59
g43
tp532
I566
s(g110
S'for'
p533
tp534
I23
s(S'to'
p535
g48
tp536
I759
s(S'string'
p537
g200
tp538
I15
s(S'if'
p539
S'for'
p540
tp541
I391
s(S'}'
p542
S'else'
p543
tp544
I1
s(g10
g95
tp545
I416
s(g197
g197
tp546
I48
s(g187
S'if'
p547
tp548
I248
s(S'end'
p549
S'var'
p550
tp551
I54
s(S'nil'
p552
g43
tp553
I132
s(S'of'
p554
S'nil'
p555
tp556
I1
s(S'in'
p557
S'break'
p558
tp559
I72
s(S'id'
p560
g197
tp561
I71
s(S'>='
p562
g43
tp563
I245
s(g477
g118
tp564
I45
s(g51
S'for'
p565
tp566
I6
s(S'nil'
p567
S'in'
p568
tp569
I788
s(S'while'
p570
S'if'
p571
tp572
I417
s(S'then'
p573
S'let'
p574
tp575
I900
s(g54
g134
tp576
I6
s(S'break'
p577
S'do'
p578
tp579
I2842
s(g542
g542
tp580
I1
s(g473
g573
tp581
I1173
s(g263
g181
tp582
I1351
s(g59
S'string'
p583
tp584
I1231
s(S'break'
p585
g15
tp586
I249
s(g54
g19
tp587
I12
s(S','
p588
g196
tp589
I8
s(S'then'
p590
S'while'
p591
tp592
I773
s(S'string'
p593
S'else'
p594
tp595
I75
s(g10
S'to'
p596
tp597
I1361
s(S'id'
p598
S'{'
p599
tp600
I338
s(g197
g79
tp601
I10
s(S'integer'
p602
g37
tp603
I66
s(g158
S'break'
p604
tp605
I107
s(S'of'
p606
S'let'
p607
tp608
I2
s(g26
S'id'
p609
tp610
I32
s(S'string'
p611
S'var'
p612
tp613
I73
s(g38
g43
tp614
I241
s(S'then'
p615
g13
tp616
I923
s(g43
S'break'
p617
tp618
I617
s(S'string'
p619
S'id'
p620
tp621
I21
s(g140
S'for'
p622
tp623
I11
s(S'end'
p624
S'function'
p625
tp626
I59
s(S'!='
p627
S'break'
p628
tp629
I289
s(S':='
p630
S'id'
p631
tp632
I1276
s(S'integer'
p633
g588
tp634
I6
s(g37
S'do'
p635
tp636
I66
s(g92
S'string'
p637
tp638
I122
s(S'string'
p639
g37
tp640
I45
s(g93
S':='
p641
tp642
I26
s(g37
S'<='
p643
tp644
I8
s(g59
g412
tp645
I1309
s(S'end'
p646
g397
tp647
I1286
s(S'nil'
p648
g56
tp649
I124
s(g59
S'let'
p650
tp651
I554
s(g51
S'let'
p652
tp653
I9
s(S'nil'
p654
g255
tp655
I1292
s(S':'
p656
S'id'
p657
tp658
I165
s(g362
g187
tp659
I133
s(S'integer'
p660
S'end'
p661
tp662
I94
s(g83
g577
tp663
I516
s(g30
S'for'
p664
tp665
I401
s(g10
S'id'
p666
tp667
I1
s(g10
g187
tp668
I423
s(S'do'
p669
g216
tp670
I1796
s(S':='
p671
S'break'
p672
tp673
I1224
s(S'type'
p674
g152
tp675
I1120
s(g322
S'while'
p676
tp677
I4
s(g54
g59
tp678
I7
s(S'break'
p679
S'id'
p680
tp681
I2
s(g187
S'break'
p682
tp683
I285
s(g37
S'function'
p684
tp685
I2
s(S'<>'
p686
S'nil'
p687
tp688
I1
s(g140
S'while'
p689
tp690
I10
s(S'else'
p691
S'break'
p692
tp693
I58
s(S'!='
p694
S'nil'
p695
tp696
I254
s(g54
g38
tp697
I9
s(g32
g37
tp698
I34
s(g43
S'while'
p699
tp700
I604
s(g37
g276
tp701
I13
s(S'array'
p702
g394
tp703
I728
s(g59
g567
tp704
I561
s(S'end'
p705
g38
tp706
I405
s(S'else'
p707
S'integer'
p708
tp709
I47
s(S'if'
p710
S'break'
p711
tp712
I540
s(g10
g562
tp713
I403
s(S'string'
p714
g43
tp715
I237
s(g571
S'nil'
p716
tp717
I478
s(g716
g15
tp718
I149
s(S'while'
p719
S'id'
p720
tp721
I496
s(g10
g43
tp722
I440
s(g26
S'let'
p723
tp724
I25
s(g19
S'for'
p725
tp726
I241
s(S'id'
p727
g59
tp728
I1269
s(g37
g15
tp729
I7
s(S'nil'
p730
S'do'
p731
tp732
I2827
s(g59
g13
tp733
I702
s(S'integer'
p734
g187
tp735
I230
s(S'else'
p736
S'nil'
p737
tp738
I46
s(S'while'
p739
S'nil'
p740
tp741
I490
s(S'integer'
p742
g51
tp743
I8
s(S'('
p744
S'integer'
p745
tp746
I42
s(g19
S'break'
p747
tp748
I276
s(g37
S'var'
p749
tp750
I2
s(S'break'
p751
S'<='
p752
tp753
I204
s(g530
S'while'
p754
tp755
I29
s(S'else'
p756
S'id'
p757
tp758
I62
s(g95
S'integer'
p759
tp760
I247
s(g256
S'!='
p761
tp762
I216
s(g75
S'nil'
p763
tp764
I93
s(S'integer'
p765
g19
tp766
I270
s(S'let'
p767
S'in'
p768
tp769
I31
s(g682
g95
tp770
I185
s(S'integer'
p771
S'function'
p772
tp773
I75
s(S'to'
p774
g43
tp775
I831
s(S'<>'
p776
S'id'
p777
tp778
I1
s(g38
S'break'
p779
tp780
I246
s(g38
S'nil'
p781
tp782
I264
s(S'id'
p783
g95
tp784
I170
s(g75
S'break'
p785
tp786
I119
s(g599
g54
tp787
I652
s(g650
g674
tp788
I7
s(g588
S'id'
p789
tp790
I33
s(S'while'
p791
S'let'
p792
tp793
I456
s(S'in'
p794
S'while'
p795
tp796
I53
s(g59
S'if'
p797
tp798
I503
s(S'end'
p799
S'!='
p800
tp801
I423
s(g542
S'*'
p802
tp803
I1
s(g251
g409
tp804
I1340
s(g187
S'for'
p805
tp806
I252
s(S'end'
p807
S'end'
p808
tp809
I90
s(g26
g13
tp810
I18
s(S'do'
p811
S'nil'
p812
tp813
I1838
s(g37
g187
tp814
I7
s(S'function'
p815
g71
tp816
I3226
s(S'id'
p817
S'>='
p818
tp819
I165
s(S'end'
p820
S'id'
p821
tp822
I5
s(g542
S'end'
p823
tp824
I3
s(g37
S'to'
p825
tp826
I30
s(S'do'
p827
g43
tp828
I1704
s(g158
S'string'
p829
tp830
I118
s(S'end'
p831
g134
tp832
I683
s(g588
S'integer'
p833
tp834
I1
s(g54
S'in'
p835
tp836
I660
s(g43
g43
tp837
I631
s(g395
S'in'
p838
tp839
I1487
s(g398
S'do'
p840
tp841
I2789
s(g310
S'do'
p842
tp843
I2740
s(S'end'
p844
g500
tp845
I2604
s(g842
S'let'
p846
tp847
I1782
s(g187
g13
tp848
I254
s(S'id'
p849
g54
tp850
I61
s(S'string'
p851
g95
tp852
I221
s(S'>='
p853
S'break'
p854
tp855
I265
s(g10
g15
tp856
I453
s(g840
S'string'
p857
tp858
I1786
s(g187
S'let'
p859
tp860
I278
s(g54
S'then'
p861
tp862
I41
s(S'break'
p863
g54
tp864
I41
s(S'end'
p865
g54
tp866
I47
s(S'>='
p867
S'while'
p868
tp869
I227
s(S'do'
p870
S'while'
p871
tp872
I1618
s(g15
S'let'
p873
tp874
I262
s(g95
S'let'
p875
tp876
I253
s(g322
S'for'
p877
tp878
I8
s(S'string'
p879
g38
tp880
I208
s(g158
S'nil'
p881
tp882
I104
s(g297
g38
tp883
I201
s(g106
S'end'
p884
tp885
I91
s(g95
S'id'
p886
tp887
I250
s(g40
g435
tp888
I4
s(g95
g43
tp889
I248
s(S'of'
p890
S'break'
p891
tp892
I4
s(S'do'
p893
g13
tp894
I1781
s(g322
S'nil'
p895
tp896
I7
s(S'in'
p897
S'integer'
p898
tp899
I68
s(S'integer'
p900
S'id'
p901
tp902
I14
s(g10
S'do'
p903
tp904
I2856
s(g43
S'nil'
p905
tp906
I666
s(g404
g43
tp907
I443
s(g490
S'let'
p908
tp909
I254
s(g10
g59
tp910
I3556
s(S'id'
p911
g691
tp912
I52
s(g19
S'string'
p913
tp914
I266
s(g835
S'end'
p915
tp916
I10701
s(g59
S'break'
p917
tp918
I570
s(g37
S'!='
p919
tp920
I9
s(S'break'
p921
g59
tp922
I216
s(S'<='
p923
S'let'
p924
tp925
I262
s(g37
g43
tp926
I10
s(g244
g250
tp927
I67
s(g599
S'id'
p928
tp929
I372
s(S'break'
p930
g187
tp931
I237
s(g529
S'if'
p932
tp933
I9
s(S':='
p934
g13
tp935
I1187
s(g187
g43
tp936
I272
s(S'end'
p937
g707
tp938
I73
s(g38
S'if'
p939
tp940
I237
s(g594
S'if'
p941
tp942
I40
s(g15
g113
tp943
I286
s(g197
S'end'
p944
tp945
I88
s(g744
S'string'
p946
tp947
I33
s(g158
S'integer'
p948
tp949
I90
s(g15
S'if'
p950
tp951
I205
s(g37
g95
tp952
I3
s(S'>='
p953
S'string'
p954
tp955
I265
s(S'>='
p956
S'for'
p957
tp958
I221
s(S'<='
p959
g493
tp960
I281
s(g26
g639
tp961
I33
s(g110
S'if'
p962
tp963
I30
s(S'end'
p964
g59
tp965
I382
s(S'else'
p966
S'let'
p967
tp968
I53
s(S'string'
p969
g187
tp970
I268
s(S'in'
p971
g110
tp972
I59
s(S':='
p973
g226
tp974
I1261
s(g59
g599
tp975
I686
s(g372
g19
tp976
I235
s(g38
S'for'
p977
tp978
I201
s(S'!='
p979
S'while'
p980
tp981
I236
s(g672
g237
tp982
I241
s(g200
S'while'
p983
tp984
I9
s(g846
g815
tp985
I1
s(g26
g602
tp986
I49
s(g410
g627
tp987
I123
s(g59
g702
tp988
I728
s(g455
g671
tp989
I9079
s(g761
g539
tp990
I235
s(S'string'
p991
g134
tp992
I60
s(S'in'
p993
g326
tp994
I84
s(S']'
p995
S'end'
p996
tp997
I1
s(S':='
p998
g87
tp999
I1263
s(g10
g54
tp1000
I51
s(g123
S'-'
p1001
tp1002
I7
s(g441
g13
tp1003
I271
s(S':='
p1004
g654
tp1005
I1265
s(S'break'
p1006
S'end'
p1007
tp1008
I98
s(S'nil'
p1009
g140
tp1010
I12
s(S'nil'
p1011
S'then'
p1012
tp1013
I1416
s(g187
S'integer'
p1014
tp1015
I277
s(g197
g656
tp1016
I90
s(g19
S'nil'
p1017
tp1018
I308
s(S'end'
p1019
S'type'
p1020
tp1021
I48
s(S'nil'
p1022
g118
tp1023
I48
s(S'nil'
p1024
g19
tp1025
I144
s(S'string'
p1026
S'<='
p1027
tp1028
I250
s(g37
S'of'
p1029
tp1030
I20
s(g542
g430
tp1031
I2
s(S'else'
p1032
S'while'
p1033
tp1034
I36
s(g43
g13
tp1035
I684
s(g95
g204
tp1036
I221
s(S'integer'
p1037
S'!='
p1038
tp1039
I212
s(g485
g59
tp1040
I1101
s(S'id'
p1041
g776
tp1042
I2
s(g15
g43
tp1043
I270
s(g150
g43
tp1044
I233
s(S'end'
p1045
g34
tp1046
I7
s(S'string'
p1047
g79
tp1048
I13
s(g10
g979
tp1049
I356
s(g110
S'nil'
p1050
tp1051
I40
s(g1029
g43
tp1052
I1
s(g37
g134
tp1053
I14
s(S'end'
p1054
g19
tp1055
I444
s(g19
S'if'
p1056
tp1057
I255
s(S'string'
p1058
S'function'
p1059
tp1060
I80
s(g38
S'let'
p1061
tp1062
I263
s(g140
g110
tp1063
I10
s(S'break'
p1064
g38
tp1065
I218
s(S':='
p1066
g767
tp1067
I1121
s(S'break'
p1068
S'!='
p1069
tp1070
I217
s(g15
g350
tp1071
I293
s(g19
S'integer'
p1072
tp1073
I258
s(S'string'
p1074
S'type'
p1075
tp1076
I81
s(S'id'
p1077
g26
tp1078
I190
s(g200
S'id'
p1079
tp1080
I9
s(g38
g202
tp1081
I263
s(S'then'
p1082
g43
tp1083
I843
s(g187
S'nil'
p1084
tp1085
I276
s(g79
g744
tp1086
I5
s(S'else'
p1087
S'for'
p1088
tp1089
I23
s(g348
S'then'
p1090
tp1091
I1446
s(S'of'
p1092
S'string'
p1093
tp1094
I235
s(g15
S'id'
p1095
tp1096
I299
s(g915
g243
tp1097
I1382
s(S'<='
p1098
S'for'
p1099
tp1100
I212
s(S'while'
p1101
g43
tp1102
I479
s(S'('
p1103
S'let'
p1104
tp1105
I24
s(S'integer'
p1106
g95
tp1107
I237
s(g482
S'if'
p1108
tp1109
I218
s(S'do'
p1110
S'break'
p1111
tp1112
I1768
s(g43
S'integer'
p1113
tp1114
I689
s(S'string'
p1115
g588
tp1116
I12
s(g744
S'id'
p1117
tp1118
I135
s(g54
S'do'
p1119
tp1120
I80
s(S'while'
p1121
S'while'
p1122
tp1123
I415
s(g38
S'integer'
p1124
tp1125
I252
s(S'string'
p1126
g54
tp1127
I51
s(S'!='
p1128
S'integer'
p1129
tp1130
I283
s(g19
g275
tp1131
I261
s(g812
g38
tp1132
I117
s(S'integer'
p1133
g853
tp1134
I205
s(g38
S'while'
p1135
tp1136
I230
s(g26
g43
tp1137
I27
s(S'integer'
p1138
S'in'
p1139
tp1140
I1615
s(S'then'
p1141
g593
tp1142
I937
s(g95
g406
tp1143
I238
s(S'nil'
p1144
S'id'
p1145
tp1146
I2
s(S'string'
p1147
g140
tp1148
I17
s(S'to'
p1149
S'if'
p1150
tp1151
I757
s(g711
g378
tp1152
I1335
s(S'id'
p1153
g588
tp1154
I24
s(S'to'
p1155
S'break'
p1156
tp1157
I925
s(S'id'
p1158
g656
tp1159
I293
s(S'break'
p1160
g43
tp1161
I208
s.